ARM GAS  /tmp/ccSVR7EX.s 			page 1


   1              		.cpu cortex-m4
   2              		.eabi_attribute 27, 1
   3              		.eabi_attribute 28, 1
   4              		.eabi_attribute 20, 1
   5              		.eabi_attribute 21, 1
   6              		.eabi_attribute 23, 3
   7              		.eabi_attribute 24, 1
   8              		.eabi_attribute 25, 1
   9              		.eabi_attribute 26, 1
  10              		.eabi_attribute 30, 1
  11              		.eabi_attribute 34, 1
  12              		.eabi_attribute 18, 4
  13              		.file	"stm32f4xx_ll_usb.c"
  14              		.text
  15              	.Ltext0:
  16              		.cfi_sections	.debug_frame
  17              		.section	.text.USB_CoreReset,"ax",%progbits
  18              		.align	1
  19              		.arch armv7e-m
  20              		.syntax unified
  21              		.thumb
  22              		.thumb_func
  23              		.fpu fpv4-sp-d16
  25              	USB_CoreReset:
  26              	.LVL0:
  27              	.LFB163:
  28              		.file 1 "Drivers/STM32F4xx_HAL_Driver/Src/stm32f4xx_ll_usb.c"
   1:Drivers/STM32F4xx_HAL_Driver/Src/stm32f4xx_ll_usb.c **** /**
   2:Drivers/STM32F4xx_HAL_Driver/Src/stm32f4xx_ll_usb.c ****   ******************************************************************************
   3:Drivers/STM32F4xx_HAL_Driver/Src/stm32f4xx_ll_usb.c ****   * @file    stm32f4xx_ll_usb.c
   4:Drivers/STM32F4xx_HAL_Driver/Src/stm32f4xx_ll_usb.c ****   * @author  MCD Application Team
   5:Drivers/STM32F4xx_HAL_Driver/Src/stm32f4xx_ll_usb.c ****   * @brief   USB Low Layer HAL module driver.
   6:Drivers/STM32F4xx_HAL_Driver/Src/stm32f4xx_ll_usb.c ****   *
   7:Drivers/STM32F4xx_HAL_Driver/Src/stm32f4xx_ll_usb.c ****   *          This file provides firmware functions to manage the following
   8:Drivers/STM32F4xx_HAL_Driver/Src/stm32f4xx_ll_usb.c ****   *          functionalities of the USB Peripheral Controller:
   9:Drivers/STM32F4xx_HAL_Driver/Src/stm32f4xx_ll_usb.c ****   *           + Initialization/de-initialization functions
  10:Drivers/STM32F4xx_HAL_Driver/Src/stm32f4xx_ll_usb.c ****   *           + I/O operation functions
  11:Drivers/STM32F4xx_HAL_Driver/Src/stm32f4xx_ll_usb.c ****   *           + Peripheral Control functions
  12:Drivers/STM32F4xx_HAL_Driver/Src/stm32f4xx_ll_usb.c ****   *           + Peripheral State functions
  13:Drivers/STM32F4xx_HAL_Driver/Src/stm32f4xx_ll_usb.c ****   *
  14:Drivers/STM32F4xx_HAL_Driver/Src/stm32f4xx_ll_usb.c ****   @verbatim
  15:Drivers/STM32F4xx_HAL_Driver/Src/stm32f4xx_ll_usb.c ****   ==============================================================================
  16:Drivers/STM32F4xx_HAL_Driver/Src/stm32f4xx_ll_usb.c ****                     ##### How to use this driver #####
  17:Drivers/STM32F4xx_HAL_Driver/Src/stm32f4xx_ll_usb.c ****   ==============================================================================
  18:Drivers/STM32F4xx_HAL_Driver/Src/stm32f4xx_ll_usb.c ****     [..]
  19:Drivers/STM32F4xx_HAL_Driver/Src/stm32f4xx_ll_usb.c ****       (#) Fill parameters of Init structure in USB_OTG_CfgTypeDef structure.
  20:Drivers/STM32F4xx_HAL_Driver/Src/stm32f4xx_ll_usb.c **** 
  21:Drivers/STM32F4xx_HAL_Driver/Src/stm32f4xx_ll_usb.c ****       (#) Call USB_CoreInit() API to initialize the USB Core peripheral.
  22:Drivers/STM32F4xx_HAL_Driver/Src/stm32f4xx_ll_usb.c **** 
  23:Drivers/STM32F4xx_HAL_Driver/Src/stm32f4xx_ll_usb.c ****       (#) The upper HAL HCD/PCD driver will call the right routines for its internal processes.
  24:Drivers/STM32F4xx_HAL_Driver/Src/stm32f4xx_ll_usb.c **** 
  25:Drivers/STM32F4xx_HAL_Driver/Src/stm32f4xx_ll_usb.c ****   @endverbatim
  26:Drivers/STM32F4xx_HAL_Driver/Src/stm32f4xx_ll_usb.c ****   ******************************************************************************
  27:Drivers/STM32F4xx_HAL_Driver/Src/stm32f4xx_ll_usb.c ****   * @attention
  28:Drivers/STM32F4xx_HAL_Driver/Src/stm32f4xx_ll_usb.c ****   *
  29:Drivers/STM32F4xx_HAL_Driver/Src/stm32f4xx_ll_usb.c ****   * <h2><center>&copy; Copyright (c) 2016 STMicroelectronics.
  30:Drivers/STM32F4xx_HAL_Driver/Src/stm32f4xx_ll_usb.c ****   * All rights reserved.</center></h2>
ARM GAS  /tmp/ccSVR7EX.s 			page 2


  31:Drivers/STM32F4xx_HAL_Driver/Src/stm32f4xx_ll_usb.c ****   *
  32:Drivers/STM32F4xx_HAL_Driver/Src/stm32f4xx_ll_usb.c ****   * This software component is licensed by ST under BSD 3-Clause license,
  33:Drivers/STM32F4xx_HAL_Driver/Src/stm32f4xx_ll_usb.c ****   * the "License"; You may not use this file except in compliance with the
  34:Drivers/STM32F4xx_HAL_Driver/Src/stm32f4xx_ll_usb.c ****   * License. You may obtain a copy of the License at:
  35:Drivers/STM32F4xx_HAL_Driver/Src/stm32f4xx_ll_usb.c ****   *                        opensource.org/licenses/BSD-3-Clause
  36:Drivers/STM32F4xx_HAL_Driver/Src/stm32f4xx_ll_usb.c ****   *
  37:Drivers/STM32F4xx_HAL_Driver/Src/stm32f4xx_ll_usb.c ****   ******************************************************************************
  38:Drivers/STM32F4xx_HAL_Driver/Src/stm32f4xx_ll_usb.c ****   */
  39:Drivers/STM32F4xx_HAL_Driver/Src/stm32f4xx_ll_usb.c **** 
  40:Drivers/STM32F4xx_HAL_Driver/Src/stm32f4xx_ll_usb.c **** /* Includes ------------------------------------------------------------------*/
  41:Drivers/STM32F4xx_HAL_Driver/Src/stm32f4xx_ll_usb.c **** #include "stm32f4xx_hal.h"
  42:Drivers/STM32F4xx_HAL_Driver/Src/stm32f4xx_ll_usb.c **** 
  43:Drivers/STM32F4xx_HAL_Driver/Src/stm32f4xx_ll_usb.c **** /** @addtogroup STM32F4xx_LL_USB_DRIVER
  44:Drivers/STM32F4xx_HAL_Driver/Src/stm32f4xx_ll_usb.c ****   * @{
  45:Drivers/STM32F4xx_HAL_Driver/Src/stm32f4xx_ll_usb.c ****   */
  46:Drivers/STM32F4xx_HAL_Driver/Src/stm32f4xx_ll_usb.c **** 
  47:Drivers/STM32F4xx_HAL_Driver/Src/stm32f4xx_ll_usb.c **** #if defined (HAL_PCD_MODULE_ENABLED) || defined (HAL_HCD_MODULE_ENABLED)
  48:Drivers/STM32F4xx_HAL_Driver/Src/stm32f4xx_ll_usb.c **** #if defined (USB_OTG_FS) || defined (USB_OTG_HS)
  49:Drivers/STM32F4xx_HAL_Driver/Src/stm32f4xx_ll_usb.c **** /* Private typedef -----------------------------------------------------------*/
  50:Drivers/STM32F4xx_HAL_Driver/Src/stm32f4xx_ll_usb.c **** /* Private define ------------------------------------------------------------*/
  51:Drivers/STM32F4xx_HAL_Driver/Src/stm32f4xx_ll_usb.c **** /* Private macro -------------------------------------------------------------*/
  52:Drivers/STM32F4xx_HAL_Driver/Src/stm32f4xx_ll_usb.c **** /* Private variables ---------------------------------------------------------*/
  53:Drivers/STM32F4xx_HAL_Driver/Src/stm32f4xx_ll_usb.c **** /* Private function prototypes -----------------------------------------------*/
  54:Drivers/STM32F4xx_HAL_Driver/Src/stm32f4xx_ll_usb.c **** /* Private functions ---------------------------------------------------------*/
  55:Drivers/STM32F4xx_HAL_Driver/Src/stm32f4xx_ll_usb.c **** #if defined (USB_OTG_FS) || defined (USB_OTG_HS)
  56:Drivers/STM32F4xx_HAL_Driver/Src/stm32f4xx_ll_usb.c **** static HAL_StatusTypeDef USB_CoreReset(USB_OTG_GlobalTypeDef *USBx);
  57:Drivers/STM32F4xx_HAL_Driver/Src/stm32f4xx_ll_usb.c **** 
  58:Drivers/STM32F4xx_HAL_Driver/Src/stm32f4xx_ll_usb.c **** /* Exported functions --------------------------------------------------------*/
  59:Drivers/STM32F4xx_HAL_Driver/Src/stm32f4xx_ll_usb.c **** /** @defgroup USB_LL_Exported_Functions USB Low Layer Exported Functions
  60:Drivers/STM32F4xx_HAL_Driver/Src/stm32f4xx_ll_usb.c ****   * @{
  61:Drivers/STM32F4xx_HAL_Driver/Src/stm32f4xx_ll_usb.c ****   */
  62:Drivers/STM32F4xx_HAL_Driver/Src/stm32f4xx_ll_usb.c **** 
  63:Drivers/STM32F4xx_HAL_Driver/Src/stm32f4xx_ll_usb.c **** /** @defgroup USB_LL_Exported_Functions_Group1 Initialization/de-initialization functions
  64:Drivers/STM32F4xx_HAL_Driver/Src/stm32f4xx_ll_usb.c ****   *  @brief    Initialization and Configuration functions
  65:Drivers/STM32F4xx_HAL_Driver/Src/stm32f4xx_ll_usb.c ****   *
  66:Drivers/STM32F4xx_HAL_Driver/Src/stm32f4xx_ll_usb.c **** @verbatim
  67:Drivers/STM32F4xx_HAL_Driver/Src/stm32f4xx_ll_usb.c ****  ===============================================================================
  68:Drivers/STM32F4xx_HAL_Driver/Src/stm32f4xx_ll_usb.c ****                       ##### Initialization/de-initialization functions #####
  69:Drivers/STM32F4xx_HAL_Driver/Src/stm32f4xx_ll_usb.c ****  ===============================================================================
  70:Drivers/STM32F4xx_HAL_Driver/Src/stm32f4xx_ll_usb.c **** 
  71:Drivers/STM32F4xx_HAL_Driver/Src/stm32f4xx_ll_usb.c **** @endverbatim
  72:Drivers/STM32F4xx_HAL_Driver/Src/stm32f4xx_ll_usb.c ****   * @{
  73:Drivers/STM32F4xx_HAL_Driver/Src/stm32f4xx_ll_usb.c ****   */
  74:Drivers/STM32F4xx_HAL_Driver/Src/stm32f4xx_ll_usb.c **** 
  75:Drivers/STM32F4xx_HAL_Driver/Src/stm32f4xx_ll_usb.c **** /**
  76:Drivers/STM32F4xx_HAL_Driver/Src/stm32f4xx_ll_usb.c ****   * @brief  Initializes the USB Core
  77:Drivers/STM32F4xx_HAL_Driver/Src/stm32f4xx_ll_usb.c ****   * @param  USBx USB Instance
  78:Drivers/STM32F4xx_HAL_Driver/Src/stm32f4xx_ll_usb.c ****   * @param  cfg pointer to a USB_OTG_CfgTypeDef structure that contains
  79:Drivers/STM32F4xx_HAL_Driver/Src/stm32f4xx_ll_usb.c ****   *         the configuration information for the specified USBx peripheral.
  80:Drivers/STM32F4xx_HAL_Driver/Src/stm32f4xx_ll_usb.c ****   * @retval HAL status
  81:Drivers/STM32F4xx_HAL_Driver/Src/stm32f4xx_ll_usb.c ****   */
  82:Drivers/STM32F4xx_HAL_Driver/Src/stm32f4xx_ll_usb.c **** HAL_StatusTypeDef USB_CoreInit(USB_OTG_GlobalTypeDef *USBx, USB_OTG_CfgTypeDef cfg)
  83:Drivers/STM32F4xx_HAL_Driver/Src/stm32f4xx_ll_usb.c **** {
  84:Drivers/STM32F4xx_HAL_Driver/Src/stm32f4xx_ll_usb.c ****   HAL_StatusTypeDef ret;
  85:Drivers/STM32F4xx_HAL_Driver/Src/stm32f4xx_ll_usb.c **** 
  86:Drivers/STM32F4xx_HAL_Driver/Src/stm32f4xx_ll_usb.c ****   if (cfg.phy_itface == USB_OTG_ULPI_PHY)
  87:Drivers/STM32F4xx_HAL_Driver/Src/stm32f4xx_ll_usb.c ****   {
ARM GAS  /tmp/ccSVR7EX.s 			page 3


  88:Drivers/STM32F4xx_HAL_Driver/Src/stm32f4xx_ll_usb.c ****     USBx->GCCFG &= ~(USB_OTG_GCCFG_PWRDWN);
  89:Drivers/STM32F4xx_HAL_Driver/Src/stm32f4xx_ll_usb.c **** 
  90:Drivers/STM32F4xx_HAL_Driver/Src/stm32f4xx_ll_usb.c ****     /* Init The ULPI Interface */
  91:Drivers/STM32F4xx_HAL_Driver/Src/stm32f4xx_ll_usb.c ****     USBx->GUSBCFG &= ~(USB_OTG_GUSBCFG_TSDPS | USB_OTG_GUSBCFG_ULPIFSLS | USB_OTG_GUSBCFG_PHYSEL);
  92:Drivers/STM32F4xx_HAL_Driver/Src/stm32f4xx_ll_usb.c **** 
  93:Drivers/STM32F4xx_HAL_Driver/Src/stm32f4xx_ll_usb.c ****     /* Select vbus source */
  94:Drivers/STM32F4xx_HAL_Driver/Src/stm32f4xx_ll_usb.c ****     USBx->GUSBCFG &= ~(USB_OTG_GUSBCFG_ULPIEVBUSD | USB_OTG_GUSBCFG_ULPIEVBUSI);
  95:Drivers/STM32F4xx_HAL_Driver/Src/stm32f4xx_ll_usb.c ****     if (cfg.use_external_vbus == 1U)
  96:Drivers/STM32F4xx_HAL_Driver/Src/stm32f4xx_ll_usb.c ****     {
  97:Drivers/STM32F4xx_HAL_Driver/Src/stm32f4xx_ll_usb.c ****       USBx->GUSBCFG |= USB_OTG_GUSBCFG_ULPIEVBUSD;
  98:Drivers/STM32F4xx_HAL_Driver/Src/stm32f4xx_ll_usb.c ****     }
  99:Drivers/STM32F4xx_HAL_Driver/Src/stm32f4xx_ll_usb.c **** 
 100:Drivers/STM32F4xx_HAL_Driver/Src/stm32f4xx_ll_usb.c ****     /* Reset after a PHY select */
 101:Drivers/STM32F4xx_HAL_Driver/Src/stm32f4xx_ll_usb.c ****     ret = USB_CoreReset(USBx);
 102:Drivers/STM32F4xx_HAL_Driver/Src/stm32f4xx_ll_usb.c ****   }
 103:Drivers/STM32F4xx_HAL_Driver/Src/stm32f4xx_ll_usb.c ****   else /* FS interface (embedded Phy) */
 104:Drivers/STM32F4xx_HAL_Driver/Src/stm32f4xx_ll_usb.c ****   {
 105:Drivers/STM32F4xx_HAL_Driver/Src/stm32f4xx_ll_usb.c ****     /* Select FS Embedded PHY */
 106:Drivers/STM32F4xx_HAL_Driver/Src/stm32f4xx_ll_usb.c ****     USBx->GUSBCFG |= USB_OTG_GUSBCFG_PHYSEL;
 107:Drivers/STM32F4xx_HAL_Driver/Src/stm32f4xx_ll_usb.c **** 
 108:Drivers/STM32F4xx_HAL_Driver/Src/stm32f4xx_ll_usb.c ****     /* Reset after a PHY select */
 109:Drivers/STM32F4xx_HAL_Driver/Src/stm32f4xx_ll_usb.c ****     ret = USB_CoreReset(USBx);
 110:Drivers/STM32F4xx_HAL_Driver/Src/stm32f4xx_ll_usb.c **** 
 111:Drivers/STM32F4xx_HAL_Driver/Src/stm32f4xx_ll_usb.c ****     if (cfg.battery_charging_enable == 0U)
 112:Drivers/STM32F4xx_HAL_Driver/Src/stm32f4xx_ll_usb.c ****     {
 113:Drivers/STM32F4xx_HAL_Driver/Src/stm32f4xx_ll_usb.c ****       /* Activate the USB Transceiver */
 114:Drivers/STM32F4xx_HAL_Driver/Src/stm32f4xx_ll_usb.c ****       USBx->GCCFG |= USB_OTG_GCCFG_PWRDWN;
 115:Drivers/STM32F4xx_HAL_Driver/Src/stm32f4xx_ll_usb.c ****     }
 116:Drivers/STM32F4xx_HAL_Driver/Src/stm32f4xx_ll_usb.c ****     else
 117:Drivers/STM32F4xx_HAL_Driver/Src/stm32f4xx_ll_usb.c ****     {
 118:Drivers/STM32F4xx_HAL_Driver/Src/stm32f4xx_ll_usb.c ****       /* Deactivate the USB Transceiver */
 119:Drivers/STM32F4xx_HAL_Driver/Src/stm32f4xx_ll_usb.c ****       USBx->GCCFG &= ~(USB_OTG_GCCFG_PWRDWN);
 120:Drivers/STM32F4xx_HAL_Driver/Src/stm32f4xx_ll_usb.c ****     }
 121:Drivers/STM32F4xx_HAL_Driver/Src/stm32f4xx_ll_usb.c ****   }
 122:Drivers/STM32F4xx_HAL_Driver/Src/stm32f4xx_ll_usb.c **** 
 123:Drivers/STM32F4xx_HAL_Driver/Src/stm32f4xx_ll_usb.c ****   if (cfg.dma_enable == 1U)
 124:Drivers/STM32F4xx_HAL_Driver/Src/stm32f4xx_ll_usb.c ****   {
 125:Drivers/STM32F4xx_HAL_Driver/Src/stm32f4xx_ll_usb.c ****     USBx->GAHBCFG |= USB_OTG_GAHBCFG_HBSTLEN_2;
 126:Drivers/STM32F4xx_HAL_Driver/Src/stm32f4xx_ll_usb.c ****     USBx->GAHBCFG |= USB_OTG_GAHBCFG_DMAEN;
 127:Drivers/STM32F4xx_HAL_Driver/Src/stm32f4xx_ll_usb.c ****   }
 128:Drivers/STM32F4xx_HAL_Driver/Src/stm32f4xx_ll_usb.c **** 
 129:Drivers/STM32F4xx_HAL_Driver/Src/stm32f4xx_ll_usb.c ****   return ret;
 130:Drivers/STM32F4xx_HAL_Driver/Src/stm32f4xx_ll_usb.c **** }
 131:Drivers/STM32F4xx_HAL_Driver/Src/stm32f4xx_ll_usb.c **** 
 132:Drivers/STM32F4xx_HAL_Driver/Src/stm32f4xx_ll_usb.c **** 
 133:Drivers/STM32F4xx_HAL_Driver/Src/stm32f4xx_ll_usb.c **** /**
 134:Drivers/STM32F4xx_HAL_Driver/Src/stm32f4xx_ll_usb.c ****   * @brief  Set the USB turnaround time
 135:Drivers/STM32F4xx_HAL_Driver/Src/stm32f4xx_ll_usb.c ****   * @param  USBx USB Instance
 136:Drivers/STM32F4xx_HAL_Driver/Src/stm32f4xx_ll_usb.c ****   * @param  hclk: AHB clock frequency
 137:Drivers/STM32F4xx_HAL_Driver/Src/stm32f4xx_ll_usb.c ****   * @retval USB turnaround time In PHY Clocks number
 138:Drivers/STM32F4xx_HAL_Driver/Src/stm32f4xx_ll_usb.c ****   */
 139:Drivers/STM32F4xx_HAL_Driver/Src/stm32f4xx_ll_usb.c **** HAL_StatusTypeDef USB_SetTurnaroundTime(USB_OTG_GlobalTypeDef *USBx,
 140:Drivers/STM32F4xx_HAL_Driver/Src/stm32f4xx_ll_usb.c ****                                         uint32_t hclk, uint8_t speed)
 141:Drivers/STM32F4xx_HAL_Driver/Src/stm32f4xx_ll_usb.c **** {
 142:Drivers/STM32F4xx_HAL_Driver/Src/stm32f4xx_ll_usb.c ****   uint32_t UsbTrd;
 143:Drivers/STM32F4xx_HAL_Driver/Src/stm32f4xx_ll_usb.c **** 
 144:Drivers/STM32F4xx_HAL_Driver/Src/stm32f4xx_ll_usb.c ****   /* The USBTRD is configured according to the tables below, depending on AHB frequency
ARM GAS  /tmp/ccSVR7EX.s 			page 4


 145:Drivers/STM32F4xx_HAL_Driver/Src/stm32f4xx_ll_usb.c ****   used by application. In the low AHB frequency range it is used to stretch enough the USB response
 146:Drivers/STM32F4xx_HAL_Driver/Src/stm32f4xx_ll_usb.c ****   time to IN tokens, the USB turnaround time, so to compensate for the longer AHB read access
 147:Drivers/STM32F4xx_HAL_Driver/Src/stm32f4xx_ll_usb.c ****   latency to the Data FIFO */
 148:Drivers/STM32F4xx_HAL_Driver/Src/stm32f4xx_ll_usb.c ****   if (speed == USBD_FS_SPEED)
 149:Drivers/STM32F4xx_HAL_Driver/Src/stm32f4xx_ll_usb.c ****   {
 150:Drivers/STM32F4xx_HAL_Driver/Src/stm32f4xx_ll_usb.c ****     if ((hclk >= 14200000U) && (hclk < 15000000U))
 151:Drivers/STM32F4xx_HAL_Driver/Src/stm32f4xx_ll_usb.c ****     {
 152:Drivers/STM32F4xx_HAL_Driver/Src/stm32f4xx_ll_usb.c ****       /* hclk Clock Range between 14.2-15 MHz */
 153:Drivers/STM32F4xx_HAL_Driver/Src/stm32f4xx_ll_usb.c ****       UsbTrd = 0xFU;
 154:Drivers/STM32F4xx_HAL_Driver/Src/stm32f4xx_ll_usb.c ****     }
 155:Drivers/STM32F4xx_HAL_Driver/Src/stm32f4xx_ll_usb.c ****     else if ((hclk >= 15000000U) && (hclk < 16000000U))
 156:Drivers/STM32F4xx_HAL_Driver/Src/stm32f4xx_ll_usb.c ****     {
 157:Drivers/STM32F4xx_HAL_Driver/Src/stm32f4xx_ll_usb.c ****       /* hclk Clock Range between 15-16 MHz */
 158:Drivers/STM32F4xx_HAL_Driver/Src/stm32f4xx_ll_usb.c ****       UsbTrd = 0xEU;
 159:Drivers/STM32F4xx_HAL_Driver/Src/stm32f4xx_ll_usb.c ****     }
 160:Drivers/STM32F4xx_HAL_Driver/Src/stm32f4xx_ll_usb.c ****     else if ((hclk >= 16000000U) && (hclk < 17200000U))
 161:Drivers/STM32F4xx_HAL_Driver/Src/stm32f4xx_ll_usb.c ****     {
 162:Drivers/STM32F4xx_HAL_Driver/Src/stm32f4xx_ll_usb.c ****       /* hclk Clock Range between 16-17.2 MHz */
 163:Drivers/STM32F4xx_HAL_Driver/Src/stm32f4xx_ll_usb.c ****       UsbTrd = 0xDU;
 164:Drivers/STM32F4xx_HAL_Driver/Src/stm32f4xx_ll_usb.c ****     }
 165:Drivers/STM32F4xx_HAL_Driver/Src/stm32f4xx_ll_usb.c ****     else if ((hclk >= 17200000U) && (hclk < 18500000U))
 166:Drivers/STM32F4xx_HAL_Driver/Src/stm32f4xx_ll_usb.c ****     {
 167:Drivers/STM32F4xx_HAL_Driver/Src/stm32f4xx_ll_usb.c ****       /* hclk Clock Range between 17.2-18.5 MHz */
 168:Drivers/STM32F4xx_HAL_Driver/Src/stm32f4xx_ll_usb.c ****       UsbTrd = 0xCU;
 169:Drivers/STM32F4xx_HAL_Driver/Src/stm32f4xx_ll_usb.c ****     }
 170:Drivers/STM32F4xx_HAL_Driver/Src/stm32f4xx_ll_usb.c ****     else if ((hclk >= 18500000U) && (hclk < 20000000U))
 171:Drivers/STM32F4xx_HAL_Driver/Src/stm32f4xx_ll_usb.c ****     {
 172:Drivers/STM32F4xx_HAL_Driver/Src/stm32f4xx_ll_usb.c ****       /* hclk Clock Range between 18.5-20 MHz */
 173:Drivers/STM32F4xx_HAL_Driver/Src/stm32f4xx_ll_usb.c ****       UsbTrd = 0xBU;
 174:Drivers/STM32F4xx_HAL_Driver/Src/stm32f4xx_ll_usb.c ****     }
 175:Drivers/STM32F4xx_HAL_Driver/Src/stm32f4xx_ll_usb.c ****     else if ((hclk >= 20000000U) && (hclk < 21800000U))
 176:Drivers/STM32F4xx_HAL_Driver/Src/stm32f4xx_ll_usb.c ****     {
 177:Drivers/STM32F4xx_HAL_Driver/Src/stm32f4xx_ll_usb.c ****       /* hclk Clock Range between 20-21.8 MHz */
 178:Drivers/STM32F4xx_HAL_Driver/Src/stm32f4xx_ll_usb.c ****       UsbTrd = 0xAU;
 179:Drivers/STM32F4xx_HAL_Driver/Src/stm32f4xx_ll_usb.c ****     }
 180:Drivers/STM32F4xx_HAL_Driver/Src/stm32f4xx_ll_usb.c ****     else if ((hclk >= 21800000U) && (hclk < 24000000U))
 181:Drivers/STM32F4xx_HAL_Driver/Src/stm32f4xx_ll_usb.c ****     {
 182:Drivers/STM32F4xx_HAL_Driver/Src/stm32f4xx_ll_usb.c ****       /* hclk Clock Range between 21.8-24 MHz */
 183:Drivers/STM32F4xx_HAL_Driver/Src/stm32f4xx_ll_usb.c ****       UsbTrd = 0x9U;
 184:Drivers/STM32F4xx_HAL_Driver/Src/stm32f4xx_ll_usb.c ****     }
 185:Drivers/STM32F4xx_HAL_Driver/Src/stm32f4xx_ll_usb.c ****     else if ((hclk >= 24000000U) && (hclk < 27700000U))
 186:Drivers/STM32F4xx_HAL_Driver/Src/stm32f4xx_ll_usb.c ****     {
 187:Drivers/STM32F4xx_HAL_Driver/Src/stm32f4xx_ll_usb.c ****       /* hclk Clock Range between 24-27.7 MHz */
 188:Drivers/STM32F4xx_HAL_Driver/Src/stm32f4xx_ll_usb.c ****       UsbTrd = 0x8U;
 189:Drivers/STM32F4xx_HAL_Driver/Src/stm32f4xx_ll_usb.c ****     }
 190:Drivers/STM32F4xx_HAL_Driver/Src/stm32f4xx_ll_usb.c ****     else if ((hclk >= 27700000U) && (hclk < 32000000U))
 191:Drivers/STM32F4xx_HAL_Driver/Src/stm32f4xx_ll_usb.c ****     {
 192:Drivers/STM32F4xx_HAL_Driver/Src/stm32f4xx_ll_usb.c ****       /* hclk Clock Range between 27.7-32 MHz */
 193:Drivers/STM32F4xx_HAL_Driver/Src/stm32f4xx_ll_usb.c ****       UsbTrd = 0x7U;
 194:Drivers/STM32F4xx_HAL_Driver/Src/stm32f4xx_ll_usb.c ****     }
 195:Drivers/STM32F4xx_HAL_Driver/Src/stm32f4xx_ll_usb.c ****     else /* if(hclk >= 32000000) */
 196:Drivers/STM32F4xx_HAL_Driver/Src/stm32f4xx_ll_usb.c ****     {
 197:Drivers/STM32F4xx_HAL_Driver/Src/stm32f4xx_ll_usb.c ****       /* hclk Clock Range between 32-200 MHz */
 198:Drivers/STM32F4xx_HAL_Driver/Src/stm32f4xx_ll_usb.c ****       UsbTrd = 0x6U;
 199:Drivers/STM32F4xx_HAL_Driver/Src/stm32f4xx_ll_usb.c ****     }
 200:Drivers/STM32F4xx_HAL_Driver/Src/stm32f4xx_ll_usb.c ****   }
 201:Drivers/STM32F4xx_HAL_Driver/Src/stm32f4xx_ll_usb.c ****   else if (speed == USBD_HS_SPEED)
ARM GAS  /tmp/ccSVR7EX.s 			page 5


 202:Drivers/STM32F4xx_HAL_Driver/Src/stm32f4xx_ll_usb.c ****   {
 203:Drivers/STM32F4xx_HAL_Driver/Src/stm32f4xx_ll_usb.c ****     UsbTrd = USBD_HS_TRDT_VALUE;
 204:Drivers/STM32F4xx_HAL_Driver/Src/stm32f4xx_ll_usb.c ****   }
 205:Drivers/STM32F4xx_HAL_Driver/Src/stm32f4xx_ll_usb.c ****   else
 206:Drivers/STM32F4xx_HAL_Driver/Src/stm32f4xx_ll_usb.c ****   {
 207:Drivers/STM32F4xx_HAL_Driver/Src/stm32f4xx_ll_usb.c ****     UsbTrd = USBD_DEFAULT_TRDT_VALUE;
 208:Drivers/STM32F4xx_HAL_Driver/Src/stm32f4xx_ll_usb.c ****   }
 209:Drivers/STM32F4xx_HAL_Driver/Src/stm32f4xx_ll_usb.c **** 
 210:Drivers/STM32F4xx_HAL_Driver/Src/stm32f4xx_ll_usb.c ****   USBx->GUSBCFG &= ~USB_OTG_GUSBCFG_TRDT;
 211:Drivers/STM32F4xx_HAL_Driver/Src/stm32f4xx_ll_usb.c ****   USBx->GUSBCFG |= (uint32_t)((UsbTrd << 10) & USB_OTG_GUSBCFG_TRDT);
 212:Drivers/STM32F4xx_HAL_Driver/Src/stm32f4xx_ll_usb.c **** 
 213:Drivers/STM32F4xx_HAL_Driver/Src/stm32f4xx_ll_usb.c ****   return HAL_OK;
 214:Drivers/STM32F4xx_HAL_Driver/Src/stm32f4xx_ll_usb.c **** }
 215:Drivers/STM32F4xx_HAL_Driver/Src/stm32f4xx_ll_usb.c **** 
 216:Drivers/STM32F4xx_HAL_Driver/Src/stm32f4xx_ll_usb.c **** /**
 217:Drivers/STM32F4xx_HAL_Driver/Src/stm32f4xx_ll_usb.c ****   * @brief  USB_EnableGlobalInt
 218:Drivers/STM32F4xx_HAL_Driver/Src/stm32f4xx_ll_usb.c ****   *         Enables the controller's Global Int in the AHB Config reg
 219:Drivers/STM32F4xx_HAL_Driver/Src/stm32f4xx_ll_usb.c ****   * @param  USBx  Selected device
 220:Drivers/STM32F4xx_HAL_Driver/Src/stm32f4xx_ll_usb.c ****   * @retval HAL status
 221:Drivers/STM32F4xx_HAL_Driver/Src/stm32f4xx_ll_usb.c ****   */
 222:Drivers/STM32F4xx_HAL_Driver/Src/stm32f4xx_ll_usb.c **** HAL_StatusTypeDef USB_EnableGlobalInt(USB_OTG_GlobalTypeDef *USBx)
 223:Drivers/STM32F4xx_HAL_Driver/Src/stm32f4xx_ll_usb.c **** {
 224:Drivers/STM32F4xx_HAL_Driver/Src/stm32f4xx_ll_usb.c ****   USBx->GAHBCFG |= USB_OTG_GAHBCFG_GINT;
 225:Drivers/STM32F4xx_HAL_Driver/Src/stm32f4xx_ll_usb.c ****   return HAL_OK;
 226:Drivers/STM32F4xx_HAL_Driver/Src/stm32f4xx_ll_usb.c **** }
 227:Drivers/STM32F4xx_HAL_Driver/Src/stm32f4xx_ll_usb.c **** 
 228:Drivers/STM32F4xx_HAL_Driver/Src/stm32f4xx_ll_usb.c **** /**
 229:Drivers/STM32F4xx_HAL_Driver/Src/stm32f4xx_ll_usb.c ****   * @brief  USB_DisableGlobalInt
 230:Drivers/STM32F4xx_HAL_Driver/Src/stm32f4xx_ll_usb.c ****   *         Disable the controller's Global Int in the AHB Config reg
 231:Drivers/STM32F4xx_HAL_Driver/Src/stm32f4xx_ll_usb.c ****   * @param  USBx  Selected device
 232:Drivers/STM32F4xx_HAL_Driver/Src/stm32f4xx_ll_usb.c ****   * @retval HAL status
 233:Drivers/STM32F4xx_HAL_Driver/Src/stm32f4xx_ll_usb.c ****   */
 234:Drivers/STM32F4xx_HAL_Driver/Src/stm32f4xx_ll_usb.c **** HAL_StatusTypeDef USB_DisableGlobalInt(USB_OTG_GlobalTypeDef *USBx)
 235:Drivers/STM32F4xx_HAL_Driver/Src/stm32f4xx_ll_usb.c **** {
 236:Drivers/STM32F4xx_HAL_Driver/Src/stm32f4xx_ll_usb.c ****   USBx->GAHBCFG &= ~USB_OTG_GAHBCFG_GINT;
 237:Drivers/STM32F4xx_HAL_Driver/Src/stm32f4xx_ll_usb.c ****   return HAL_OK;
 238:Drivers/STM32F4xx_HAL_Driver/Src/stm32f4xx_ll_usb.c **** }
 239:Drivers/STM32F4xx_HAL_Driver/Src/stm32f4xx_ll_usb.c **** 
 240:Drivers/STM32F4xx_HAL_Driver/Src/stm32f4xx_ll_usb.c **** /**
 241:Drivers/STM32F4xx_HAL_Driver/Src/stm32f4xx_ll_usb.c ****   * @brief  USB_SetCurrentMode Set functional mode
 242:Drivers/STM32F4xx_HAL_Driver/Src/stm32f4xx_ll_usb.c ****   * @param  USBx  Selected device
 243:Drivers/STM32F4xx_HAL_Driver/Src/stm32f4xx_ll_usb.c ****   * @param  mode  current core mode
 244:Drivers/STM32F4xx_HAL_Driver/Src/stm32f4xx_ll_usb.c ****   *          This parameter can be one of these values:
 245:Drivers/STM32F4xx_HAL_Driver/Src/stm32f4xx_ll_usb.c ****   *            @arg USB_DEVICE_MODE Peripheral mode
 246:Drivers/STM32F4xx_HAL_Driver/Src/stm32f4xx_ll_usb.c ****   *            @arg USB_HOST_MODE Host mode
 247:Drivers/STM32F4xx_HAL_Driver/Src/stm32f4xx_ll_usb.c ****   * @retval HAL status
 248:Drivers/STM32F4xx_HAL_Driver/Src/stm32f4xx_ll_usb.c ****   */
 249:Drivers/STM32F4xx_HAL_Driver/Src/stm32f4xx_ll_usb.c **** HAL_StatusTypeDef USB_SetCurrentMode(USB_OTG_GlobalTypeDef *USBx, USB_OTG_ModeTypeDef mode)
 250:Drivers/STM32F4xx_HAL_Driver/Src/stm32f4xx_ll_usb.c **** {
 251:Drivers/STM32F4xx_HAL_Driver/Src/stm32f4xx_ll_usb.c ****   uint32_t ms = 0U;
 252:Drivers/STM32F4xx_HAL_Driver/Src/stm32f4xx_ll_usb.c **** 
 253:Drivers/STM32F4xx_HAL_Driver/Src/stm32f4xx_ll_usb.c ****   USBx->GUSBCFG &= ~(USB_OTG_GUSBCFG_FHMOD | USB_OTG_GUSBCFG_FDMOD);
 254:Drivers/STM32F4xx_HAL_Driver/Src/stm32f4xx_ll_usb.c **** 
 255:Drivers/STM32F4xx_HAL_Driver/Src/stm32f4xx_ll_usb.c ****   if (mode == USB_HOST_MODE)
 256:Drivers/STM32F4xx_HAL_Driver/Src/stm32f4xx_ll_usb.c ****   {
 257:Drivers/STM32F4xx_HAL_Driver/Src/stm32f4xx_ll_usb.c ****     USBx->GUSBCFG |= USB_OTG_GUSBCFG_FHMOD;
 258:Drivers/STM32F4xx_HAL_Driver/Src/stm32f4xx_ll_usb.c **** 
ARM GAS  /tmp/ccSVR7EX.s 			page 6


 259:Drivers/STM32F4xx_HAL_Driver/Src/stm32f4xx_ll_usb.c ****     do
 260:Drivers/STM32F4xx_HAL_Driver/Src/stm32f4xx_ll_usb.c ****     {
 261:Drivers/STM32F4xx_HAL_Driver/Src/stm32f4xx_ll_usb.c ****       HAL_Delay(1U);
 262:Drivers/STM32F4xx_HAL_Driver/Src/stm32f4xx_ll_usb.c ****       ms++;
 263:Drivers/STM32F4xx_HAL_Driver/Src/stm32f4xx_ll_usb.c ****     } while ((USB_GetMode(USBx) != (uint32_t)USB_HOST_MODE) && (ms < 50U));
 264:Drivers/STM32F4xx_HAL_Driver/Src/stm32f4xx_ll_usb.c ****   }
 265:Drivers/STM32F4xx_HAL_Driver/Src/stm32f4xx_ll_usb.c ****   else if (mode == USB_DEVICE_MODE)
 266:Drivers/STM32F4xx_HAL_Driver/Src/stm32f4xx_ll_usb.c ****   {
 267:Drivers/STM32F4xx_HAL_Driver/Src/stm32f4xx_ll_usb.c ****     USBx->GUSBCFG |= USB_OTG_GUSBCFG_FDMOD;
 268:Drivers/STM32F4xx_HAL_Driver/Src/stm32f4xx_ll_usb.c **** 
 269:Drivers/STM32F4xx_HAL_Driver/Src/stm32f4xx_ll_usb.c ****     do
 270:Drivers/STM32F4xx_HAL_Driver/Src/stm32f4xx_ll_usb.c ****     {
 271:Drivers/STM32F4xx_HAL_Driver/Src/stm32f4xx_ll_usb.c ****       HAL_Delay(1U);
 272:Drivers/STM32F4xx_HAL_Driver/Src/stm32f4xx_ll_usb.c ****       ms++;
 273:Drivers/STM32F4xx_HAL_Driver/Src/stm32f4xx_ll_usb.c ****     } while ((USB_GetMode(USBx) != (uint32_t)USB_DEVICE_MODE) && (ms < 50U));
 274:Drivers/STM32F4xx_HAL_Driver/Src/stm32f4xx_ll_usb.c ****   }
 275:Drivers/STM32F4xx_HAL_Driver/Src/stm32f4xx_ll_usb.c ****   else
 276:Drivers/STM32F4xx_HAL_Driver/Src/stm32f4xx_ll_usb.c ****   {
 277:Drivers/STM32F4xx_HAL_Driver/Src/stm32f4xx_ll_usb.c ****     return HAL_ERROR;
 278:Drivers/STM32F4xx_HAL_Driver/Src/stm32f4xx_ll_usb.c ****   }
 279:Drivers/STM32F4xx_HAL_Driver/Src/stm32f4xx_ll_usb.c **** 
 280:Drivers/STM32F4xx_HAL_Driver/Src/stm32f4xx_ll_usb.c ****   if (ms == 50U)
 281:Drivers/STM32F4xx_HAL_Driver/Src/stm32f4xx_ll_usb.c ****   {
 282:Drivers/STM32F4xx_HAL_Driver/Src/stm32f4xx_ll_usb.c ****     return HAL_ERROR;
 283:Drivers/STM32F4xx_HAL_Driver/Src/stm32f4xx_ll_usb.c ****   }
 284:Drivers/STM32F4xx_HAL_Driver/Src/stm32f4xx_ll_usb.c **** 
 285:Drivers/STM32F4xx_HAL_Driver/Src/stm32f4xx_ll_usb.c ****   return HAL_OK;
 286:Drivers/STM32F4xx_HAL_Driver/Src/stm32f4xx_ll_usb.c **** }
 287:Drivers/STM32F4xx_HAL_Driver/Src/stm32f4xx_ll_usb.c **** 
 288:Drivers/STM32F4xx_HAL_Driver/Src/stm32f4xx_ll_usb.c **** /**
 289:Drivers/STM32F4xx_HAL_Driver/Src/stm32f4xx_ll_usb.c ****   * @brief  USB_DevInit Initializes the USB_OTG controller registers
 290:Drivers/STM32F4xx_HAL_Driver/Src/stm32f4xx_ll_usb.c ****   *         for device mode
 291:Drivers/STM32F4xx_HAL_Driver/Src/stm32f4xx_ll_usb.c ****   * @param  USBx  Selected device
 292:Drivers/STM32F4xx_HAL_Driver/Src/stm32f4xx_ll_usb.c ****   * @param  cfg   pointer to a USB_OTG_CfgTypeDef structure that contains
 293:Drivers/STM32F4xx_HAL_Driver/Src/stm32f4xx_ll_usb.c ****   *         the configuration information for the specified USBx peripheral.
 294:Drivers/STM32F4xx_HAL_Driver/Src/stm32f4xx_ll_usb.c ****   * @retval HAL status
 295:Drivers/STM32F4xx_HAL_Driver/Src/stm32f4xx_ll_usb.c ****   */
 296:Drivers/STM32F4xx_HAL_Driver/Src/stm32f4xx_ll_usb.c **** HAL_StatusTypeDef USB_DevInit(USB_OTG_GlobalTypeDef *USBx, USB_OTG_CfgTypeDef cfg)
 297:Drivers/STM32F4xx_HAL_Driver/Src/stm32f4xx_ll_usb.c **** {
 298:Drivers/STM32F4xx_HAL_Driver/Src/stm32f4xx_ll_usb.c ****   HAL_StatusTypeDef ret = HAL_OK;
 299:Drivers/STM32F4xx_HAL_Driver/Src/stm32f4xx_ll_usb.c ****   uint32_t USBx_BASE = (uint32_t)USBx;
 300:Drivers/STM32F4xx_HAL_Driver/Src/stm32f4xx_ll_usb.c ****   uint32_t i;
 301:Drivers/STM32F4xx_HAL_Driver/Src/stm32f4xx_ll_usb.c **** 
 302:Drivers/STM32F4xx_HAL_Driver/Src/stm32f4xx_ll_usb.c ****   for (i = 0U; i < 15U; i++)
 303:Drivers/STM32F4xx_HAL_Driver/Src/stm32f4xx_ll_usb.c ****   {
 304:Drivers/STM32F4xx_HAL_Driver/Src/stm32f4xx_ll_usb.c ****     USBx->DIEPTXF[i] = 0U;
 305:Drivers/STM32F4xx_HAL_Driver/Src/stm32f4xx_ll_usb.c ****   }
 306:Drivers/STM32F4xx_HAL_Driver/Src/stm32f4xx_ll_usb.c **** 
 307:Drivers/STM32F4xx_HAL_Driver/Src/stm32f4xx_ll_usb.c **** #if defined(STM32F446xx) || defined(STM32F469xx) || defined(STM32F479xx) || defined(STM32F412Zx) ||
 308:Drivers/STM32F4xx_HAL_Driver/Src/stm32f4xx_ll_usb.c ****   /* VBUS Sensing setup */
 309:Drivers/STM32F4xx_HAL_Driver/Src/stm32f4xx_ll_usb.c ****   if (cfg.vbus_sensing_enable == 0U)
 310:Drivers/STM32F4xx_HAL_Driver/Src/stm32f4xx_ll_usb.c ****   {
 311:Drivers/STM32F4xx_HAL_Driver/Src/stm32f4xx_ll_usb.c ****     USBx_DEVICE->DCTL |= USB_OTG_DCTL_SDIS;
 312:Drivers/STM32F4xx_HAL_Driver/Src/stm32f4xx_ll_usb.c **** 
 313:Drivers/STM32F4xx_HAL_Driver/Src/stm32f4xx_ll_usb.c ****     /* Deactivate VBUS Sensing B */
 314:Drivers/STM32F4xx_HAL_Driver/Src/stm32f4xx_ll_usb.c ****     USBx->GCCFG &= ~USB_OTG_GCCFG_VBDEN;
 315:Drivers/STM32F4xx_HAL_Driver/Src/stm32f4xx_ll_usb.c **** 
ARM GAS  /tmp/ccSVR7EX.s 			page 7


 316:Drivers/STM32F4xx_HAL_Driver/Src/stm32f4xx_ll_usb.c ****     /* B-peripheral session valid override enable */
 317:Drivers/STM32F4xx_HAL_Driver/Src/stm32f4xx_ll_usb.c ****     USBx->GOTGCTL |= USB_OTG_GOTGCTL_BVALOEN;
 318:Drivers/STM32F4xx_HAL_Driver/Src/stm32f4xx_ll_usb.c ****     USBx->GOTGCTL |= USB_OTG_GOTGCTL_BVALOVAL;
 319:Drivers/STM32F4xx_HAL_Driver/Src/stm32f4xx_ll_usb.c ****   }
 320:Drivers/STM32F4xx_HAL_Driver/Src/stm32f4xx_ll_usb.c ****   else
 321:Drivers/STM32F4xx_HAL_Driver/Src/stm32f4xx_ll_usb.c ****   {
 322:Drivers/STM32F4xx_HAL_Driver/Src/stm32f4xx_ll_usb.c ****     /* Enable HW VBUS sensing */
 323:Drivers/STM32F4xx_HAL_Driver/Src/stm32f4xx_ll_usb.c ****     USBx->GCCFG |= USB_OTG_GCCFG_VBDEN;
 324:Drivers/STM32F4xx_HAL_Driver/Src/stm32f4xx_ll_usb.c ****   }
 325:Drivers/STM32F4xx_HAL_Driver/Src/stm32f4xx_ll_usb.c **** #else
 326:Drivers/STM32F4xx_HAL_Driver/Src/stm32f4xx_ll_usb.c ****   /* VBUS Sensing setup */
 327:Drivers/STM32F4xx_HAL_Driver/Src/stm32f4xx_ll_usb.c ****   if (cfg.vbus_sensing_enable == 0U)
 328:Drivers/STM32F4xx_HAL_Driver/Src/stm32f4xx_ll_usb.c ****   {
 329:Drivers/STM32F4xx_HAL_Driver/Src/stm32f4xx_ll_usb.c ****     /*
 330:Drivers/STM32F4xx_HAL_Driver/Src/stm32f4xx_ll_usb.c ****      * Disable HW VBUS sensing. VBUS is internally considered to be always
 331:Drivers/STM32F4xx_HAL_Driver/Src/stm32f4xx_ll_usb.c ****      * at VBUS-Valid level (5V).
 332:Drivers/STM32F4xx_HAL_Driver/Src/stm32f4xx_ll_usb.c ****      */
 333:Drivers/STM32F4xx_HAL_Driver/Src/stm32f4xx_ll_usb.c ****     USBx_DEVICE->DCTL |= USB_OTG_DCTL_SDIS;
 334:Drivers/STM32F4xx_HAL_Driver/Src/stm32f4xx_ll_usb.c ****     USBx->GCCFG |= USB_OTG_GCCFG_NOVBUSSENS;
 335:Drivers/STM32F4xx_HAL_Driver/Src/stm32f4xx_ll_usb.c ****     USBx->GCCFG &= ~USB_OTG_GCCFG_VBUSBSEN;
 336:Drivers/STM32F4xx_HAL_Driver/Src/stm32f4xx_ll_usb.c ****     USBx->GCCFG &= ~USB_OTG_GCCFG_VBUSASEN;
 337:Drivers/STM32F4xx_HAL_Driver/Src/stm32f4xx_ll_usb.c ****   }
 338:Drivers/STM32F4xx_HAL_Driver/Src/stm32f4xx_ll_usb.c ****   else
 339:Drivers/STM32F4xx_HAL_Driver/Src/stm32f4xx_ll_usb.c ****   {
 340:Drivers/STM32F4xx_HAL_Driver/Src/stm32f4xx_ll_usb.c ****     /* Enable HW VBUS sensing */
 341:Drivers/STM32F4xx_HAL_Driver/Src/stm32f4xx_ll_usb.c ****     USBx->GCCFG &= ~USB_OTG_GCCFG_NOVBUSSENS;
 342:Drivers/STM32F4xx_HAL_Driver/Src/stm32f4xx_ll_usb.c ****     USBx->GCCFG |= USB_OTG_GCCFG_VBUSBSEN;
 343:Drivers/STM32F4xx_HAL_Driver/Src/stm32f4xx_ll_usb.c ****   }
 344:Drivers/STM32F4xx_HAL_Driver/Src/stm32f4xx_ll_usb.c **** #endif /* defined(STM32F446xx) || defined(STM32F469xx) || defined(STM32F479xx) || defined(STM32F412
 345:Drivers/STM32F4xx_HAL_Driver/Src/stm32f4xx_ll_usb.c **** 
 346:Drivers/STM32F4xx_HAL_Driver/Src/stm32f4xx_ll_usb.c ****   /* Restart the Phy Clock */
 347:Drivers/STM32F4xx_HAL_Driver/Src/stm32f4xx_ll_usb.c ****   USBx_PCGCCTL = 0U;
 348:Drivers/STM32F4xx_HAL_Driver/Src/stm32f4xx_ll_usb.c **** 
 349:Drivers/STM32F4xx_HAL_Driver/Src/stm32f4xx_ll_usb.c ****   /* Device mode configuration */
 350:Drivers/STM32F4xx_HAL_Driver/Src/stm32f4xx_ll_usb.c ****   USBx_DEVICE->DCFG |= DCFG_FRAME_INTERVAL_80;
 351:Drivers/STM32F4xx_HAL_Driver/Src/stm32f4xx_ll_usb.c **** 
 352:Drivers/STM32F4xx_HAL_Driver/Src/stm32f4xx_ll_usb.c ****   if (cfg.phy_itface == USB_OTG_ULPI_PHY)
 353:Drivers/STM32F4xx_HAL_Driver/Src/stm32f4xx_ll_usb.c ****   {
 354:Drivers/STM32F4xx_HAL_Driver/Src/stm32f4xx_ll_usb.c ****     if (cfg.speed == USBD_HS_SPEED)
 355:Drivers/STM32F4xx_HAL_Driver/Src/stm32f4xx_ll_usb.c ****     {
 356:Drivers/STM32F4xx_HAL_Driver/Src/stm32f4xx_ll_usb.c ****       /* Set Core speed to High speed mode */
 357:Drivers/STM32F4xx_HAL_Driver/Src/stm32f4xx_ll_usb.c ****       (void)USB_SetDevSpeed(USBx, USB_OTG_SPEED_HIGH);
 358:Drivers/STM32F4xx_HAL_Driver/Src/stm32f4xx_ll_usb.c ****     }
 359:Drivers/STM32F4xx_HAL_Driver/Src/stm32f4xx_ll_usb.c ****     else
 360:Drivers/STM32F4xx_HAL_Driver/Src/stm32f4xx_ll_usb.c ****     {
 361:Drivers/STM32F4xx_HAL_Driver/Src/stm32f4xx_ll_usb.c ****       /* Set Core speed to Full speed mode */
 362:Drivers/STM32F4xx_HAL_Driver/Src/stm32f4xx_ll_usb.c ****       (void)USB_SetDevSpeed(USBx, USB_OTG_SPEED_HIGH_IN_FULL);
 363:Drivers/STM32F4xx_HAL_Driver/Src/stm32f4xx_ll_usb.c ****     }
 364:Drivers/STM32F4xx_HAL_Driver/Src/stm32f4xx_ll_usb.c ****   }
 365:Drivers/STM32F4xx_HAL_Driver/Src/stm32f4xx_ll_usb.c ****   else
 366:Drivers/STM32F4xx_HAL_Driver/Src/stm32f4xx_ll_usb.c ****   {
 367:Drivers/STM32F4xx_HAL_Driver/Src/stm32f4xx_ll_usb.c ****     /* Set Core speed to Full speed mode */
 368:Drivers/STM32F4xx_HAL_Driver/Src/stm32f4xx_ll_usb.c ****     (void)USB_SetDevSpeed(USBx, USB_OTG_SPEED_FULL);
 369:Drivers/STM32F4xx_HAL_Driver/Src/stm32f4xx_ll_usb.c ****   }
 370:Drivers/STM32F4xx_HAL_Driver/Src/stm32f4xx_ll_usb.c **** 
 371:Drivers/STM32F4xx_HAL_Driver/Src/stm32f4xx_ll_usb.c ****   /* Flush the FIFOs */
 372:Drivers/STM32F4xx_HAL_Driver/Src/stm32f4xx_ll_usb.c ****   if (USB_FlushTxFifo(USBx, 0x10U) != HAL_OK) /* all Tx FIFOs */
ARM GAS  /tmp/ccSVR7EX.s 			page 8


 373:Drivers/STM32F4xx_HAL_Driver/Src/stm32f4xx_ll_usb.c ****   {
 374:Drivers/STM32F4xx_HAL_Driver/Src/stm32f4xx_ll_usb.c ****     ret = HAL_ERROR;
 375:Drivers/STM32F4xx_HAL_Driver/Src/stm32f4xx_ll_usb.c ****   }
 376:Drivers/STM32F4xx_HAL_Driver/Src/stm32f4xx_ll_usb.c **** 
 377:Drivers/STM32F4xx_HAL_Driver/Src/stm32f4xx_ll_usb.c ****   if (USB_FlushRxFifo(USBx) != HAL_OK)
 378:Drivers/STM32F4xx_HAL_Driver/Src/stm32f4xx_ll_usb.c ****   {
 379:Drivers/STM32F4xx_HAL_Driver/Src/stm32f4xx_ll_usb.c ****     ret = HAL_ERROR;
 380:Drivers/STM32F4xx_HAL_Driver/Src/stm32f4xx_ll_usb.c ****   }
 381:Drivers/STM32F4xx_HAL_Driver/Src/stm32f4xx_ll_usb.c **** 
 382:Drivers/STM32F4xx_HAL_Driver/Src/stm32f4xx_ll_usb.c ****   /* Clear all pending Device Interrupts */
 383:Drivers/STM32F4xx_HAL_Driver/Src/stm32f4xx_ll_usb.c ****   USBx_DEVICE->DIEPMSK = 0U;
 384:Drivers/STM32F4xx_HAL_Driver/Src/stm32f4xx_ll_usb.c ****   USBx_DEVICE->DOEPMSK = 0U;
 385:Drivers/STM32F4xx_HAL_Driver/Src/stm32f4xx_ll_usb.c ****   USBx_DEVICE->DAINTMSK = 0U;
 386:Drivers/STM32F4xx_HAL_Driver/Src/stm32f4xx_ll_usb.c **** 
 387:Drivers/STM32F4xx_HAL_Driver/Src/stm32f4xx_ll_usb.c ****   for (i = 0U; i < cfg.dev_endpoints; i++)
 388:Drivers/STM32F4xx_HAL_Driver/Src/stm32f4xx_ll_usb.c ****   {
 389:Drivers/STM32F4xx_HAL_Driver/Src/stm32f4xx_ll_usb.c ****     if ((USBx_INEP(i)->DIEPCTL & USB_OTG_DIEPCTL_EPENA) == USB_OTG_DIEPCTL_EPENA)
 390:Drivers/STM32F4xx_HAL_Driver/Src/stm32f4xx_ll_usb.c ****     {
 391:Drivers/STM32F4xx_HAL_Driver/Src/stm32f4xx_ll_usb.c ****       if (i == 0U)
 392:Drivers/STM32F4xx_HAL_Driver/Src/stm32f4xx_ll_usb.c ****       {
 393:Drivers/STM32F4xx_HAL_Driver/Src/stm32f4xx_ll_usb.c ****         USBx_INEP(i)->DIEPCTL = USB_OTG_DIEPCTL_SNAK;
 394:Drivers/STM32F4xx_HAL_Driver/Src/stm32f4xx_ll_usb.c ****       }
 395:Drivers/STM32F4xx_HAL_Driver/Src/stm32f4xx_ll_usb.c ****       else
 396:Drivers/STM32F4xx_HAL_Driver/Src/stm32f4xx_ll_usb.c ****       {
 397:Drivers/STM32F4xx_HAL_Driver/Src/stm32f4xx_ll_usb.c ****         USBx_INEP(i)->DIEPCTL = USB_OTG_DIEPCTL_EPDIS | USB_OTG_DIEPCTL_SNAK;
 398:Drivers/STM32F4xx_HAL_Driver/Src/stm32f4xx_ll_usb.c ****       }
 399:Drivers/STM32F4xx_HAL_Driver/Src/stm32f4xx_ll_usb.c ****     }
 400:Drivers/STM32F4xx_HAL_Driver/Src/stm32f4xx_ll_usb.c ****     else
 401:Drivers/STM32F4xx_HAL_Driver/Src/stm32f4xx_ll_usb.c ****     {
 402:Drivers/STM32F4xx_HAL_Driver/Src/stm32f4xx_ll_usb.c ****       USBx_INEP(i)->DIEPCTL = 0U;
 403:Drivers/STM32F4xx_HAL_Driver/Src/stm32f4xx_ll_usb.c ****     }
 404:Drivers/STM32F4xx_HAL_Driver/Src/stm32f4xx_ll_usb.c **** 
 405:Drivers/STM32F4xx_HAL_Driver/Src/stm32f4xx_ll_usb.c ****     USBx_INEP(i)->DIEPTSIZ = 0U;
 406:Drivers/STM32F4xx_HAL_Driver/Src/stm32f4xx_ll_usb.c ****     USBx_INEP(i)->DIEPINT  = 0xFB7FU;
 407:Drivers/STM32F4xx_HAL_Driver/Src/stm32f4xx_ll_usb.c ****   }
 408:Drivers/STM32F4xx_HAL_Driver/Src/stm32f4xx_ll_usb.c **** 
 409:Drivers/STM32F4xx_HAL_Driver/Src/stm32f4xx_ll_usb.c ****   for (i = 0U; i < cfg.dev_endpoints; i++)
 410:Drivers/STM32F4xx_HAL_Driver/Src/stm32f4xx_ll_usb.c ****   {
 411:Drivers/STM32F4xx_HAL_Driver/Src/stm32f4xx_ll_usb.c ****     if ((USBx_OUTEP(i)->DOEPCTL & USB_OTG_DOEPCTL_EPENA) == USB_OTG_DOEPCTL_EPENA)
 412:Drivers/STM32F4xx_HAL_Driver/Src/stm32f4xx_ll_usb.c ****     {
 413:Drivers/STM32F4xx_HAL_Driver/Src/stm32f4xx_ll_usb.c ****       if (i == 0U)
 414:Drivers/STM32F4xx_HAL_Driver/Src/stm32f4xx_ll_usb.c ****       {
 415:Drivers/STM32F4xx_HAL_Driver/Src/stm32f4xx_ll_usb.c ****         USBx_OUTEP(i)->DOEPCTL = USB_OTG_DOEPCTL_SNAK;
 416:Drivers/STM32F4xx_HAL_Driver/Src/stm32f4xx_ll_usb.c ****       }
 417:Drivers/STM32F4xx_HAL_Driver/Src/stm32f4xx_ll_usb.c ****       else
 418:Drivers/STM32F4xx_HAL_Driver/Src/stm32f4xx_ll_usb.c ****       {
 419:Drivers/STM32F4xx_HAL_Driver/Src/stm32f4xx_ll_usb.c ****         USBx_OUTEP(i)->DOEPCTL = USB_OTG_DOEPCTL_EPDIS | USB_OTG_DOEPCTL_SNAK;
 420:Drivers/STM32F4xx_HAL_Driver/Src/stm32f4xx_ll_usb.c ****       }
 421:Drivers/STM32F4xx_HAL_Driver/Src/stm32f4xx_ll_usb.c ****     }
 422:Drivers/STM32F4xx_HAL_Driver/Src/stm32f4xx_ll_usb.c ****     else
 423:Drivers/STM32F4xx_HAL_Driver/Src/stm32f4xx_ll_usb.c ****     {
 424:Drivers/STM32F4xx_HAL_Driver/Src/stm32f4xx_ll_usb.c ****       USBx_OUTEP(i)->DOEPCTL = 0U;
 425:Drivers/STM32F4xx_HAL_Driver/Src/stm32f4xx_ll_usb.c ****     }
 426:Drivers/STM32F4xx_HAL_Driver/Src/stm32f4xx_ll_usb.c **** 
 427:Drivers/STM32F4xx_HAL_Driver/Src/stm32f4xx_ll_usb.c ****     USBx_OUTEP(i)->DOEPTSIZ = 0U;
 428:Drivers/STM32F4xx_HAL_Driver/Src/stm32f4xx_ll_usb.c ****     USBx_OUTEP(i)->DOEPINT  = 0xFB7FU;
 429:Drivers/STM32F4xx_HAL_Driver/Src/stm32f4xx_ll_usb.c ****   }
ARM GAS  /tmp/ccSVR7EX.s 			page 9


 430:Drivers/STM32F4xx_HAL_Driver/Src/stm32f4xx_ll_usb.c **** 
 431:Drivers/STM32F4xx_HAL_Driver/Src/stm32f4xx_ll_usb.c ****   USBx_DEVICE->DIEPMSK &= ~(USB_OTG_DIEPMSK_TXFURM);
 432:Drivers/STM32F4xx_HAL_Driver/Src/stm32f4xx_ll_usb.c **** 
 433:Drivers/STM32F4xx_HAL_Driver/Src/stm32f4xx_ll_usb.c ****   /* Disable all interrupts. */
 434:Drivers/STM32F4xx_HAL_Driver/Src/stm32f4xx_ll_usb.c ****   USBx->GINTMSK = 0U;
 435:Drivers/STM32F4xx_HAL_Driver/Src/stm32f4xx_ll_usb.c **** 
 436:Drivers/STM32F4xx_HAL_Driver/Src/stm32f4xx_ll_usb.c ****   /* Clear any pending interrupts */
 437:Drivers/STM32F4xx_HAL_Driver/Src/stm32f4xx_ll_usb.c ****   USBx->GINTSTS = 0xBFFFFFFFU;
 438:Drivers/STM32F4xx_HAL_Driver/Src/stm32f4xx_ll_usb.c **** 
 439:Drivers/STM32F4xx_HAL_Driver/Src/stm32f4xx_ll_usb.c ****   /* Enable the common interrupts */
 440:Drivers/STM32F4xx_HAL_Driver/Src/stm32f4xx_ll_usb.c ****   if (cfg.dma_enable == 0U)
 441:Drivers/STM32F4xx_HAL_Driver/Src/stm32f4xx_ll_usb.c ****   {
 442:Drivers/STM32F4xx_HAL_Driver/Src/stm32f4xx_ll_usb.c ****     USBx->GINTMSK |= USB_OTG_GINTMSK_RXFLVLM;
 443:Drivers/STM32F4xx_HAL_Driver/Src/stm32f4xx_ll_usb.c ****   }
 444:Drivers/STM32F4xx_HAL_Driver/Src/stm32f4xx_ll_usb.c **** 
 445:Drivers/STM32F4xx_HAL_Driver/Src/stm32f4xx_ll_usb.c ****   /* Enable interrupts matching to the Device mode ONLY */
 446:Drivers/STM32F4xx_HAL_Driver/Src/stm32f4xx_ll_usb.c ****   USBx->GINTMSK |= USB_OTG_GINTMSK_USBSUSPM | USB_OTG_GINTMSK_USBRST |
 447:Drivers/STM32F4xx_HAL_Driver/Src/stm32f4xx_ll_usb.c ****                    USB_OTG_GINTMSK_ENUMDNEM | USB_OTG_GINTMSK_IEPINT |
 448:Drivers/STM32F4xx_HAL_Driver/Src/stm32f4xx_ll_usb.c ****                    USB_OTG_GINTMSK_OEPINT   | USB_OTG_GINTMSK_IISOIXFRM |
 449:Drivers/STM32F4xx_HAL_Driver/Src/stm32f4xx_ll_usb.c ****                    USB_OTG_GINTMSK_PXFRM_IISOOXFRM | USB_OTG_GINTMSK_WUIM;
 450:Drivers/STM32F4xx_HAL_Driver/Src/stm32f4xx_ll_usb.c **** 
 451:Drivers/STM32F4xx_HAL_Driver/Src/stm32f4xx_ll_usb.c ****   if (cfg.Sof_enable != 0U)
 452:Drivers/STM32F4xx_HAL_Driver/Src/stm32f4xx_ll_usb.c ****   {
 453:Drivers/STM32F4xx_HAL_Driver/Src/stm32f4xx_ll_usb.c ****     USBx->GINTMSK |= USB_OTG_GINTMSK_SOFM;
 454:Drivers/STM32F4xx_HAL_Driver/Src/stm32f4xx_ll_usb.c ****   }
 455:Drivers/STM32F4xx_HAL_Driver/Src/stm32f4xx_ll_usb.c **** 
 456:Drivers/STM32F4xx_HAL_Driver/Src/stm32f4xx_ll_usb.c ****   if (cfg.vbus_sensing_enable == 1U)
 457:Drivers/STM32F4xx_HAL_Driver/Src/stm32f4xx_ll_usb.c ****   {
 458:Drivers/STM32F4xx_HAL_Driver/Src/stm32f4xx_ll_usb.c ****     USBx->GINTMSK |= (USB_OTG_GINTMSK_SRQIM | USB_OTG_GINTMSK_OTGINT);
 459:Drivers/STM32F4xx_HAL_Driver/Src/stm32f4xx_ll_usb.c ****   }
 460:Drivers/STM32F4xx_HAL_Driver/Src/stm32f4xx_ll_usb.c **** 
 461:Drivers/STM32F4xx_HAL_Driver/Src/stm32f4xx_ll_usb.c ****   return ret;
 462:Drivers/STM32F4xx_HAL_Driver/Src/stm32f4xx_ll_usb.c **** }
 463:Drivers/STM32F4xx_HAL_Driver/Src/stm32f4xx_ll_usb.c **** 
 464:Drivers/STM32F4xx_HAL_Driver/Src/stm32f4xx_ll_usb.c **** /**
 465:Drivers/STM32F4xx_HAL_Driver/Src/stm32f4xx_ll_usb.c ****   * @brief  USB_OTG_FlushTxFifo : Flush a Tx FIFO
 466:Drivers/STM32F4xx_HAL_Driver/Src/stm32f4xx_ll_usb.c ****   * @param  USBx  Selected device
 467:Drivers/STM32F4xx_HAL_Driver/Src/stm32f4xx_ll_usb.c ****   * @param  num  FIFO number
 468:Drivers/STM32F4xx_HAL_Driver/Src/stm32f4xx_ll_usb.c ****   *         This parameter can be a value from 1 to 15
 469:Drivers/STM32F4xx_HAL_Driver/Src/stm32f4xx_ll_usb.c ****             15 means Flush all Tx FIFOs
 470:Drivers/STM32F4xx_HAL_Driver/Src/stm32f4xx_ll_usb.c ****   * @retval HAL status
 471:Drivers/STM32F4xx_HAL_Driver/Src/stm32f4xx_ll_usb.c ****   */
 472:Drivers/STM32F4xx_HAL_Driver/Src/stm32f4xx_ll_usb.c **** HAL_StatusTypeDef USB_FlushTxFifo(USB_OTG_GlobalTypeDef *USBx, uint32_t num)
 473:Drivers/STM32F4xx_HAL_Driver/Src/stm32f4xx_ll_usb.c **** {
 474:Drivers/STM32F4xx_HAL_Driver/Src/stm32f4xx_ll_usb.c ****   __IO uint32_t count = 0U;
 475:Drivers/STM32F4xx_HAL_Driver/Src/stm32f4xx_ll_usb.c **** 
 476:Drivers/STM32F4xx_HAL_Driver/Src/stm32f4xx_ll_usb.c ****   USBx->GRSTCTL = (USB_OTG_GRSTCTL_TXFFLSH | (num << 6));
 477:Drivers/STM32F4xx_HAL_Driver/Src/stm32f4xx_ll_usb.c **** 
 478:Drivers/STM32F4xx_HAL_Driver/Src/stm32f4xx_ll_usb.c ****   do
 479:Drivers/STM32F4xx_HAL_Driver/Src/stm32f4xx_ll_usb.c ****   {
 480:Drivers/STM32F4xx_HAL_Driver/Src/stm32f4xx_ll_usb.c ****     if (++count > 200000U)
 481:Drivers/STM32F4xx_HAL_Driver/Src/stm32f4xx_ll_usb.c ****     {
 482:Drivers/STM32F4xx_HAL_Driver/Src/stm32f4xx_ll_usb.c ****       return HAL_TIMEOUT;
 483:Drivers/STM32F4xx_HAL_Driver/Src/stm32f4xx_ll_usb.c ****     }
 484:Drivers/STM32F4xx_HAL_Driver/Src/stm32f4xx_ll_usb.c ****   } while ((USBx->GRSTCTL & USB_OTG_GRSTCTL_TXFFLSH) == USB_OTG_GRSTCTL_TXFFLSH);
 485:Drivers/STM32F4xx_HAL_Driver/Src/stm32f4xx_ll_usb.c **** 
 486:Drivers/STM32F4xx_HAL_Driver/Src/stm32f4xx_ll_usb.c ****   return HAL_OK;
ARM GAS  /tmp/ccSVR7EX.s 			page 10


 487:Drivers/STM32F4xx_HAL_Driver/Src/stm32f4xx_ll_usb.c **** }
 488:Drivers/STM32F4xx_HAL_Driver/Src/stm32f4xx_ll_usb.c **** 
 489:Drivers/STM32F4xx_HAL_Driver/Src/stm32f4xx_ll_usb.c **** /**
 490:Drivers/STM32F4xx_HAL_Driver/Src/stm32f4xx_ll_usb.c ****   * @brief  USB_FlushRxFifo : Flush Rx FIFO
 491:Drivers/STM32F4xx_HAL_Driver/Src/stm32f4xx_ll_usb.c ****   * @param  USBx  Selected device
 492:Drivers/STM32F4xx_HAL_Driver/Src/stm32f4xx_ll_usb.c ****   * @retval HAL status
 493:Drivers/STM32F4xx_HAL_Driver/Src/stm32f4xx_ll_usb.c ****   */
 494:Drivers/STM32F4xx_HAL_Driver/Src/stm32f4xx_ll_usb.c **** HAL_StatusTypeDef USB_FlushRxFifo(USB_OTG_GlobalTypeDef *USBx)
 495:Drivers/STM32F4xx_HAL_Driver/Src/stm32f4xx_ll_usb.c **** {
 496:Drivers/STM32F4xx_HAL_Driver/Src/stm32f4xx_ll_usb.c ****   __IO uint32_t count = 0U;
 497:Drivers/STM32F4xx_HAL_Driver/Src/stm32f4xx_ll_usb.c **** 
 498:Drivers/STM32F4xx_HAL_Driver/Src/stm32f4xx_ll_usb.c ****   USBx->GRSTCTL = USB_OTG_GRSTCTL_RXFFLSH;
 499:Drivers/STM32F4xx_HAL_Driver/Src/stm32f4xx_ll_usb.c **** 
 500:Drivers/STM32F4xx_HAL_Driver/Src/stm32f4xx_ll_usb.c ****   do
 501:Drivers/STM32F4xx_HAL_Driver/Src/stm32f4xx_ll_usb.c ****   {
 502:Drivers/STM32F4xx_HAL_Driver/Src/stm32f4xx_ll_usb.c ****     if (++count > 200000U)
 503:Drivers/STM32F4xx_HAL_Driver/Src/stm32f4xx_ll_usb.c ****     {
 504:Drivers/STM32F4xx_HAL_Driver/Src/stm32f4xx_ll_usb.c ****       return HAL_TIMEOUT;
 505:Drivers/STM32F4xx_HAL_Driver/Src/stm32f4xx_ll_usb.c ****     }
 506:Drivers/STM32F4xx_HAL_Driver/Src/stm32f4xx_ll_usb.c ****   } while ((USBx->GRSTCTL & USB_OTG_GRSTCTL_RXFFLSH) == USB_OTG_GRSTCTL_RXFFLSH);
 507:Drivers/STM32F4xx_HAL_Driver/Src/stm32f4xx_ll_usb.c **** 
 508:Drivers/STM32F4xx_HAL_Driver/Src/stm32f4xx_ll_usb.c ****   return HAL_OK;
 509:Drivers/STM32F4xx_HAL_Driver/Src/stm32f4xx_ll_usb.c **** }
 510:Drivers/STM32F4xx_HAL_Driver/Src/stm32f4xx_ll_usb.c **** 
 511:Drivers/STM32F4xx_HAL_Driver/Src/stm32f4xx_ll_usb.c **** /**
 512:Drivers/STM32F4xx_HAL_Driver/Src/stm32f4xx_ll_usb.c ****   * @brief  USB_SetDevSpeed  Initializes the DevSpd field of DCFG register
 513:Drivers/STM32F4xx_HAL_Driver/Src/stm32f4xx_ll_usb.c ****   *         depending the PHY type and the enumeration speed of the device.
 514:Drivers/STM32F4xx_HAL_Driver/Src/stm32f4xx_ll_usb.c ****   * @param  USBx  Selected device
 515:Drivers/STM32F4xx_HAL_Driver/Src/stm32f4xx_ll_usb.c ****   * @param  speed  device speed
 516:Drivers/STM32F4xx_HAL_Driver/Src/stm32f4xx_ll_usb.c ****   *          This parameter can be one of these values:
 517:Drivers/STM32F4xx_HAL_Driver/Src/stm32f4xx_ll_usb.c ****   *            @arg USB_OTG_SPEED_HIGH: High speed mode
 518:Drivers/STM32F4xx_HAL_Driver/Src/stm32f4xx_ll_usb.c ****   *            @arg USB_OTG_SPEED_HIGH_IN_FULL: High speed core in Full Speed mode
 519:Drivers/STM32F4xx_HAL_Driver/Src/stm32f4xx_ll_usb.c ****   *            @arg USB_OTG_SPEED_FULL: Full speed mode
 520:Drivers/STM32F4xx_HAL_Driver/Src/stm32f4xx_ll_usb.c ****   * @retval  Hal status
 521:Drivers/STM32F4xx_HAL_Driver/Src/stm32f4xx_ll_usb.c ****   */
 522:Drivers/STM32F4xx_HAL_Driver/Src/stm32f4xx_ll_usb.c **** HAL_StatusTypeDef USB_SetDevSpeed(USB_OTG_GlobalTypeDef *USBx, uint8_t speed)
 523:Drivers/STM32F4xx_HAL_Driver/Src/stm32f4xx_ll_usb.c **** {
 524:Drivers/STM32F4xx_HAL_Driver/Src/stm32f4xx_ll_usb.c ****   uint32_t USBx_BASE = (uint32_t)USBx;
 525:Drivers/STM32F4xx_HAL_Driver/Src/stm32f4xx_ll_usb.c **** 
 526:Drivers/STM32F4xx_HAL_Driver/Src/stm32f4xx_ll_usb.c ****   USBx_DEVICE->DCFG |= speed;
 527:Drivers/STM32F4xx_HAL_Driver/Src/stm32f4xx_ll_usb.c ****   return HAL_OK;
 528:Drivers/STM32F4xx_HAL_Driver/Src/stm32f4xx_ll_usb.c **** }
 529:Drivers/STM32F4xx_HAL_Driver/Src/stm32f4xx_ll_usb.c **** 
 530:Drivers/STM32F4xx_HAL_Driver/Src/stm32f4xx_ll_usb.c **** /**
 531:Drivers/STM32F4xx_HAL_Driver/Src/stm32f4xx_ll_usb.c ****   * @brief  USB_GetDevSpeed  Return the Dev Speed
 532:Drivers/STM32F4xx_HAL_Driver/Src/stm32f4xx_ll_usb.c ****   * @param  USBx  Selected device
 533:Drivers/STM32F4xx_HAL_Driver/Src/stm32f4xx_ll_usb.c ****   * @retval speed  device speed
 534:Drivers/STM32F4xx_HAL_Driver/Src/stm32f4xx_ll_usb.c ****   *          This parameter can be one of these values:
 535:Drivers/STM32F4xx_HAL_Driver/Src/stm32f4xx_ll_usb.c ****   *            @arg USBD_HS_SPEED: High speed mode
 536:Drivers/STM32F4xx_HAL_Driver/Src/stm32f4xx_ll_usb.c ****   *            @arg USBD_FS_SPEED: Full speed mode
 537:Drivers/STM32F4xx_HAL_Driver/Src/stm32f4xx_ll_usb.c ****   */
 538:Drivers/STM32F4xx_HAL_Driver/Src/stm32f4xx_ll_usb.c **** uint8_t USB_GetDevSpeed(USB_OTG_GlobalTypeDef *USBx)
 539:Drivers/STM32F4xx_HAL_Driver/Src/stm32f4xx_ll_usb.c **** {
 540:Drivers/STM32F4xx_HAL_Driver/Src/stm32f4xx_ll_usb.c ****   uint32_t USBx_BASE = (uint32_t)USBx;
 541:Drivers/STM32F4xx_HAL_Driver/Src/stm32f4xx_ll_usb.c ****   uint8_t speed;
 542:Drivers/STM32F4xx_HAL_Driver/Src/stm32f4xx_ll_usb.c ****   uint32_t DevEnumSpeed = USBx_DEVICE->DSTS & USB_OTG_DSTS_ENUMSPD;
 543:Drivers/STM32F4xx_HAL_Driver/Src/stm32f4xx_ll_usb.c **** 
ARM GAS  /tmp/ccSVR7EX.s 			page 11


 544:Drivers/STM32F4xx_HAL_Driver/Src/stm32f4xx_ll_usb.c ****   if (DevEnumSpeed == DSTS_ENUMSPD_HS_PHY_30MHZ_OR_60MHZ)
 545:Drivers/STM32F4xx_HAL_Driver/Src/stm32f4xx_ll_usb.c ****   {
 546:Drivers/STM32F4xx_HAL_Driver/Src/stm32f4xx_ll_usb.c ****     speed = USBD_HS_SPEED;
 547:Drivers/STM32F4xx_HAL_Driver/Src/stm32f4xx_ll_usb.c ****   }
 548:Drivers/STM32F4xx_HAL_Driver/Src/stm32f4xx_ll_usb.c ****   else if ((DevEnumSpeed == DSTS_ENUMSPD_FS_PHY_30MHZ_OR_60MHZ) ||
 549:Drivers/STM32F4xx_HAL_Driver/Src/stm32f4xx_ll_usb.c ****            (DevEnumSpeed == DSTS_ENUMSPD_FS_PHY_48MHZ))
 550:Drivers/STM32F4xx_HAL_Driver/Src/stm32f4xx_ll_usb.c ****   {
 551:Drivers/STM32F4xx_HAL_Driver/Src/stm32f4xx_ll_usb.c ****     speed = USBD_FS_SPEED;
 552:Drivers/STM32F4xx_HAL_Driver/Src/stm32f4xx_ll_usb.c ****   }
 553:Drivers/STM32F4xx_HAL_Driver/Src/stm32f4xx_ll_usb.c ****   else
 554:Drivers/STM32F4xx_HAL_Driver/Src/stm32f4xx_ll_usb.c ****   {
 555:Drivers/STM32F4xx_HAL_Driver/Src/stm32f4xx_ll_usb.c ****     speed = 0xFU;
 556:Drivers/STM32F4xx_HAL_Driver/Src/stm32f4xx_ll_usb.c ****   }
 557:Drivers/STM32F4xx_HAL_Driver/Src/stm32f4xx_ll_usb.c **** 
 558:Drivers/STM32F4xx_HAL_Driver/Src/stm32f4xx_ll_usb.c ****   return speed;
 559:Drivers/STM32F4xx_HAL_Driver/Src/stm32f4xx_ll_usb.c **** }
 560:Drivers/STM32F4xx_HAL_Driver/Src/stm32f4xx_ll_usb.c **** 
 561:Drivers/STM32F4xx_HAL_Driver/Src/stm32f4xx_ll_usb.c **** /**
 562:Drivers/STM32F4xx_HAL_Driver/Src/stm32f4xx_ll_usb.c ****   * @brief  Activate and configure an endpoint
 563:Drivers/STM32F4xx_HAL_Driver/Src/stm32f4xx_ll_usb.c ****   * @param  USBx  Selected device
 564:Drivers/STM32F4xx_HAL_Driver/Src/stm32f4xx_ll_usb.c ****   * @param  ep pointer to endpoint structure
 565:Drivers/STM32F4xx_HAL_Driver/Src/stm32f4xx_ll_usb.c ****   * @retval HAL status
 566:Drivers/STM32F4xx_HAL_Driver/Src/stm32f4xx_ll_usb.c ****   */
 567:Drivers/STM32F4xx_HAL_Driver/Src/stm32f4xx_ll_usb.c **** HAL_StatusTypeDef USB_ActivateEndpoint(USB_OTG_GlobalTypeDef *USBx, USB_OTG_EPTypeDef *ep)
 568:Drivers/STM32F4xx_HAL_Driver/Src/stm32f4xx_ll_usb.c **** {
 569:Drivers/STM32F4xx_HAL_Driver/Src/stm32f4xx_ll_usb.c ****   uint32_t USBx_BASE = (uint32_t)USBx;
 570:Drivers/STM32F4xx_HAL_Driver/Src/stm32f4xx_ll_usb.c ****   uint32_t epnum = (uint32_t)ep->num;
 571:Drivers/STM32F4xx_HAL_Driver/Src/stm32f4xx_ll_usb.c **** 
 572:Drivers/STM32F4xx_HAL_Driver/Src/stm32f4xx_ll_usb.c ****   if (ep->is_in == 1U)
 573:Drivers/STM32F4xx_HAL_Driver/Src/stm32f4xx_ll_usb.c ****   {
 574:Drivers/STM32F4xx_HAL_Driver/Src/stm32f4xx_ll_usb.c ****     USBx_DEVICE->DAINTMSK |= USB_OTG_DAINTMSK_IEPM & (uint32_t)(1UL << (ep->num & EP_ADDR_MSK));
 575:Drivers/STM32F4xx_HAL_Driver/Src/stm32f4xx_ll_usb.c **** 
 576:Drivers/STM32F4xx_HAL_Driver/Src/stm32f4xx_ll_usb.c ****     if ((USBx_INEP(epnum)->DIEPCTL & USB_OTG_DIEPCTL_USBAEP) == 0U)
 577:Drivers/STM32F4xx_HAL_Driver/Src/stm32f4xx_ll_usb.c ****     {
 578:Drivers/STM32F4xx_HAL_Driver/Src/stm32f4xx_ll_usb.c ****       USBx_INEP(epnum)->DIEPCTL |= (ep->maxpacket & USB_OTG_DIEPCTL_MPSIZ) |
 579:Drivers/STM32F4xx_HAL_Driver/Src/stm32f4xx_ll_usb.c ****                                    ((uint32_t)ep->type << 18) | (epnum << 22) |
 580:Drivers/STM32F4xx_HAL_Driver/Src/stm32f4xx_ll_usb.c ****                                    USB_OTG_DIEPCTL_SD0PID_SEVNFRM |
 581:Drivers/STM32F4xx_HAL_Driver/Src/stm32f4xx_ll_usb.c ****                                    USB_OTG_DIEPCTL_USBAEP;
 582:Drivers/STM32F4xx_HAL_Driver/Src/stm32f4xx_ll_usb.c ****     }
 583:Drivers/STM32F4xx_HAL_Driver/Src/stm32f4xx_ll_usb.c ****   }
 584:Drivers/STM32F4xx_HAL_Driver/Src/stm32f4xx_ll_usb.c ****   else
 585:Drivers/STM32F4xx_HAL_Driver/Src/stm32f4xx_ll_usb.c ****   {
 586:Drivers/STM32F4xx_HAL_Driver/Src/stm32f4xx_ll_usb.c ****     USBx_DEVICE->DAINTMSK |= USB_OTG_DAINTMSK_OEPM & ((uint32_t)(1UL << (ep->num & EP_ADDR_MSK)) <<
 587:Drivers/STM32F4xx_HAL_Driver/Src/stm32f4xx_ll_usb.c **** 
 588:Drivers/STM32F4xx_HAL_Driver/Src/stm32f4xx_ll_usb.c ****     if (((USBx_OUTEP(epnum)->DOEPCTL) & USB_OTG_DOEPCTL_USBAEP) == 0U)
 589:Drivers/STM32F4xx_HAL_Driver/Src/stm32f4xx_ll_usb.c ****     {
 590:Drivers/STM32F4xx_HAL_Driver/Src/stm32f4xx_ll_usb.c ****       USBx_OUTEP(epnum)->DOEPCTL |= (ep->maxpacket & USB_OTG_DOEPCTL_MPSIZ) |
 591:Drivers/STM32F4xx_HAL_Driver/Src/stm32f4xx_ll_usb.c ****                                     ((uint32_t)ep->type << 18) |
 592:Drivers/STM32F4xx_HAL_Driver/Src/stm32f4xx_ll_usb.c ****                                     USB_OTG_DIEPCTL_SD0PID_SEVNFRM |
 593:Drivers/STM32F4xx_HAL_Driver/Src/stm32f4xx_ll_usb.c ****                                     USB_OTG_DOEPCTL_USBAEP;
 594:Drivers/STM32F4xx_HAL_Driver/Src/stm32f4xx_ll_usb.c ****     }
 595:Drivers/STM32F4xx_HAL_Driver/Src/stm32f4xx_ll_usb.c ****   }
 596:Drivers/STM32F4xx_HAL_Driver/Src/stm32f4xx_ll_usb.c ****   return HAL_OK;
 597:Drivers/STM32F4xx_HAL_Driver/Src/stm32f4xx_ll_usb.c **** }
 598:Drivers/STM32F4xx_HAL_Driver/Src/stm32f4xx_ll_usb.c **** 
 599:Drivers/STM32F4xx_HAL_Driver/Src/stm32f4xx_ll_usb.c **** /**
 600:Drivers/STM32F4xx_HAL_Driver/Src/stm32f4xx_ll_usb.c ****   * @brief  Activate and configure a dedicated endpoint
ARM GAS  /tmp/ccSVR7EX.s 			page 12


 601:Drivers/STM32F4xx_HAL_Driver/Src/stm32f4xx_ll_usb.c ****   * @param  USBx  Selected device
 602:Drivers/STM32F4xx_HAL_Driver/Src/stm32f4xx_ll_usb.c ****   * @param  ep pointer to endpoint structure
 603:Drivers/STM32F4xx_HAL_Driver/Src/stm32f4xx_ll_usb.c ****   * @retval HAL status
 604:Drivers/STM32F4xx_HAL_Driver/Src/stm32f4xx_ll_usb.c ****   */
 605:Drivers/STM32F4xx_HAL_Driver/Src/stm32f4xx_ll_usb.c **** HAL_StatusTypeDef USB_ActivateDedicatedEndpoint(USB_OTG_GlobalTypeDef *USBx, USB_OTG_EPTypeDef *ep)
 606:Drivers/STM32F4xx_HAL_Driver/Src/stm32f4xx_ll_usb.c **** {
 607:Drivers/STM32F4xx_HAL_Driver/Src/stm32f4xx_ll_usb.c ****   uint32_t USBx_BASE = (uint32_t)USBx;
 608:Drivers/STM32F4xx_HAL_Driver/Src/stm32f4xx_ll_usb.c ****   uint32_t epnum = (uint32_t)ep->num;
 609:Drivers/STM32F4xx_HAL_Driver/Src/stm32f4xx_ll_usb.c **** 
 610:Drivers/STM32F4xx_HAL_Driver/Src/stm32f4xx_ll_usb.c ****   /* Read DEPCTLn register */
 611:Drivers/STM32F4xx_HAL_Driver/Src/stm32f4xx_ll_usb.c ****   if (ep->is_in == 1U)
 612:Drivers/STM32F4xx_HAL_Driver/Src/stm32f4xx_ll_usb.c ****   {
 613:Drivers/STM32F4xx_HAL_Driver/Src/stm32f4xx_ll_usb.c ****     if (((USBx_INEP(epnum)->DIEPCTL) & USB_OTG_DIEPCTL_USBAEP) == 0U)
 614:Drivers/STM32F4xx_HAL_Driver/Src/stm32f4xx_ll_usb.c ****     {
 615:Drivers/STM32F4xx_HAL_Driver/Src/stm32f4xx_ll_usb.c ****       USBx_INEP(epnum)->DIEPCTL |= (ep->maxpacket & USB_OTG_DIEPCTL_MPSIZ) |
 616:Drivers/STM32F4xx_HAL_Driver/Src/stm32f4xx_ll_usb.c ****                                    ((uint32_t)ep->type << 18) | (epnum << 22) |
 617:Drivers/STM32F4xx_HAL_Driver/Src/stm32f4xx_ll_usb.c ****                                    USB_OTG_DIEPCTL_SD0PID_SEVNFRM |
 618:Drivers/STM32F4xx_HAL_Driver/Src/stm32f4xx_ll_usb.c ****                                    USB_OTG_DIEPCTL_USBAEP;
 619:Drivers/STM32F4xx_HAL_Driver/Src/stm32f4xx_ll_usb.c ****     }
 620:Drivers/STM32F4xx_HAL_Driver/Src/stm32f4xx_ll_usb.c **** 
 621:Drivers/STM32F4xx_HAL_Driver/Src/stm32f4xx_ll_usb.c ****     USBx_DEVICE->DEACHMSK |= USB_OTG_DAINTMSK_IEPM & (uint32_t)(1UL << (ep->num & EP_ADDR_MSK));
 622:Drivers/STM32F4xx_HAL_Driver/Src/stm32f4xx_ll_usb.c ****   }
 623:Drivers/STM32F4xx_HAL_Driver/Src/stm32f4xx_ll_usb.c ****   else
 624:Drivers/STM32F4xx_HAL_Driver/Src/stm32f4xx_ll_usb.c ****   {
 625:Drivers/STM32F4xx_HAL_Driver/Src/stm32f4xx_ll_usb.c ****     if (((USBx_OUTEP(epnum)->DOEPCTL) & USB_OTG_DOEPCTL_USBAEP) == 0U)
 626:Drivers/STM32F4xx_HAL_Driver/Src/stm32f4xx_ll_usb.c ****     {
 627:Drivers/STM32F4xx_HAL_Driver/Src/stm32f4xx_ll_usb.c ****       USBx_OUTEP(epnum)->DOEPCTL |= (ep->maxpacket & USB_OTG_DOEPCTL_MPSIZ) |
 628:Drivers/STM32F4xx_HAL_Driver/Src/stm32f4xx_ll_usb.c ****                                     ((uint32_t)ep->type << 18) | (epnum << 22) |
 629:Drivers/STM32F4xx_HAL_Driver/Src/stm32f4xx_ll_usb.c ****                                     USB_OTG_DOEPCTL_USBAEP;
 630:Drivers/STM32F4xx_HAL_Driver/Src/stm32f4xx_ll_usb.c ****     }
 631:Drivers/STM32F4xx_HAL_Driver/Src/stm32f4xx_ll_usb.c **** 
 632:Drivers/STM32F4xx_HAL_Driver/Src/stm32f4xx_ll_usb.c ****     USBx_DEVICE->DEACHMSK |= USB_OTG_DAINTMSK_OEPM & ((uint32_t)(1UL << (ep->num & EP_ADDR_MSK)) <<
 633:Drivers/STM32F4xx_HAL_Driver/Src/stm32f4xx_ll_usb.c ****   }
 634:Drivers/STM32F4xx_HAL_Driver/Src/stm32f4xx_ll_usb.c **** 
 635:Drivers/STM32F4xx_HAL_Driver/Src/stm32f4xx_ll_usb.c ****   return HAL_OK;
 636:Drivers/STM32F4xx_HAL_Driver/Src/stm32f4xx_ll_usb.c **** }
 637:Drivers/STM32F4xx_HAL_Driver/Src/stm32f4xx_ll_usb.c **** 
 638:Drivers/STM32F4xx_HAL_Driver/Src/stm32f4xx_ll_usb.c **** /**
 639:Drivers/STM32F4xx_HAL_Driver/Src/stm32f4xx_ll_usb.c ****   * @brief  De-activate and de-initialize an endpoint
 640:Drivers/STM32F4xx_HAL_Driver/Src/stm32f4xx_ll_usb.c ****   * @param  USBx  Selected device
 641:Drivers/STM32F4xx_HAL_Driver/Src/stm32f4xx_ll_usb.c ****   * @param  ep pointer to endpoint structure
 642:Drivers/STM32F4xx_HAL_Driver/Src/stm32f4xx_ll_usb.c ****   * @retval HAL status
 643:Drivers/STM32F4xx_HAL_Driver/Src/stm32f4xx_ll_usb.c ****   */
 644:Drivers/STM32F4xx_HAL_Driver/Src/stm32f4xx_ll_usb.c **** HAL_StatusTypeDef USB_DeactivateEndpoint(USB_OTG_GlobalTypeDef *USBx, USB_OTG_EPTypeDef *ep)
 645:Drivers/STM32F4xx_HAL_Driver/Src/stm32f4xx_ll_usb.c **** {
 646:Drivers/STM32F4xx_HAL_Driver/Src/stm32f4xx_ll_usb.c ****   uint32_t USBx_BASE = (uint32_t)USBx;
 647:Drivers/STM32F4xx_HAL_Driver/Src/stm32f4xx_ll_usb.c ****   uint32_t epnum = (uint32_t)ep->num;
 648:Drivers/STM32F4xx_HAL_Driver/Src/stm32f4xx_ll_usb.c **** 
 649:Drivers/STM32F4xx_HAL_Driver/Src/stm32f4xx_ll_usb.c ****   /* Read DEPCTLn register */
 650:Drivers/STM32F4xx_HAL_Driver/Src/stm32f4xx_ll_usb.c ****   if (ep->is_in == 1U)
 651:Drivers/STM32F4xx_HAL_Driver/Src/stm32f4xx_ll_usb.c ****   {
 652:Drivers/STM32F4xx_HAL_Driver/Src/stm32f4xx_ll_usb.c ****     if ((USBx_INEP(epnum)->DIEPCTL & USB_OTG_DIEPCTL_EPENA) == USB_OTG_DIEPCTL_EPENA)
 653:Drivers/STM32F4xx_HAL_Driver/Src/stm32f4xx_ll_usb.c ****     {
 654:Drivers/STM32F4xx_HAL_Driver/Src/stm32f4xx_ll_usb.c ****       USBx_INEP(epnum)->DIEPCTL |= USB_OTG_DIEPCTL_SNAK;
 655:Drivers/STM32F4xx_HAL_Driver/Src/stm32f4xx_ll_usb.c ****       USBx_INEP(epnum)->DIEPCTL |= USB_OTG_DIEPCTL_EPDIS;
 656:Drivers/STM32F4xx_HAL_Driver/Src/stm32f4xx_ll_usb.c ****     }
 657:Drivers/STM32F4xx_HAL_Driver/Src/stm32f4xx_ll_usb.c **** 
ARM GAS  /tmp/ccSVR7EX.s 			page 13


 658:Drivers/STM32F4xx_HAL_Driver/Src/stm32f4xx_ll_usb.c ****     USBx_DEVICE->DEACHMSK &= ~(USB_OTG_DAINTMSK_IEPM & (uint32_t)(1UL << (ep->num & EP_ADDR_MSK)));
 659:Drivers/STM32F4xx_HAL_Driver/Src/stm32f4xx_ll_usb.c ****     USBx_DEVICE->DAINTMSK &= ~(USB_OTG_DAINTMSK_IEPM & (uint32_t)(1UL << (ep->num & EP_ADDR_MSK)));
 660:Drivers/STM32F4xx_HAL_Driver/Src/stm32f4xx_ll_usb.c ****     USBx_INEP(epnum)->DIEPCTL &= ~(USB_OTG_DIEPCTL_USBAEP |
 661:Drivers/STM32F4xx_HAL_Driver/Src/stm32f4xx_ll_usb.c ****                                    USB_OTG_DIEPCTL_MPSIZ |
 662:Drivers/STM32F4xx_HAL_Driver/Src/stm32f4xx_ll_usb.c ****                                    USB_OTG_DIEPCTL_TXFNUM |
 663:Drivers/STM32F4xx_HAL_Driver/Src/stm32f4xx_ll_usb.c ****                                    USB_OTG_DIEPCTL_SD0PID_SEVNFRM |
 664:Drivers/STM32F4xx_HAL_Driver/Src/stm32f4xx_ll_usb.c ****                                    USB_OTG_DIEPCTL_EPTYP);
 665:Drivers/STM32F4xx_HAL_Driver/Src/stm32f4xx_ll_usb.c ****   }
 666:Drivers/STM32F4xx_HAL_Driver/Src/stm32f4xx_ll_usb.c ****   else
 667:Drivers/STM32F4xx_HAL_Driver/Src/stm32f4xx_ll_usb.c ****   {
 668:Drivers/STM32F4xx_HAL_Driver/Src/stm32f4xx_ll_usb.c ****     if ((USBx_OUTEP(epnum)->DOEPCTL & USB_OTG_DOEPCTL_EPENA) == USB_OTG_DOEPCTL_EPENA)
 669:Drivers/STM32F4xx_HAL_Driver/Src/stm32f4xx_ll_usb.c ****     {
 670:Drivers/STM32F4xx_HAL_Driver/Src/stm32f4xx_ll_usb.c ****       USBx_OUTEP(epnum)->DOEPCTL |= USB_OTG_DOEPCTL_SNAK;
 671:Drivers/STM32F4xx_HAL_Driver/Src/stm32f4xx_ll_usb.c ****       USBx_OUTEP(epnum)->DOEPCTL |= USB_OTG_DOEPCTL_EPDIS;
 672:Drivers/STM32F4xx_HAL_Driver/Src/stm32f4xx_ll_usb.c ****     }
 673:Drivers/STM32F4xx_HAL_Driver/Src/stm32f4xx_ll_usb.c **** 
 674:Drivers/STM32F4xx_HAL_Driver/Src/stm32f4xx_ll_usb.c ****     USBx_DEVICE->DEACHMSK &= ~(USB_OTG_DAINTMSK_OEPM & ((uint32_t)(1UL << (ep->num & EP_ADDR_MSK)) 
 675:Drivers/STM32F4xx_HAL_Driver/Src/stm32f4xx_ll_usb.c ****     USBx_DEVICE->DAINTMSK &= ~(USB_OTG_DAINTMSK_OEPM & ((uint32_t)(1UL << (ep->num & EP_ADDR_MSK)) 
 676:Drivers/STM32F4xx_HAL_Driver/Src/stm32f4xx_ll_usb.c ****     USBx_OUTEP(epnum)->DOEPCTL &= ~(USB_OTG_DOEPCTL_USBAEP |
 677:Drivers/STM32F4xx_HAL_Driver/Src/stm32f4xx_ll_usb.c ****                                     USB_OTG_DOEPCTL_MPSIZ |
 678:Drivers/STM32F4xx_HAL_Driver/Src/stm32f4xx_ll_usb.c ****                                     USB_OTG_DOEPCTL_SD0PID_SEVNFRM |
 679:Drivers/STM32F4xx_HAL_Driver/Src/stm32f4xx_ll_usb.c ****                                     USB_OTG_DOEPCTL_EPTYP);
 680:Drivers/STM32F4xx_HAL_Driver/Src/stm32f4xx_ll_usb.c ****   }
 681:Drivers/STM32F4xx_HAL_Driver/Src/stm32f4xx_ll_usb.c **** 
 682:Drivers/STM32F4xx_HAL_Driver/Src/stm32f4xx_ll_usb.c ****   return HAL_OK;
 683:Drivers/STM32F4xx_HAL_Driver/Src/stm32f4xx_ll_usb.c **** }
 684:Drivers/STM32F4xx_HAL_Driver/Src/stm32f4xx_ll_usb.c **** 
 685:Drivers/STM32F4xx_HAL_Driver/Src/stm32f4xx_ll_usb.c **** /**
 686:Drivers/STM32F4xx_HAL_Driver/Src/stm32f4xx_ll_usb.c ****   * @brief  De-activate and de-initialize a dedicated endpoint
 687:Drivers/STM32F4xx_HAL_Driver/Src/stm32f4xx_ll_usb.c ****   * @param  USBx  Selected device
 688:Drivers/STM32F4xx_HAL_Driver/Src/stm32f4xx_ll_usb.c ****   * @param  ep pointer to endpoint structure
 689:Drivers/STM32F4xx_HAL_Driver/Src/stm32f4xx_ll_usb.c ****   * @retval HAL status
 690:Drivers/STM32F4xx_HAL_Driver/Src/stm32f4xx_ll_usb.c ****   */
 691:Drivers/STM32F4xx_HAL_Driver/Src/stm32f4xx_ll_usb.c **** HAL_StatusTypeDef USB_DeactivateDedicatedEndpoint(USB_OTG_GlobalTypeDef *USBx, USB_OTG_EPTypeDef *e
 692:Drivers/STM32F4xx_HAL_Driver/Src/stm32f4xx_ll_usb.c **** {
 693:Drivers/STM32F4xx_HAL_Driver/Src/stm32f4xx_ll_usb.c ****   uint32_t USBx_BASE = (uint32_t)USBx;
 694:Drivers/STM32F4xx_HAL_Driver/Src/stm32f4xx_ll_usb.c ****   uint32_t epnum = (uint32_t)ep->num;
 695:Drivers/STM32F4xx_HAL_Driver/Src/stm32f4xx_ll_usb.c **** 
 696:Drivers/STM32F4xx_HAL_Driver/Src/stm32f4xx_ll_usb.c ****   /* Read DEPCTLn register */
 697:Drivers/STM32F4xx_HAL_Driver/Src/stm32f4xx_ll_usb.c ****   if (ep->is_in == 1U)
 698:Drivers/STM32F4xx_HAL_Driver/Src/stm32f4xx_ll_usb.c ****   {
 699:Drivers/STM32F4xx_HAL_Driver/Src/stm32f4xx_ll_usb.c ****     if ((USBx_INEP(epnum)->DIEPCTL & USB_OTG_DIEPCTL_EPENA) == USB_OTG_DIEPCTL_EPENA)
 700:Drivers/STM32F4xx_HAL_Driver/Src/stm32f4xx_ll_usb.c ****     {
 701:Drivers/STM32F4xx_HAL_Driver/Src/stm32f4xx_ll_usb.c ****       USBx_INEP(epnum)->DIEPCTL  |= USB_OTG_DIEPCTL_SNAK;
 702:Drivers/STM32F4xx_HAL_Driver/Src/stm32f4xx_ll_usb.c ****       USBx_INEP(epnum)->DIEPCTL  |= USB_OTG_DIEPCTL_EPDIS;
 703:Drivers/STM32F4xx_HAL_Driver/Src/stm32f4xx_ll_usb.c ****     }
 704:Drivers/STM32F4xx_HAL_Driver/Src/stm32f4xx_ll_usb.c **** 
 705:Drivers/STM32F4xx_HAL_Driver/Src/stm32f4xx_ll_usb.c ****     USBx_INEP(epnum)->DIEPCTL &= ~ USB_OTG_DIEPCTL_USBAEP;
 706:Drivers/STM32F4xx_HAL_Driver/Src/stm32f4xx_ll_usb.c ****     USBx_DEVICE->DAINTMSK &= ~(USB_OTG_DAINTMSK_IEPM & (uint32_t)(1UL << (ep->num & EP_ADDR_MSK)));
 707:Drivers/STM32F4xx_HAL_Driver/Src/stm32f4xx_ll_usb.c ****   }
 708:Drivers/STM32F4xx_HAL_Driver/Src/stm32f4xx_ll_usb.c ****   else
 709:Drivers/STM32F4xx_HAL_Driver/Src/stm32f4xx_ll_usb.c ****   {
 710:Drivers/STM32F4xx_HAL_Driver/Src/stm32f4xx_ll_usb.c ****     if ((USBx_OUTEP(epnum)->DOEPCTL & USB_OTG_DOEPCTL_EPENA) == USB_OTG_DOEPCTL_EPENA)
 711:Drivers/STM32F4xx_HAL_Driver/Src/stm32f4xx_ll_usb.c ****     {
 712:Drivers/STM32F4xx_HAL_Driver/Src/stm32f4xx_ll_usb.c ****       USBx_OUTEP(epnum)->DOEPCTL  |= USB_OTG_DOEPCTL_SNAK;
 713:Drivers/STM32F4xx_HAL_Driver/Src/stm32f4xx_ll_usb.c ****       USBx_OUTEP(epnum)->DOEPCTL  |= USB_OTG_DOEPCTL_EPDIS;
 714:Drivers/STM32F4xx_HAL_Driver/Src/stm32f4xx_ll_usb.c ****     }
ARM GAS  /tmp/ccSVR7EX.s 			page 14


 715:Drivers/STM32F4xx_HAL_Driver/Src/stm32f4xx_ll_usb.c **** 
 716:Drivers/STM32F4xx_HAL_Driver/Src/stm32f4xx_ll_usb.c ****     USBx_OUTEP(epnum)->DOEPCTL &= ~USB_OTG_DOEPCTL_USBAEP;
 717:Drivers/STM32F4xx_HAL_Driver/Src/stm32f4xx_ll_usb.c ****     USBx_DEVICE->DAINTMSK &= ~(USB_OTG_DAINTMSK_OEPM & ((uint32_t)(1UL << (ep->num & EP_ADDR_MSK)) 
 718:Drivers/STM32F4xx_HAL_Driver/Src/stm32f4xx_ll_usb.c ****   }
 719:Drivers/STM32F4xx_HAL_Driver/Src/stm32f4xx_ll_usb.c **** 
 720:Drivers/STM32F4xx_HAL_Driver/Src/stm32f4xx_ll_usb.c ****   return HAL_OK;
 721:Drivers/STM32F4xx_HAL_Driver/Src/stm32f4xx_ll_usb.c **** }
 722:Drivers/STM32F4xx_HAL_Driver/Src/stm32f4xx_ll_usb.c **** 
 723:Drivers/STM32F4xx_HAL_Driver/Src/stm32f4xx_ll_usb.c **** /**
 724:Drivers/STM32F4xx_HAL_Driver/Src/stm32f4xx_ll_usb.c ****   * @brief  USB_EPStartXfer : setup and starts a transfer over an EP
 725:Drivers/STM32F4xx_HAL_Driver/Src/stm32f4xx_ll_usb.c ****   * @param  USBx  Selected device
 726:Drivers/STM32F4xx_HAL_Driver/Src/stm32f4xx_ll_usb.c ****   * @param  ep pointer to endpoint structure
 727:Drivers/STM32F4xx_HAL_Driver/Src/stm32f4xx_ll_usb.c ****   * @param  dma USB dma enabled or disabled
 728:Drivers/STM32F4xx_HAL_Driver/Src/stm32f4xx_ll_usb.c ****   *          This parameter can be one of these values:
 729:Drivers/STM32F4xx_HAL_Driver/Src/stm32f4xx_ll_usb.c ****   *           0 : DMA feature not used
 730:Drivers/STM32F4xx_HAL_Driver/Src/stm32f4xx_ll_usb.c ****   *           1 : DMA feature used
 731:Drivers/STM32F4xx_HAL_Driver/Src/stm32f4xx_ll_usb.c ****   * @retval HAL status
 732:Drivers/STM32F4xx_HAL_Driver/Src/stm32f4xx_ll_usb.c ****   */
 733:Drivers/STM32F4xx_HAL_Driver/Src/stm32f4xx_ll_usb.c **** HAL_StatusTypeDef USB_EPStartXfer(USB_OTG_GlobalTypeDef *USBx, USB_OTG_EPTypeDef *ep, uint8_t dma)
 734:Drivers/STM32F4xx_HAL_Driver/Src/stm32f4xx_ll_usb.c **** {
 735:Drivers/STM32F4xx_HAL_Driver/Src/stm32f4xx_ll_usb.c ****   uint32_t USBx_BASE = (uint32_t)USBx;
 736:Drivers/STM32F4xx_HAL_Driver/Src/stm32f4xx_ll_usb.c ****   uint32_t epnum = (uint32_t)ep->num;
 737:Drivers/STM32F4xx_HAL_Driver/Src/stm32f4xx_ll_usb.c ****   uint16_t pktcnt;
 738:Drivers/STM32F4xx_HAL_Driver/Src/stm32f4xx_ll_usb.c **** 
 739:Drivers/STM32F4xx_HAL_Driver/Src/stm32f4xx_ll_usb.c ****   /* IN endpoint */
 740:Drivers/STM32F4xx_HAL_Driver/Src/stm32f4xx_ll_usb.c ****   if (ep->is_in == 1U)
 741:Drivers/STM32F4xx_HAL_Driver/Src/stm32f4xx_ll_usb.c ****   {
 742:Drivers/STM32F4xx_HAL_Driver/Src/stm32f4xx_ll_usb.c ****     /* Zero Length Packet? */
 743:Drivers/STM32F4xx_HAL_Driver/Src/stm32f4xx_ll_usb.c ****     if (ep->xfer_len == 0U)
 744:Drivers/STM32F4xx_HAL_Driver/Src/stm32f4xx_ll_usb.c ****     {
 745:Drivers/STM32F4xx_HAL_Driver/Src/stm32f4xx_ll_usb.c ****       USBx_INEP(epnum)->DIEPTSIZ &= ~(USB_OTG_DIEPTSIZ_PKTCNT);
 746:Drivers/STM32F4xx_HAL_Driver/Src/stm32f4xx_ll_usb.c ****       USBx_INEP(epnum)->DIEPTSIZ |= (USB_OTG_DIEPTSIZ_PKTCNT & (1U << 19));
 747:Drivers/STM32F4xx_HAL_Driver/Src/stm32f4xx_ll_usb.c ****       USBx_INEP(epnum)->DIEPTSIZ &= ~(USB_OTG_DIEPTSIZ_XFRSIZ);
 748:Drivers/STM32F4xx_HAL_Driver/Src/stm32f4xx_ll_usb.c ****     }
 749:Drivers/STM32F4xx_HAL_Driver/Src/stm32f4xx_ll_usb.c ****     else
 750:Drivers/STM32F4xx_HAL_Driver/Src/stm32f4xx_ll_usb.c ****     {
 751:Drivers/STM32F4xx_HAL_Driver/Src/stm32f4xx_ll_usb.c ****       /* Program the transfer size and packet count
 752:Drivers/STM32F4xx_HAL_Driver/Src/stm32f4xx_ll_usb.c ****       * as follows: xfersize = N * maxpacket +
 753:Drivers/STM32F4xx_HAL_Driver/Src/stm32f4xx_ll_usb.c ****       * short_packet pktcnt = N + (short_packet
 754:Drivers/STM32F4xx_HAL_Driver/Src/stm32f4xx_ll_usb.c ****       * exist ? 1 : 0)
 755:Drivers/STM32F4xx_HAL_Driver/Src/stm32f4xx_ll_usb.c ****       */
 756:Drivers/STM32F4xx_HAL_Driver/Src/stm32f4xx_ll_usb.c ****       USBx_INEP(epnum)->DIEPTSIZ &= ~(USB_OTG_DIEPTSIZ_XFRSIZ);
 757:Drivers/STM32F4xx_HAL_Driver/Src/stm32f4xx_ll_usb.c ****       USBx_INEP(epnum)->DIEPTSIZ &= ~(USB_OTG_DIEPTSIZ_PKTCNT);
 758:Drivers/STM32F4xx_HAL_Driver/Src/stm32f4xx_ll_usb.c ****       USBx_INEP(epnum)->DIEPTSIZ |= (USB_OTG_DIEPTSIZ_PKTCNT &
 759:Drivers/STM32F4xx_HAL_Driver/Src/stm32f4xx_ll_usb.c ****                                      (((ep->xfer_len + ep->maxpacket - 1U) / ep->maxpacket) << 19))
 760:Drivers/STM32F4xx_HAL_Driver/Src/stm32f4xx_ll_usb.c **** 
 761:Drivers/STM32F4xx_HAL_Driver/Src/stm32f4xx_ll_usb.c ****       USBx_INEP(epnum)->DIEPTSIZ |= (USB_OTG_DIEPTSIZ_XFRSIZ & ep->xfer_len);
 762:Drivers/STM32F4xx_HAL_Driver/Src/stm32f4xx_ll_usb.c **** 
 763:Drivers/STM32F4xx_HAL_Driver/Src/stm32f4xx_ll_usb.c ****       if (ep->type == EP_TYPE_ISOC)
 764:Drivers/STM32F4xx_HAL_Driver/Src/stm32f4xx_ll_usb.c ****       {
 765:Drivers/STM32F4xx_HAL_Driver/Src/stm32f4xx_ll_usb.c ****         USBx_INEP(epnum)->DIEPTSIZ &= ~(USB_OTG_DIEPTSIZ_MULCNT);
 766:Drivers/STM32F4xx_HAL_Driver/Src/stm32f4xx_ll_usb.c ****         USBx_INEP(epnum)->DIEPTSIZ |= (USB_OTG_DIEPTSIZ_MULCNT & (1U << 29));
 767:Drivers/STM32F4xx_HAL_Driver/Src/stm32f4xx_ll_usb.c ****       }
 768:Drivers/STM32F4xx_HAL_Driver/Src/stm32f4xx_ll_usb.c ****     }
 769:Drivers/STM32F4xx_HAL_Driver/Src/stm32f4xx_ll_usb.c **** 
 770:Drivers/STM32F4xx_HAL_Driver/Src/stm32f4xx_ll_usb.c ****     if (dma == 1U)
 771:Drivers/STM32F4xx_HAL_Driver/Src/stm32f4xx_ll_usb.c ****     {
ARM GAS  /tmp/ccSVR7EX.s 			page 15


 772:Drivers/STM32F4xx_HAL_Driver/Src/stm32f4xx_ll_usb.c ****       if ((uint32_t)ep->dma_addr != 0U)
 773:Drivers/STM32F4xx_HAL_Driver/Src/stm32f4xx_ll_usb.c ****       {
 774:Drivers/STM32F4xx_HAL_Driver/Src/stm32f4xx_ll_usb.c ****         USBx_INEP(epnum)->DIEPDMA = (uint32_t)(ep->dma_addr);
 775:Drivers/STM32F4xx_HAL_Driver/Src/stm32f4xx_ll_usb.c ****       }
 776:Drivers/STM32F4xx_HAL_Driver/Src/stm32f4xx_ll_usb.c **** 
 777:Drivers/STM32F4xx_HAL_Driver/Src/stm32f4xx_ll_usb.c ****       if (ep->type == EP_TYPE_ISOC)
 778:Drivers/STM32F4xx_HAL_Driver/Src/stm32f4xx_ll_usb.c ****       {
 779:Drivers/STM32F4xx_HAL_Driver/Src/stm32f4xx_ll_usb.c ****         if ((USBx_DEVICE->DSTS & (1U << 8)) == 0U)
 780:Drivers/STM32F4xx_HAL_Driver/Src/stm32f4xx_ll_usb.c ****         {
 781:Drivers/STM32F4xx_HAL_Driver/Src/stm32f4xx_ll_usb.c ****           USBx_INEP(epnum)->DIEPCTL |= USB_OTG_DIEPCTL_SODDFRM;
 782:Drivers/STM32F4xx_HAL_Driver/Src/stm32f4xx_ll_usb.c ****         }
 783:Drivers/STM32F4xx_HAL_Driver/Src/stm32f4xx_ll_usb.c ****         else
 784:Drivers/STM32F4xx_HAL_Driver/Src/stm32f4xx_ll_usb.c ****         {
 785:Drivers/STM32F4xx_HAL_Driver/Src/stm32f4xx_ll_usb.c ****           USBx_INEP(epnum)->DIEPCTL |= USB_OTG_DIEPCTL_SD0PID_SEVNFRM;
 786:Drivers/STM32F4xx_HAL_Driver/Src/stm32f4xx_ll_usb.c ****         }
 787:Drivers/STM32F4xx_HAL_Driver/Src/stm32f4xx_ll_usb.c ****       }
 788:Drivers/STM32F4xx_HAL_Driver/Src/stm32f4xx_ll_usb.c **** 
 789:Drivers/STM32F4xx_HAL_Driver/Src/stm32f4xx_ll_usb.c ****       /* EP enable, IN data in FIFO */
 790:Drivers/STM32F4xx_HAL_Driver/Src/stm32f4xx_ll_usb.c ****       USBx_INEP(epnum)->DIEPCTL |= (USB_OTG_DIEPCTL_CNAK | USB_OTG_DIEPCTL_EPENA);
 791:Drivers/STM32F4xx_HAL_Driver/Src/stm32f4xx_ll_usb.c ****     }
 792:Drivers/STM32F4xx_HAL_Driver/Src/stm32f4xx_ll_usb.c ****     else
 793:Drivers/STM32F4xx_HAL_Driver/Src/stm32f4xx_ll_usb.c ****     {
 794:Drivers/STM32F4xx_HAL_Driver/Src/stm32f4xx_ll_usb.c ****       /* EP enable, IN data in FIFO */
 795:Drivers/STM32F4xx_HAL_Driver/Src/stm32f4xx_ll_usb.c ****       USBx_INEP(epnum)->DIEPCTL |= (USB_OTG_DIEPCTL_CNAK | USB_OTG_DIEPCTL_EPENA);
 796:Drivers/STM32F4xx_HAL_Driver/Src/stm32f4xx_ll_usb.c **** 
 797:Drivers/STM32F4xx_HAL_Driver/Src/stm32f4xx_ll_usb.c ****       if (ep->type != EP_TYPE_ISOC)
 798:Drivers/STM32F4xx_HAL_Driver/Src/stm32f4xx_ll_usb.c ****       {
 799:Drivers/STM32F4xx_HAL_Driver/Src/stm32f4xx_ll_usb.c ****         /* Enable the Tx FIFO Empty Interrupt for this EP */
 800:Drivers/STM32F4xx_HAL_Driver/Src/stm32f4xx_ll_usb.c ****         if (ep->xfer_len > 0U)
 801:Drivers/STM32F4xx_HAL_Driver/Src/stm32f4xx_ll_usb.c ****         {
 802:Drivers/STM32F4xx_HAL_Driver/Src/stm32f4xx_ll_usb.c ****           USBx_DEVICE->DIEPEMPMSK |= 1UL << (ep->num & EP_ADDR_MSK);
 803:Drivers/STM32F4xx_HAL_Driver/Src/stm32f4xx_ll_usb.c ****         }
 804:Drivers/STM32F4xx_HAL_Driver/Src/stm32f4xx_ll_usb.c ****       }
 805:Drivers/STM32F4xx_HAL_Driver/Src/stm32f4xx_ll_usb.c ****       else
 806:Drivers/STM32F4xx_HAL_Driver/Src/stm32f4xx_ll_usb.c ****       {
 807:Drivers/STM32F4xx_HAL_Driver/Src/stm32f4xx_ll_usb.c ****         if ((USBx_DEVICE->DSTS & (1U << 8)) == 0U)
 808:Drivers/STM32F4xx_HAL_Driver/Src/stm32f4xx_ll_usb.c ****         {
 809:Drivers/STM32F4xx_HAL_Driver/Src/stm32f4xx_ll_usb.c ****           USBx_INEP(epnum)->DIEPCTL |= USB_OTG_DIEPCTL_SODDFRM;
 810:Drivers/STM32F4xx_HAL_Driver/Src/stm32f4xx_ll_usb.c ****         }
 811:Drivers/STM32F4xx_HAL_Driver/Src/stm32f4xx_ll_usb.c ****         else
 812:Drivers/STM32F4xx_HAL_Driver/Src/stm32f4xx_ll_usb.c ****         {
 813:Drivers/STM32F4xx_HAL_Driver/Src/stm32f4xx_ll_usb.c ****           USBx_INEP(epnum)->DIEPCTL |= USB_OTG_DIEPCTL_SD0PID_SEVNFRM;
 814:Drivers/STM32F4xx_HAL_Driver/Src/stm32f4xx_ll_usb.c ****         }
 815:Drivers/STM32F4xx_HAL_Driver/Src/stm32f4xx_ll_usb.c **** 
 816:Drivers/STM32F4xx_HAL_Driver/Src/stm32f4xx_ll_usb.c ****         (void)USB_WritePacket(USBx, ep->xfer_buff, ep->num, (uint16_t)ep->xfer_len, dma);
 817:Drivers/STM32F4xx_HAL_Driver/Src/stm32f4xx_ll_usb.c ****       }
 818:Drivers/STM32F4xx_HAL_Driver/Src/stm32f4xx_ll_usb.c ****     }
 819:Drivers/STM32F4xx_HAL_Driver/Src/stm32f4xx_ll_usb.c ****   }
 820:Drivers/STM32F4xx_HAL_Driver/Src/stm32f4xx_ll_usb.c ****   else /* OUT endpoint */
 821:Drivers/STM32F4xx_HAL_Driver/Src/stm32f4xx_ll_usb.c ****   {
 822:Drivers/STM32F4xx_HAL_Driver/Src/stm32f4xx_ll_usb.c ****     /* Program the transfer size and packet count as follows:
 823:Drivers/STM32F4xx_HAL_Driver/Src/stm32f4xx_ll_usb.c ****     * pktcnt = N
 824:Drivers/STM32F4xx_HAL_Driver/Src/stm32f4xx_ll_usb.c ****     * xfersize = N * maxpacket
 825:Drivers/STM32F4xx_HAL_Driver/Src/stm32f4xx_ll_usb.c ****     */
 826:Drivers/STM32F4xx_HAL_Driver/Src/stm32f4xx_ll_usb.c ****     USBx_OUTEP(epnum)->DOEPTSIZ &= ~(USB_OTG_DOEPTSIZ_XFRSIZ);
 827:Drivers/STM32F4xx_HAL_Driver/Src/stm32f4xx_ll_usb.c ****     USBx_OUTEP(epnum)->DOEPTSIZ &= ~(USB_OTG_DOEPTSIZ_PKTCNT);
 828:Drivers/STM32F4xx_HAL_Driver/Src/stm32f4xx_ll_usb.c **** 
ARM GAS  /tmp/ccSVR7EX.s 			page 16


 829:Drivers/STM32F4xx_HAL_Driver/Src/stm32f4xx_ll_usb.c ****     if (ep->xfer_len == 0U)
 830:Drivers/STM32F4xx_HAL_Driver/Src/stm32f4xx_ll_usb.c ****     {
 831:Drivers/STM32F4xx_HAL_Driver/Src/stm32f4xx_ll_usb.c ****       USBx_OUTEP(epnum)->DOEPTSIZ |= (USB_OTG_DOEPTSIZ_XFRSIZ & ep->maxpacket);
 832:Drivers/STM32F4xx_HAL_Driver/Src/stm32f4xx_ll_usb.c ****       USBx_OUTEP(epnum)->DOEPTSIZ |= (USB_OTG_DOEPTSIZ_PKTCNT & (1U << 19));
 833:Drivers/STM32F4xx_HAL_Driver/Src/stm32f4xx_ll_usb.c ****     }
 834:Drivers/STM32F4xx_HAL_Driver/Src/stm32f4xx_ll_usb.c ****     else
 835:Drivers/STM32F4xx_HAL_Driver/Src/stm32f4xx_ll_usb.c ****     {
 836:Drivers/STM32F4xx_HAL_Driver/Src/stm32f4xx_ll_usb.c ****       pktcnt = (uint16_t)((ep->xfer_len + ep->maxpacket - 1U) / ep->maxpacket);
 837:Drivers/STM32F4xx_HAL_Driver/Src/stm32f4xx_ll_usb.c ****       USBx_OUTEP(epnum)->DOEPTSIZ |= USB_OTG_DOEPTSIZ_PKTCNT & ((uint32_t)pktcnt << 19);
 838:Drivers/STM32F4xx_HAL_Driver/Src/stm32f4xx_ll_usb.c ****       USBx_OUTEP(epnum)->DOEPTSIZ |= USB_OTG_DOEPTSIZ_XFRSIZ & (ep->maxpacket * pktcnt);
 839:Drivers/STM32F4xx_HAL_Driver/Src/stm32f4xx_ll_usb.c ****     }
 840:Drivers/STM32F4xx_HAL_Driver/Src/stm32f4xx_ll_usb.c **** 
 841:Drivers/STM32F4xx_HAL_Driver/Src/stm32f4xx_ll_usb.c ****     if (dma == 1U)
 842:Drivers/STM32F4xx_HAL_Driver/Src/stm32f4xx_ll_usb.c ****     {
 843:Drivers/STM32F4xx_HAL_Driver/Src/stm32f4xx_ll_usb.c ****       if ((uint32_t)ep->xfer_buff != 0U)
 844:Drivers/STM32F4xx_HAL_Driver/Src/stm32f4xx_ll_usb.c ****       {
 845:Drivers/STM32F4xx_HAL_Driver/Src/stm32f4xx_ll_usb.c ****         USBx_OUTEP(epnum)->DOEPDMA = (uint32_t)(ep->xfer_buff);
 846:Drivers/STM32F4xx_HAL_Driver/Src/stm32f4xx_ll_usb.c ****       }
 847:Drivers/STM32F4xx_HAL_Driver/Src/stm32f4xx_ll_usb.c ****     }
 848:Drivers/STM32F4xx_HAL_Driver/Src/stm32f4xx_ll_usb.c **** 
 849:Drivers/STM32F4xx_HAL_Driver/Src/stm32f4xx_ll_usb.c ****     if (ep->type == EP_TYPE_ISOC)
 850:Drivers/STM32F4xx_HAL_Driver/Src/stm32f4xx_ll_usb.c ****     {
 851:Drivers/STM32F4xx_HAL_Driver/Src/stm32f4xx_ll_usb.c ****       if ((USBx_DEVICE->DSTS & (1U << 8)) == 0U)
 852:Drivers/STM32F4xx_HAL_Driver/Src/stm32f4xx_ll_usb.c ****       {
 853:Drivers/STM32F4xx_HAL_Driver/Src/stm32f4xx_ll_usb.c ****         USBx_OUTEP(epnum)->DOEPCTL |= USB_OTG_DOEPCTL_SODDFRM;
 854:Drivers/STM32F4xx_HAL_Driver/Src/stm32f4xx_ll_usb.c ****       }
 855:Drivers/STM32F4xx_HAL_Driver/Src/stm32f4xx_ll_usb.c ****       else
 856:Drivers/STM32F4xx_HAL_Driver/Src/stm32f4xx_ll_usb.c ****       {
 857:Drivers/STM32F4xx_HAL_Driver/Src/stm32f4xx_ll_usb.c ****         USBx_OUTEP(epnum)->DOEPCTL |= USB_OTG_DOEPCTL_SD0PID_SEVNFRM;
 858:Drivers/STM32F4xx_HAL_Driver/Src/stm32f4xx_ll_usb.c ****       }
 859:Drivers/STM32F4xx_HAL_Driver/Src/stm32f4xx_ll_usb.c ****     }
 860:Drivers/STM32F4xx_HAL_Driver/Src/stm32f4xx_ll_usb.c ****     /* EP enable */
 861:Drivers/STM32F4xx_HAL_Driver/Src/stm32f4xx_ll_usb.c ****     USBx_OUTEP(epnum)->DOEPCTL |= (USB_OTG_DOEPCTL_CNAK | USB_OTG_DOEPCTL_EPENA);
 862:Drivers/STM32F4xx_HAL_Driver/Src/stm32f4xx_ll_usb.c ****   }
 863:Drivers/STM32F4xx_HAL_Driver/Src/stm32f4xx_ll_usb.c **** 
 864:Drivers/STM32F4xx_HAL_Driver/Src/stm32f4xx_ll_usb.c ****   return HAL_OK;
 865:Drivers/STM32F4xx_HAL_Driver/Src/stm32f4xx_ll_usb.c **** }
 866:Drivers/STM32F4xx_HAL_Driver/Src/stm32f4xx_ll_usb.c **** 
 867:Drivers/STM32F4xx_HAL_Driver/Src/stm32f4xx_ll_usb.c **** /**
 868:Drivers/STM32F4xx_HAL_Driver/Src/stm32f4xx_ll_usb.c ****   * @brief  USB_EP0StartXfer : setup and starts a transfer over the EP  0
 869:Drivers/STM32F4xx_HAL_Driver/Src/stm32f4xx_ll_usb.c ****   * @param  USBx  Selected device
 870:Drivers/STM32F4xx_HAL_Driver/Src/stm32f4xx_ll_usb.c ****   * @param  ep pointer to endpoint structure
 871:Drivers/STM32F4xx_HAL_Driver/Src/stm32f4xx_ll_usb.c ****   * @param  dma USB dma enabled or disabled
 872:Drivers/STM32F4xx_HAL_Driver/Src/stm32f4xx_ll_usb.c ****   *          This parameter can be one of these values:
 873:Drivers/STM32F4xx_HAL_Driver/Src/stm32f4xx_ll_usb.c ****   *           0 : DMA feature not used
 874:Drivers/STM32F4xx_HAL_Driver/Src/stm32f4xx_ll_usb.c ****   *           1 : DMA feature used
 875:Drivers/STM32F4xx_HAL_Driver/Src/stm32f4xx_ll_usb.c ****   * @retval HAL status
 876:Drivers/STM32F4xx_HAL_Driver/Src/stm32f4xx_ll_usb.c ****   */
 877:Drivers/STM32F4xx_HAL_Driver/Src/stm32f4xx_ll_usb.c **** HAL_StatusTypeDef USB_EP0StartXfer(USB_OTG_GlobalTypeDef *USBx, USB_OTG_EPTypeDef *ep, uint8_t dma)
 878:Drivers/STM32F4xx_HAL_Driver/Src/stm32f4xx_ll_usb.c **** {
 879:Drivers/STM32F4xx_HAL_Driver/Src/stm32f4xx_ll_usb.c ****   uint32_t USBx_BASE = (uint32_t)USBx;
 880:Drivers/STM32F4xx_HAL_Driver/Src/stm32f4xx_ll_usb.c ****   uint32_t epnum = (uint32_t)ep->num;
 881:Drivers/STM32F4xx_HAL_Driver/Src/stm32f4xx_ll_usb.c **** 
 882:Drivers/STM32F4xx_HAL_Driver/Src/stm32f4xx_ll_usb.c ****   /* IN endpoint */
 883:Drivers/STM32F4xx_HAL_Driver/Src/stm32f4xx_ll_usb.c ****   if (ep->is_in == 1U)
 884:Drivers/STM32F4xx_HAL_Driver/Src/stm32f4xx_ll_usb.c ****   {
 885:Drivers/STM32F4xx_HAL_Driver/Src/stm32f4xx_ll_usb.c ****     /* Zero Length Packet? */
ARM GAS  /tmp/ccSVR7EX.s 			page 17


 886:Drivers/STM32F4xx_HAL_Driver/Src/stm32f4xx_ll_usb.c ****     if (ep->xfer_len == 0U)
 887:Drivers/STM32F4xx_HAL_Driver/Src/stm32f4xx_ll_usb.c ****     {
 888:Drivers/STM32F4xx_HAL_Driver/Src/stm32f4xx_ll_usb.c ****       USBx_INEP(epnum)->DIEPTSIZ &= ~(USB_OTG_DIEPTSIZ_PKTCNT);
 889:Drivers/STM32F4xx_HAL_Driver/Src/stm32f4xx_ll_usb.c ****       USBx_INEP(epnum)->DIEPTSIZ |= (USB_OTG_DIEPTSIZ_PKTCNT & (1U << 19));
 890:Drivers/STM32F4xx_HAL_Driver/Src/stm32f4xx_ll_usb.c ****       USBx_INEP(epnum)->DIEPTSIZ &= ~(USB_OTG_DIEPTSIZ_XFRSIZ);
 891:Drivers/STM32F4xx_HAL_Driver/Src/stm32f4xx_ll_usb.c ****     }
 892:Drivers/STM32F4xx_HAL_Driver/Src/stm32f4xx_ll_usb.c ****     else
 893:Drivers/STM32F4xx_HAL_Driver/Src/stm32f4xx_ll_usb.c ****     {
 894:Drivers/STM32F4xx_HAL_Driver/Src/stm32f4xx_ll_usb.c ****       /* Program the transfer size and packet count
 895:Drivers/STM32F4xx_HAL_Driver/Src/stm32f4xx_ll_usb.c ****       * as follows: xfersize = N * maxpacket +
 896:Drivers/STM32F4xx_HAL_Driver/Src/stm32f4xx_ll_usb.c ****       * short_packet pktcnt = N + (short_packet
 897:Drivers/STM32F4xx_HAL_Driver/Src/stm32f4xx_ll_usb.c ****       * exist ? 1 : 0)
 898:Drivers/STM32F4xx_HAL_Driver/Src/stm32f4xx_ll_usb.c ****       */
 899:Drivers/STM32F4xx_HAL_Driver/Src/stm32f4xx_ll_usb.c ****       USBx_INEP(epnum)->DIEPTSIZ &= ~(USB_OTG_DIEPTSIZ_XFRSIZ);
 900:Drivers/STM32F4xx_HAL_Driver/Src/stm32f4xx_ll_usb.c ****       USBx_INEP(epnum)->DIEPTSIZ &= ~(USB_OTG_DIEPTSIZ_PKTCNT);
 901:Drivers/STM32F4xx_HAL_Driver/Src/stm32f4xx_ll_usb.c **** 
 902:Drivers/STM32F4xx_HAL_Driver/Src/stm32f4xx_ll_usb.c ****       if (ep->xfer_len > ep->maxpacket)
 903:Drivers/STM32F4xx_HAL_Driver/Src/stm32f4xx_ll_usb.c ****       {
 904:Drivers/STM32F4xx_HAL_Driver/Src/stm32f4xx_ll_usb.c ****         ep->xfer_len = ep->maxpacket;
 905:Drivers/STM32F4xx_HAL_Driver/Src/stm32f4xx_ll_usb.c ****       }
 906:Drivers/STM32F4xx_HAL_Driver/Src/stm32f4xx_ll_usb.c ****       USBx_INEP(epnum)->DIEPTSIZ |= (USB_OTG_DIEPTSIZ_PKTCNT & (1U << 19));
 907:Drivers/STM32F4xx_HAL_Driver/Src/stm32f4xx_ll_usb.c ****       USBx_INEP(epnum)->DIEPTSIZ |= (USB_OTG_DIEPTSIZ_XFRSIZ & ep->xfer_len);
 908:Drivers/STM32F4xx_HAL_Driver/Src/stm32f4xx_ll_usb.c ****     }
 909:Drivers/STM32F4xx_HAL_Driver/Src/stm32f4xx_ll_usb.c **** 
 910:Drivers/STM32F4xx_HAL_Driver/Src/stm32f4xx_ll_usb.c ****     if (dma == 1U)
 911:Drivers/STM32F4xx_HAL_Driver/Src/stm32f4xx_ll_usb.c ****     {
 912:Drivers/STM32F4xx_HAL_Driver/Src/stm32f4xx_ll_usb.c ****       if ((uint32_t)ep->dma_addr != 0U)
 913:Drivers/STM32F4xx_HAL_Driver/Src/stm32f4xx_ll_usb.c ****       {
 914:Drivers/STM32F4xx_HAL_Driver/Src/stm32f4xx_ll_usb.c ****         USBx_INEP(epnum)->DIEPDMA = (uint32_t)(ep->dma_addr);
 915:Drivers/STM32F4xx_HAL_Driver/Src/stm32f4xx_ll_usb.c ****       }
 916:Drivers/STM32F4xx_HAL_Driver/Src/stm32f4xx_ll_usb.c **** 
 917:Drivers/STM32F4xx_HAL_Driver/Src/stm32f4xx_ll_usb.c ****       /* EP enable, IN data in FIFO */
 918:Drivers/STM32F4xx_HAL_Driver/Src/stm32f4xx_ll_usb.c ****       USBx_INEP(epnum)->DIEPCTL |= (USB_OTG_DIEPCTL_CNAK | USB_OTG_DIEPCTL_EPENA);
 919:Drivers/STM32F4xx_HAL_Driver/Src/stm32f4xx_ll_usb.c ****     }
 920:Drivers/STM32F4xx_HAL_Driver/Src/stm32f4xx_ll_usb.c ****     else
 921:Drivers/STM32F4xx_HAL_Driver/Src/stm32f4xx_ll_usb.c ****     {
 922:Drivers/STM32F4xx_HAL_Driver/Src/stm32f4xx_ll_usb.c ****       /* EP enable, IN data in FIFO */
 923:Drivers/STM32F4xx_HAL_Driver/Src/stm32f4xx_ll_usb.c ****       USBx_INEP(epnum)->DIEPCTL |= (USB_OTG_DIEPCTL_CNAK | USB_OTG_DIEPCTL_EPENA);
 924:Drivers/STM32F4xx_HAL_Driver/Src/stm32f4xx_ll_usb.c **** 
 925:Drivers/STM32F4xx_HAL_Driver/Src/stm32f4xx_ll_usb.c ****       /* Enable the Tx FIFO Empty Interrupt for this EP */
 926:Drivers/STM32F4xx_HAL_Driver/Src/stm32f4xx_ll_usb.c ****       if (ep->xfer_len > 0U)
 927:Drivers/STM32F4xx_HAL_Driver/Src/stm32f4xx_ll_usb.c ****       {
 928:Drivers/STM32F4xx_HAL_Driver/Src/stm32f4xx_ll_usb.c ****         USBx_DEVICE->DIEPEMPMSK |= 1UL << (ep->num & EP_ADDR_MSK);
 929:Drivers/STM32F4xx_HAL_Driver/Src/stm32f4xx_ll_usb.c ****       }
 930:Drivers/STM32F4xx_HAL_Driver/Src/stm32f4xx_ll_usb.c ****     }
 931:Drivers/STM32F4xx_HAL_Driver/Src/stm32f4xx_ll_usb.c ****   }
 932:Drivers/STM32F4xx_HAL_Driver/Src/stm32f4xx_ll_usb.c ****   else /* OUT endpoint */
 933:Drivers/STM32F4xx_HAL_Driver/Src/stm32f4xx_ll_usb.c ****   {
 934:Drivers/STM32F4xx_HAL_Driver/Src/stm32f4xx_ll_usb.c ****     /* Program the transfer size and packet count as follows:
 935:Drivers/STM32F4xx_HAL_Driver/Src/stm32f4xx_ll_usb.c ****     * pktcnt = N
 936:Drivers/STM32F4xx_HAL_Driver/Src/stm32f4xx_ll_usb.c ****     * xfersize = N * maxpacket
 937:Drivers/STM32F4xx_HAL_Driver/Src/stm32f4xx_ll_usb.c ****     */
 938:Drivers/STM32F4xx_HAL_Driver/Src/stm32f4xx_ll_usb.c ****     USBx_OUTEP(epnum)->DOEPTSIZ &= ~(USB_OTG_DOEPTSIZ_XFRSIZ);
 939:Drivers/STM32F4xx_HAL_Driver/Src/stm32f4xx_ll_usb.c ****     USBx_OUTEP(epnum)->DOEPTSIZ &= ~(USB_OTG_DOEPTSIZ_PKTCNT);
 940:Drivers/STM32F4xx_HAL_Driver/Src/stm32f4xx_ll_usb.c **** 
 941:Drivers/STM32F4xx_HAL_Driver/Src/stm32f4xx_ll_usb.c ****     if (ep->xfer_len > 0U)
 942:Drivers/STM32F4xx_HAL_Driver/Src/stm32f4xx_ll_usb.c ****     {
ARM GAS  /tmp/ccSVR7EX.s 			page 18


 943:Drivers/STM32F4xx_HAL_Driver/Src/stm32f4xx_ll_usb.c ****       ep->xfer_len = ep->maxpacket;
 944:Drivers/STM32F4xx_HAL_Driver/Src/stm32f4xx_ll_usb.c ****     }
 945:Drivers/STM32F4xx_HAL_Driver/Src/stm32f4xx_ll_usb.c **** 
 946:Drivers/STM32F4xx_HAL_Driver/Src/stm32f4xx_ll_usb.c ****     USBx_OUTEP(epnum)->DOEPTSIZ |= (USB_OTG_DOEPTSIZ_PKTCNT & (1U << 19));
 947:Drivers/STM32F4xx_HAL_Driver/Src/stm32f4xx_ll_usb.c ****     USBx_OUTEP(epnum)->DOEPTSIZ |= (USB_OTG_DOEPTSIZ_XFRSIZ & (ep->maxpacket));
 948:Drivers/STM32F4xx_HAL_Driver/Src/stm32f4xx_ll_usb.c **** 
 949:Drivers/STM32F4xx_HAL_Driver/Src/stm32f4xx_ll_usb.c ****     if (dma == 1U)
 950:Drivers/STM32F4xx_HAL_Driver/Src/stm32f4xx_ll_usb.c ****     {
 951:Drivers/STM32F4xx_HAL_Driver/Src/stm32f4xx_ll_usb.c ****       if ((uint32_t)ep->xfer_buff != 0U)
 952:Drivers/STM32F4xx_HAL_Driver/Src/stm32f4xx_ll_usb.c ****       {
 953:Drivers/STM32F4xx_HAL_Driver/Src/stm32f4xx_ll_usb.c ****         USBx_OUTEP(epnum)->DOEPDMA = (uint32_t)(ep->xfer_buff);
 954:Drivers/STM32F4xx_HAL_Driver/Src/stm32f4xx_ll_usb.c ****       }
 955:Drivers/STM32F4xx_HAL_Driver/Src/stm32f4xx_ll_usb.c ****     }
 956:Drivers/STM32F4xx_HAL_Driver/Src/stm32f4xx_ll_usb.c **** 
 957:Drivers/STM32F4xx_HAL_Driver/Src/stm32f4xx_ll_usb.c ****     /* EP enable */
 958:Drivers/STM32F4xx_HAL_Driver/Src/stm32f4xx_ll_usb.c ****     USBx_OUTEP(epnum)->DOEPCTL |= (USB_OTG_DOEPCTL_CNAK | USB_OTG_DOEPCTL_EPENA);
 959:Drivers/STM32F4xx_HAL_Driver/Src/stm32f4xx_ll_usb.c ****   }
 960:Drivers/STM32F4xx_HAL_Driver/Src/stm32f4xx_ll_usb.c **** 
 961:Drivers/STM32F4xx_HAL_Driver/Src/stm32f4xx_ll_usb.c ****   return HAL_OK;
 962:Drivers/STM32F4xx_HAL_Driver/Src/stm32f4xx_ll_usb.c **** }
 963:Drivers/STM32F4xx_HAL_Driver/Src/stm32f4xx_ll_usb.c **** 
 964:Drivers/STM32F4xx_HAL_Driver/Src/stm32f4xx_ll_usb.c **** /**
 965:Drivers/STM32F4xx_HAL_Driver/Src/stm32f4xx_ll_usb.c ****   * @brief  USB_WritePacket : Writes a packet into the Tx FIFO associated
 966:Drivers/STM32F4xx_HAL_Driver/Src/stm32f4xx_ll_usb.c ****   *         with the EP/channel
 967:Drivers/STM32F4xx_HAL_Driver/Src/stm32f4xx_ll_usb.c ****   * @param  USBx  Selected device
 968:Drivers/STM32F4xx_HAL_Driver/Src/stm32f4xx_ll_usb.c ****   * @param  src   pointer to source buffer
 969:Drivers/STM32F4xx_HAL_Driver/Src/stm32f4xx_ll_usb.c ****   * @param  ch_ep_num  endpoint or host channel number
 970:Drivers/STM32F4xx_HAL_Driver/Src/stm32f4xx_ll_usb.c ****   * @param  len  Number of bytes to write
 971:Drivers/STM32F4xx_HAL_Driver/Src/stm32f4xx_ll_usb.c ****   * @param  dma USB dma enabled or disabled
 972:Drivers/STM32F4xx_HAL_Driver/Src/stm32f4xx_ll_usb.c ****   *          This parameter can be one of these values:
 973:Drivers/STM32F4xx_HAL_Driver/Src/stm32f4xx_ll_usb.c ****   *           0 : DMA feature not used
 974:Drivers/STM32F4xx_HAL_Driver/Src/stm32f4xx_ll_usb.c ****   *           1 : DMA feature used
 975:Drivers/STM32F4xx_HAL_Driver/Src/stm32f4xx_ll_usb.c ****   * @retval HAL status
 976:Drivers/STM32F4xx_HAL_Driver/Src/stm32f4xx_ll_usb.c ****   */
 977:Drivers/STM32F4xx_HAL_Driver/Src/stm32f4xx_ll_usb.c **** HAL_StatusTypeDef USB_WritePacket(USB_OTG_GlobalTypeDef *USBx, uint8_t *src,
 978:Drivers/STM32F4xx_HAL_Driver/Src/stm32f4xx_ll_usb.c ****                                   uint8_t ch_ep_num, uint16_t len, uint8_t dma)
 979:Drivers/STM32F4xx_HAL_Driver/Src/stm32f4xx_ll_usb.c **** {
 980:Drivers/STM32F4xx_HAL_Driver/Src/stm32f4xx_ll_usb.c ****   uint32_t USBx_BASE = (uint32_t)USBx;
 981:Drivers/STM32F4xx_HAL_Driver/Src/stm32f4xx_ll_usb.c ****   uint8_t *pSrc = src;
 982:Drivers/STM32F4xx_HAL_Driver/Src/stm32f4xx_ll_usb.c ****   uint32_t count32b;
 983:Drivers/STM32F4xx_HAL_Driver/Src/stm32f4xx_ll_usb.c ****   uint32_t i;
 984:Drivers/STM32F4xx_HAL_Driver/Src/stm32f4xx_ll_usb.c **** 
 985:Drivers/STM32F4xx_HAL_Driver/Src/stm32f4xx_ll_usb.c ****   if (dma == 0U)
 986:Drivers/STM32F4xx_HAL_Driver/Src/stm32f4xx_ll_usb.c ****   {
 987:Drivers/STM32F4xx_HAL_Driver/Src/stm32f4xx_ll_usb.c ****     count32b = ((uint32_t)len + 3U) / 4U;
 988:Drivers/STM32F4xx_HAL_Driver/Src/stm32f4xx_ll_usb.c ****     for (i = 0U; i < count32b; i++)
 989:Drivers/STM32F4xx_HAL_Driver/Src/stm32f4xx_ll_usb.c ****     {
 990:Drivers/STM32F4xx_HAL_Driver/Src/stm32f4xx_ll_usb.c ****       USBx_DFIFO((uint32_t)ch_ep_num) = __UNALIGNED_UINT32_READ(pSrc);
 991:Drivers/STM32F4xx_HAL_Driver/Src/stm32f4xx_ll_usb.c ****       pSrc++;
 992:Drivers/STM32F4xx_HAL_Driver/Src/stm32f4xx_ll_usb.c ****       pSrc++;
 993:Drivers/STM32F4xx_HAL_Driver/Src/stm32f4xx_ll_usb.c ****       pSrc++;
 994:Drivers/STM32F4xx_HAL_Driver/Src/stm32f4xx_ll_usb.c ****       pSrc++;
 995:Drivers/STM32F4xx_HAL_Driver/Src/stm32f4xx_ll_usb.c ****     }
 996:Drivers/STM32F4xx_HAL_Driver/Src/stm32f4xx_ll_usb.c ****   }
 997:Drivers/STM32F4xx_HAL_Driver/Src/stm32f4xx_ll_usb.c **** 
 998:Drivers/STM32F4xx_HAL_Driver/Src/stm32f4xx_ll_usb.c ****   return HAL_OK;
 999:Drivers/STM32F4xx_HAL_Driver/Src/stm32f4xx_ll_usb.c **** }
ARM GAS  /tmp/ccSVR7EX.s 			page 19


1000:Drivers/STM32F4xx_HAL_Driver/Src/stm32f4xx_ll_usb.c **** 
1001:Drivers/STM32F4xx_HAL_Driver/Src/stm32f4xx_ll_usb.c **** /**
1002:Drivers/STM32F4xx_HAL_Driver/Src/stm32f4xx_ll_usb.c ****   * @brief  USB_ReadPacket : read a packet from the RX FIFO
1003:Drivers/STM32F4xx_HAL_Driver/Src/stm32f4xx_ll_usb.c ****   * @param  USBx  Selected device
1004:Drivers/STM32F4xx_HAL_Driver/Src/stm32f4xx_ll_usb.c ****   * @param  dest  source pointer
1005:Drivers/STM32F4xx_HAL_Driver/Src/stm32f4xx_ll_usb.c ****   * @param  len  Number of bytes to read
1006:Drivers/STM32F4xx_HAL_Driver/Src/stm32f4xx_ll_usb.c ****   * @retval pointer to destination buffer
1007:Drivers/STM32F4xx_HAL_Driver/Src/stm32f4xx_ll_usb.c ****   */
1008:Drivers/STM32F4xx_HAL_Driver/Src/stm32f4xx_ll_usb.c **** void *USB_ReadPacket(USB_OTG_GlobalTypeDef *USBx, uint8_t *dest, uint16_t len)
1009:Drivers/STM32F4xx_HAL_Driver/Src/stm32f4xx_ll_usb.c **** {
1010:Drivers/STM32F4xx_HAL_Driver/Src/stm32f4xx_ll_usb.c ****   uint32_t USBx_BASE = (uint32_t)USBx;
1011:Drivers/STM32F4xx_HAL_Driver/Src/stm32f4xx_ll_usb.c ****   uint8_t *pDest = dest;
1012:Drivers/STM32F4xx_HAL_Driver/Src/stm32f4xx_ll_usb.c ****   uint32_t pData;
1013:Drivers/STM32F4xx_HAL_Driver/Src/stm32f4xx_ll_usb.c ****   uint32_t i;
1014:Drivers/STM32F4xx_HAL_Driver/Src/stm32f4xx_ll_usb.c ****   uint32_t count32b = (uint32_t)len >> 2U;
1015:Drivers/STM32F4xx_HAL_Driver/Src/stm32f4xx_ll_usb.c ****   uint16_t remaining_bytes = len % 4U;
1016:Drivers/STM32F4xx_HAL_Driver/Src/stm32f4xx_ll_usb.c **** 
1017:Drivers/STM32F4xx_HAL_Driver/Src/stm32f4xx_ll_usb.c ****   for (i = 0U; i < count32b; i++)
1018:Drivers/STM32F4xx_HAL_Driver/Src/stm32f4xx_ll_usb.c ****   {
1019:Drivers/STM32F4xx_HAL_Driver/Src/stm32f4xx_ll_usb.c ****     __UNALIGNED_UINT32_WRITE(pDest, USBx_DFIFO(0U));
1020:Drivers/STM32F4xx_HAL_Driver/Src/stm32f4xx_ll_usb.c ****     pDest++;
1021:Drivers/STM32F4xx_HAL_Driver/Src/stm32f4xx_ll_usb.c ****     pDest++;
1022:Drivers/STM32F4xx_HAL_Driver/Src/stm32f4xx_ll_usb.c ****     pDest++;
1023:Drivers/STM32F4xx_HAL_Driver/Src/stm32f4xx_ll_usb.c ****     pDest++;
1024:Drivers/STM32F4xx_HAL_Driver/Src/stm32f4xx_ll_usb.c ****   }
1025:Drivers/STM32F4xx_HAL_Driver/Src/stm32f4xx_ll_usb.c **** 
1026:Drivers/STM32F4xx_HAL_Driver/Src/stm32f4xx_ll_usb.c ****   /* When Number of data is not word aligned, read the remaining byte */
1027:Drivers/STM32F4xx_HAL_Driver/Src/stm32f4xx_ll_usb.c ****   if (remaining_bytes != 0U)
1028:Drivers/STM32F4xx_HAL_Driver/Src/stm32f4xx_ll_usb.c ****   {
1029:Drivers/STM32F4xx_HAL_Driver/Src/stm32f4xx_ll_usb.c ****     i = 0U;
1030:Drivers/STM32F4xx_HAL_Driver/Src/stm32f4xx_ll_usb.c ****     __UNALIGNED_UINT32_WRITE(&pData, USBx_DFIFO(0U));
1031:Drivers/STM32F4xx_HAL_Driver/Src/stm32f4xx_ll_usb.c **** 
1032:Drivers/STM32F4xx_HAL_Driver/Src/stm32f4xx_ll_usb.c ****     do
1033:Drivers/STM32F4xx_HAL_Driver/Src/stm32f4xx_ll_usb.c ****     {
1034:Drivers/STM32F4xx_HAL_Driver/Src/stm32f4xx_ll_usb.c ****       *(uint8_t *)pDest = (uint8_t)(pData >> (8U * (uint8_t)(i)));
1035:Drivers/STM32F4xx_HAL_Driver/Src/stm32f4xx_ll_usb.c ****       i++;
1036:Drivers/STM32F4xx_HAL_Driver/Src/stm32f4xx_ll_usb.c ****       pDest++;
1037:Drivers/STM32F4xx_HAL_Driver/Src/stm32f4xx_ll_usb.c ****       remaining_bytes--;
1038:Drivers/STM32F4xx_HAL_Driver/Src/stm32f4xx_ll_usb.c ****     } while (remaining_bytes != 0U);
1039:Drivers/STM32F4xx_HAL_Driver/Src/stm32f4xx_ll_usb.c ****   }
1040:Drivers/STM32F4xx_HAL_Driver/Src/stm32f4xx_ll_usb.c **** 
1041:Drivers/STM32F4xx_HAL_Driver/Src/stm32f4xx_ll_usb.c ****   return ((void *)pDest);
1042:Drivers/STM32F4xx_HAL_Driver/Src/stm32f4xx_ll_usb.c **** }
1043:Drivers/STM32F4xx_HAL_Driver/Src/stm32f4xx_ll_usb.c **** 
1044:Drivers/STM32F4xx_HAL_Driver/Src/stm32f4xx_ll_usb.c **** /**
1045:Drivers/STM32F4xx_HAL_Driver/Src/stm32f4xx_ll_usb.c ****   * @brief  USB_EPSetStall : set a stall condition over an EP
1046:Drivers/STM32F4xx_HAL_Driver/Src/stm32f4xx_ll_usb.c ****   * @param  USBx  Selected device
1047:Drivers/STM32F4xx_HAL_Driver/Src/stm32f4xx_ll_usb.c ****   * @param  ep pointer to endpoint structure
1048:Drivers/STM32F4xx_HAL_Driver/Src/stm32f4xx_ll_usb.c ****   * @retval HAL status
1049:Drivers/STM32F4xx_HAL_Driver/Src/stm32f4xx_ll_usb.c ****   */
1050:Drivers/STM32F4xx_HAL_Driver/Src/stm32f4xx_ll_usb.c **** HAL_StatusTypeDef USB_EPSetStall(USB_OTG_GlobalTypeDef *USBx, USB_OTG_EPTypeDef *ep)
1051:Drivers/STM32F4xx_HAL_Driver/Src/stm32f4xx_ll_usb.c **** {
1052:Drivers/STM32F4xx_HAL_Driver/Src/stm32f4xx_ll_usb.c ****   uint32_t USBx_BASE = (uint32_t)USBx;
1053:Drivers/STM32F4xx_HAL_Driver/Src/stm32f4xx_ll_usb.c ****   uint32_t epnum = (uint32_t)ep->num;
1054:Drivers/STM32F4xx_HAL_Driver/Src/stm32f4xx_ll_usb.c **** 
1055:Drivers/STM32F4xx_HAL_Driver/Src/stm32f4xx_ll_usb.c ****   if (ep->is_in == 1U)
1056:Drivers/STM32F4xx_HAL_Driver/Src/stm32f4xx_ll_usb.c ****   {
ARM GAS  /tmp/ccSVR7EX.s 			page 20


1057:Drivers/STM32F4xx_HAL_Driver/Src/stm32f4xx_ll_usb.c ****     if (((USBx_INEP(epnum)->DIEPCTL & USB_OTG_DIEPCTL_EPENA) == 0U) && (epnum != 0U))
1058:Drivers/STM32F4xx_HAL_Driver/Src/stm32f4xx_ll_usb.c ****     {
1059:Drivers/STM32F4xx_HAL_Driver/Src/stm32f4xx_ll_usb.c ****       USBx_INEP(epnum)->DIEPCTL &= ~(USB_OTG_DIEPCTL_EPDIS);
1060:Drivers/STM32F4xx_HAL_Driver/Src/stm32f4xx_ll_usb.c ****     }
1061:Drivers/STM32F4xx_HAL_Driver/Src/stm32f4xx_ll_usb.c ****     USBx_INEP(epnum)->DIEPCTL |= USB_OTG_DIEPCTL_STALL;
1062:Drivers/STM32F4xx_HAL_Driver/Src/stm32f4xx_ll_usb.c ****   }
1063:Drivers/STM32F4xx_HAL_Driver/Src/stm32f4xx_ll_usb.c ****   else
1064:Drivers/STM32F4xx_HAL_Driver/Src/stm32f4xx_ll_usb.c ****   {
1065:Drivers/STM32F4xx_HAL_Driver/Src/stm32f4xx_ll_usb.c ****     if (((USBx_OUTEP(epnum)->DOEPCTL & USB_OTG_DOEPCTL_EPENA) == 0U) && (epnum != 0U))
1066:Drivers/STM32F4xx_HAL_Driver/Src/stm32f4xx_ll_usb.c ****     {
1067:Drivers/STM32F4xx_HAL_Driver/Src/stm32f4xx_ll_usb.c ****       USBx_OUTEP(epnum)->DOEPCTL &= ~(USB_OTG_DOEPCTL_EPDIS);
1068:Drivers/STM32F4xx_HAL_Driver/Src/stm32f4xx_ll_usb.c ****     }
1069:Drivers/STM32F4xx_HAL_Driver/Src/stm32f4xx_ll_usb.c ****     USBx_OUTEP(epnum)->DOEPCTL |= USB_OTG_DOEPCTL_STALL;
1070:Drivers/STM32F4xx_HAL_Driver/Src/stm32f4xx_ll_usb.c ****   }
1071:Drivers/STM32F4xx_HAL_Driver/Src/stm32f4xx_ll_usb.c **** 
1072:Drivers/STM32F4xx_HAL_Driver/Src/stm32f4xx_ll_usb.c ****   return HAL_OK;
1073:Drivers/STM32F4xx_HAL_Driver/Src/stm32f4xx_ll_usb.c **** }
1074:Drivers/STM32F4xx_HAL_Driver/Src/stm32f4xx_ll_usb.c **** 
1075:Drivers/STM32F4xx_HAL_Driver/Src/stm32f4xx_ll_usb.c **** /**
1076:Drivers/STM32F4xx_HAL_Driver/Src/stm32f4xx_ll_usb.c ****   * @brief  USB_EPClearStall : Clear a stall condition over an EP
1077:Drivers/STM32F4xx_HAL_Driver/Src/stm32f4xx_ll_usb.c ****   * @param  USBx  Selected device
1078:Drivers/STM32F4xx_HAL_Driver/Src/stm32f4xx_ll_usb.c ****   * @param  ep pointer to endpoint structure
1079:Drivers/STM32F4xx_HAL_Driver/Src/stm32f4xx_ll_usb.c ****   * @retval HAL status
1080:Drivers/STM32F4xx_HAL_Driver/Src/stm32f4xx_ll_usb.c ****   */
1081:Drivers/STM32F4xx_HAL_Driver/Src/stm32f4xx_ll_usb.c **** HAL_StatusTypeDef USB_EPClearStall(USB_OTG_GlobalTypeDef *USBx, USB_OTG_EPTypeDef *ep)
1082:Drivers/STM32F4xx_HAL_Driver/Src/stm32f4xx_ll_usb.c **** {
1083:Drivers/STM32F4xx_HAL_Driver/Src/stm32f4xx_ll_usb.c ****   uint32_t USBx_BASE = (uint32_t)USBx;
1084:Drivers/STM32F4xx_HAL_Driver/Src/stm32f4xx_ll_usb.c ****   uint32_t epnum = (uint32_t)ep->num;
1085:Drivers/STM32F4xx_HAL_Driver/Src/stm32f4xx_ll_usb.c **** 
1086:Drivers/STM32F4xx_HAL_Driver/Src/stm32f4xx_ll_usb.c ****   if (ep->is_in == 1U)
1087:Drivers/STM32F4xx_HAL_Driver/Src/stm32f4xx_ll_usb.c ****   {
1088:Drivers/STM32F4xx_HAL_Driver/Src/stm32f4xx_ll_usb.c ****     USBx_INEP(epnum)->DIEPCTL &= ~USB_OTG_DIEPCTL_STALL;
1089:Drivers/STM32F4xx_HAL_Driver/Src/stm32f4xx_ll_usb.c ****     if ((ep->type == EP_TYPE_INTR) || (ep->type == EP_TYPE_BULK))
1090:Drivers/STM32F4xx_HAL_Driver/Src/stm32f4xx_ll_usb.c ****     {
1091:Drivers/STM32F4xx_HAL_Driver/Src/stm32f4xx_ll_usb.c ****       USBx_INEP(epnum)->DIEPCTL |= USB_OTG_DIEPCTL_SD0PID_SEVNFRM; /* DATA0 */
1092:Drivers/STM32F4xx_HAL_Driver/Src/stm32f4xx_ll_usb.c ****     }
1093:Drivers/STM32F4xx_HAL_Driver/Src/stm32f4xx_ll_usb.c ****   }
1094:Drivers/STM32F4xx_HAL_Driver/Src/stm32f4xx_ll_usb.c ****   else
1095:Drivers/STM32F4xx_HAL_Driver/Src/stm32f4xx_ll_usb.c ****   {
1096:Drivers/STM32F4xx_HAL_Driver/Src/stm32f4xx_ll_usb.c ****     USBx_OUTEP(epnum)->DOEPCTL &= ~USB_OTG_DOEPCTL_STALL;
1097:Drivers/STM32F4xx_HAL_Driver/Src/stm32f4xx_ll_usb.c ****     if ((ep->type == EP_TYPE_INTR) || (ep->type == EP_TYPE_BULK))
1098:Drivers/STM32F4xx_HAL_Driver/Src/stm32f4xx_ll_usb.c ****     {
1099:Drivers/STM32F4xx_HAL_Driver/Src/stm32f4xx_ll_usb.c ****       USBx_OUTEP(epnum)->DOEPCTL |= USB_OTG_DOEPCTL_SD0PID_SEVNFRM; /* DATA0 */
1100:Drivers/STM32F4xx_HAL_Driver/Src/stm32f4xx_ll_usb.c ****     }
1101:Drivers/STM32F4xx_HAL_Driver/Src/stm32f4xx_ll_usb.c ****   }
1102:Drivers/STM32F4xx_HAL_Driver/Src/stm32f4xx_ll_usb.c ****   return HAL_OK;
1103:Drivers/STM32F4xx_HAL_Driver/Src/stm32f4xx_ll_usb.c **** }
1104:Drivers/STM32F4xx_HAL_Driver/Src/stm32f4xx_ll_usb.c **** 
1105:Drivers/STM32F4xx_HAL_Driver/Src/stm32f4xx_ll_usb.c **** /**
1106:Drivers/STM32F4xx_HAL_Driver/Src/stm32f4xx_ll_usb.c ****   * @brief  USB_StopDevice : Stop the usb device mode
1107:Drivers/STM32F4xx_HAL_Driver/Src/stm32f4xx_ll_usb.c ****   * @param  USBx  Selected device
1108:Drivers/STM32F4xx_HAL_Driver/Src/stm32f4xx_ll_usb.c ****   * @retval HAL status
1109:Drivers/STM32F4xx_HAL_Driver/Src/stm32f4xx_ll_usb.c ****   */
1110:Drivers/STM32F4xx_HAL_Driver/Src/stm32f4xx_ll_usb.c **** HAL_StatusTypeDef USB_StopDevice(USB_OTG_GlobalTypeDef *USBx)
1111:Drivers/STM32F4xx_HAL_Driver/Src/stm32f4xx_ll_usb.c **** {
1112:Drivers/STM32F4xx_HAL_Driver/Src/stm32f4xx_ll_usb.c ****   HAL_StatusTypeDef ret;
1113:Drivers/STM32F4xx_HAL_Driver/Src/stm32f4xx_ll_usb.c ****   uint32_t USBx_BASE = (uint32_t)USBx;
ARM GAS  /tmp/ccSVR7EX.s 			page 21


1114:Drivers/STM32F4xx_HAL_Driver/Src/stm32f4xx_ll_usb.c ****   uint32_t i;
1115:Drivers/STM32F4xx_HAL_Driver/Src/stm32f4xx_ll_usb.c **** 
1116:Drivers/STM32F4xx_HAL_Driver/Src/stm32f4xx_ll_usb.c ****   /* Clear Pending interrupt */
1117:Drivers/STM32F4xx_HAL_Driver/Src/stm32f4xx_ll_usb.c ****   for (i = 0U; i < 15U; i++)
1118:Drivers/STM32F4xx_HAL_Driver/Src/stm32f4xx_ll_usb.c ****   {
1119:Drivers/STM32F4xx_HAL_Driver/Src/stm32f4xx_ll_usb.c ****     USBx_INEP(i)->DIEPINT = 0xFB7FU;
1120:Drivers/STM32F4xx_HAL_Driver/Src/stm32f4xx_ll_usb.c ****     USBx_OUTEP(i)->DOEPINT = 0xFB7FU;
1121:Drivers/STM32F4xx_HAL_Driver/Src/stm32f4xx_ll_usb.c ****   }
1122:Drivers/STM32F4xx_HAL_Driver/Src/stm32f4xx_ll_usb.c **** 
1123:Drivers/STM32F4xx_HAL_Driver/Src/stm32f4xx_ll_usb.c ****   /* Clear interrupt masks */
1124:Drivers/STM32F4xx_HAL_Driver/Src/stm32f4xx_ll_usb.c ****   USBx_DEVICE->DIEPMSK  = 0U;
1125:Drivers/STM32F4xx_HAL_Driver/Src/stm32f4xx_ll_usb.c ****   USBx_DEVICE->DOEPMSK  = 0U;
1126:Drivers/STM32F4xx_HAL_Driver/Src/stm32f4xx_ll_usb.c ****   USBx_DEVICE->DAINTMSK = 0U;
1127:Drivers/STM32F4xx_HAL_Driver/Src/stm32f4xx_ll_usb.c **** 
1128:Drivers/STM32F4xx_HAL_Driver/Src/stm32f4xx_ll_usb.c ****   /* Flush the FIFO */
1129:Drivers/STM32F4xx_HAL_Driver/Src/stm32f4xx_ll_usb.c ****   ret = USB_FlushRxFifo(USBx);
1130:Drivers/STM32F4xx_HAL_Driver/Src/stm32f4xx_ll_usb.c ****   if (ret != HAL_OK)
1131:Drivers/STM32F4xx_HAL_Driver/Src/stm32f4xx_ll_usb.c ****   {
1132:Drivers/STM32F4xx_HAL_Driver/Src/stm32f4xx_ll_usb.c ****     return ret;
1133:Drivers/STM32F4xx_HAL_Driver/Src/stm32f4xx_ll_usb.c ****   }
1134:Drivers/STM32F4xx_HAL_Driver/Src/stm32f4xx_ll_usb.c **** 
1135:Drivers/STM32F4xx_HAL_Driver/Src/stm32f4xx_ll_usb.c ****   ret = USB_FlushTxFifo(USBx,  0x10U);
1136:Drivers/STM32F4xx_HAL_Driver/Src/stm32f4xx_ll_usb.c ****   if (ret != HAL_OK)
1137:Drivers/STM32F4xx_HAL_Driver/Src/stm32f4xx_ll_usb.c ****   {
1138:Drivers/STM32F4xx_HAL_Driver/Src/stm32f4xx_ll_usb.c ****     return ret;
1139:Drivers/STM32F4xx_HAL_Driver/Src/stm32f4xx_ll_usb.c ****   }
1140:Drivers/STM32F4xx_HAL_Driver/Src/stm32f4xx_ll_usb.c **** 
1141:Drivers/STM32F4xx_HAL_Driver/Src/stm32f4xx_ll_usb.c ****   return ret;
1142:Drivers/STM32F4xx_HAL_Driver/Src/stm32f4xx_ll_usb.c **** }
1143:Drivers/STM32F4xx_HAL_Driver/Src/stm32f4xx_ll_usb.c **** 
1144:Drivers/STM32F4xx_HAL_Driver/Src/stm32f4xx_ll_usb.c **** /**
1145:Drivers/STM32F4xx_HAL_Driver/Src/stm32f4xx_ll_usb.c ****   * @brief  USB_SetDevAddress : Stop the usb device mode
1146:Drivers/STM32F4xx_HAL_Driver/Src/stm32f4xx_ll_usb.c ****   * @param  USBx  Selected device
1147:Drivers/STM32F4xx_HAL_Driver/Src/stm32f4xx_ll_usb.c ****   * @param  address  new device address to be assigned
1148:Drivers/STM32F4xx_HAL_Driver/Src/stm32f4xx_ll_usb.c ****   *          This parameter can be a value from 0 to 255
1149:Drivers/STM32F4xx_HAL_Driver/Src/stm32f4xx_ll_usb.c ****   * @retval HAL status
1150:Drivers/STM32F4xx_HAL_Driver/Src/stm32f4xx_ll_usb.c ****   */
1151:Drivers/STM32F4xx_HAL_Driver/Src/stm32f4xx_ll_usb.c **** HAL_StatusTypeDef  USB_SetDevAddress(USB_OTG_GlobalTypeDef *USBx, uint8_t address)
1152:Drivers/STM32F4xx_HAL_Driver/Src/stm32f4xx_ll_usb.c **** {
1153:Drivers/STM32F4xx_HAL_Driver/Src/stm32f4xx_ll_usb.c ****   uint32_t USBx_BASE = (uint32_t)USBx;
1154:Drivers/STM32F4xx_HAL_Driver/Src/stm32f4xx_ll_usb.c **** 
1155:Drivers/STM32F4xx_HAL_Driver/Src/stm32f4xx_ll_usb.c ****   USBx_DEVICE->DCFG &= ~(USB_OTG_DCFG_DAD);
1156:Drivers/STM32F4xx_HAL_Driver/Src/stm32f4xx_ll_usb.c ****   USBx_DEVICE->DCFG |= ((uint32_t)address << 4) & USB_OTG_DCFG_DAD;
1157:Drivers/STM32F4xx_HAL_Driver/Src/stm32f4xx_ll_usb.c **** 
1158:Drivers/STM32F4xx_HAL_Driver/Src/stm32f4xx_ll_usb.c ****   return HAL_OK;
1159:Drivers/STM32F4xx_HAL_Driver/Src/stm32f4xx_ll_usb.c **** }
1160:Drivers/STM32F4xx_HAL_Driver/Src/stm32f4xx_ll_usb.c **** 
1161:Drivers/STM32F4xx_HAL_Driver/Src/stm32f4xx_ll_usb.c **** /**
1162:Drivers/STM32F4xx_HAL_Driver/Src/stm32f4xx_ll_usb.c ****   * @brief  USB_DevConnect : Connect the USB device by enabling Rpu
1163:Drivers/STM32F4xx_HAL_Driver/Src/stm32f4xx_ll_usb.c ****   * @param  USBx  Selected device
1164:Drivers/STM32F4xx_HAL_Driver/Src/stm32f4xx_ll_usb.c ****   * @retval HAL status
1165:Drivers/STM32F4xx_HAL_Driver/Src/stm32f4xx_ll_usb.c ****   */
1166:Drivers/STM32F4xx_HAL_Driver/Src/stm32f4xx_ll_usb.c **** HAL_StatusTypeDef  USB_DevConnect(USB_OTG_GlobalTypeDef *USBx)
1167:Drivers/STM32F4xx_HAL_Driver/Src/stm32f4xx_ll_usb.c **** {
1168:Drivers/STM32F4xx_HAL_Driver/Src/stm32f4xx_ll_usb.c ****   uint32_t USBx_BASE = (uint32_t)USBx;
1169:Drivers/STM32F4xx_HAL_Driver/Src/stm32f4xx_ll_usb.c **** 
1170:Drivers/STM32F4xx_HAL_Driver/Src/stm32f4xx_ll_usb.c ****   /* In case phy is stopped, ensure to ungate and restore the phy CLK */
ARM GAS  /tmp/ccSVR7EX.s 			page 22


1171:Drivers/STM32F4xx_HAL_Driver/Src/stm32f4xx_ll_usb.c ****   USBx_PCGCCTL &= ~(USB_OTG_PCGCCTL_STOPCLK | USB_OTG_PCGCCTL_GATECLK);
1172:Drivers/STM32F4xx_HAL_Driver/Src/stm32f4xx_ll_usb.c **** 
1173:Drivers/STM32F4xx_HAL_Driver/Src/stm32f4xx_ll_usb.c ****   USBx_DEVICE->DCTL &= ~USB_OTG_DCTL_SDIS;
1174:Drivers/STM32F4xx_HAL_Driver/Src/stm32f4xx_ll_usb.c **** 
1175:Drivers/STM32F4xx_HAL_Driver/Src/stm32f4xx_ll_usb.c ****   return HAL_OK;
1176:Drivers/STM32F4xx_HAL_Driver/Src/stm32f4xx_ll_usb.c **** }
1177:Drivers/STM32F4xx_HAL_Driver/Src/stm32f4xx_ll_usb.c **** 
1178:Drivers/STM32F4xx_HAL_Driver/Src/stm32f4xx_ll_usb.c **** /**
1179:Drivers/STM32F4xx_HAL_Driver/Src/stm32f4xx_ll_usb.c ****   * @brief  USB_DevDisconnect : Disconnect the USB device by disabling Rpu
1180:Drivers/STM32F4xx_HAL_Driver/Src/stm32f4xx_ll_usb.c ****   * @param  USBx  Selected device
1181:Drivers/STM32F4xx_HAL_Driver/Src/stm32f4xx_ll_usb.c ****   * @retval HAL status
1182:Drivers/STM32F4xx_HAL_Driver/Src/stm32f4xx_ll_usb.c ****   */
1183:Drivers/STM32F4xx_HAL_Driver/Src/stm32f4xx_ll_usb.c **** HAL_StatusTypeDef  USB_DevDisconnect(USB_OTG_GlobalTypeDef *USBx)
1184:Drivers/STM32F4xx_HAL_Driver/Src/stm32f4xx_ll_usb.c **** {
1185:Drivers/STM32F4xx_HAL_Driver/Src/stm32f4xx_ll_usb.c ****   uint32_t USBx_BASE = (uint32_t)USBx;
1186:Drivers/STM32F4xx_HAL_Driver/Src/stm32f4xx_ll_usb.c **** 
1187:Drivers/STM32F4xx_HAL_Driver/Src/stm32f4xx_ll_usb.c ****   /* In case phy is stopped, ensure to ungate and restore the phy CLK */
1188:Drivers/STM32F4xx_HAL_Driver/Src/stm32f4xx_ll_usb.c ****   USBx_PCGCCTL &= ~(USB_OTG_PCGCCTL_STOPCLK | USB_OTG_PCGCCTL_GATECLK);
1189:Drivers/STM32F4xx_HAL_Driver/Src/stm32f4xx_ll_usb.c **** 
1190:Drivers/STM32F4xx_HAL_Driver/Src/stm32f4xx_ll_usb.c ****   USBx_DEVICE->DCTL |= USB_OTG_DCTL_SDIS;
1191:Drivers/STM32F4xx_HAL_Driver/Src/stm32f4xx_ll_usb.c **** 
1192:Drivers/STM32F4xx_HAL_Driver/Src/stm32f4xx_ll_usb.c ****   return HAL_OK;
1193:Drivers/STM32F4xx_HAL_Driver/Src/stm32f4xx_ll_usb.c **** }
1194:Drivers/STM32F4xx_HAL_Driver/Src/stm32f4xx_ll_usb.c **** 
1195:Drivers/STM32F4xx_HAL_Driver/Src/stm32f4xx_ll_usb.c **** /**
1196:Drivers/STM32F4xx_HAL_Driver/Src/stm32f4xx_ll_usb.c ****   * @brief  USB_ReadInterrupts: return the global USB interrupt status
1197:Drivers/STM32F4xx_HAL_Driver/Src/stm32f4xx_ll_usb.c ****   * @param  USBx  Selected device
1198:Drivers/STM32F4xx_HAL_Driver/Src/stm32f4xx_ll_usb.c ****   * @retval HAL status
1199:Drivers/STM32F4xx_HAL_Driver/Src/stm32f4xx_ll_usb.c ****   */
1200:Drivers/STM32F4xx_HAL_Driver/Src/stm32f4xx_ll_usb.c **** uint32_t  USB_ReadInterrupts(USB_OTG_GlobalTypeDef *USBx)
1201:Drivers/STM32F4xx_HAL_Driver/Src/stm32f4xx_ll_usb.c **** {
1202:Drivers/STM32F4xx_HAL_Driver/Src/stm32f4xx_ll_usb.c ****   uint32_t tmpreg;
1203:Drivers/STM32F4xx_HAL_Driver/Src/stm32f4xx_ll_usb.c **** 
1204:Drivers/STM32F4xx_HAL_Driver/Src/stm32f4xx_ll_usb.c ****   tmpreg = USBx->GINTSTS;
1205:Drivers/STM32F4xx_HAL_Driver/Src/stm32f4xx_ll_usb.c ****   tmpreg &= USBx->GINTMSK;
1206:Drivers/STM32F4xx_HAL_Driver/Src/stm32f4xx_ll_usb.c **** 
1207:Drivers/STM32F4xx_HAL_Driver/Src/stm32f4xx_ll_usb.c ****   return tmpreg;
1208:Drivers/STM32F4xx_HAL_Driver/Src/stm32f4xx_ll_usb.c **** }
1209:Drivers/STM32F4xx_HAL_Driver/Src/stm32f4xx_ll_usb.c **** 
1210:Drivers/STM32F4xx_HAL_Driver/Src/stm32f4xx_ll_usb.c **** /**
1211:Drivers/STM32F4xx_HAL_Driver/Src/stm32f4xx_ll_usb.c ****   * @brief  USB_ReadDevAllOutEpInterrupt: return the USB device OUT endpoints interrupt status
1212:Drivers/STM32F4xx_HAL_Driver/Src/stm32f4xx_ll_usb.c ****   * @param  USBx  Selected device
1213:Drivers/STM32F4xx_HAL_Driver/Src/stm32f4xx_ll_usb.c ****   * @retval HAL status
1214:Drivers/STM32F4xx_HAL_Driver/Src/stm32f4xx_ll_usb.c ****   */
1215:Drivers/STM32F4xx_HAL_Driver/Src/stm32f4xx_ll_usb.c **** uint32_t USB_ReadDevAllOutEpInterrupt(USB_OTG_GlobalTypeDef *USBx)
1216:Drivers/STM32F4xx_HAL_Driver/Src/stm32f4xx_ll_usb.c **** {
1217:Drivers/STM32F4xx_HAL_Driver/Src/stm32f4xx_ll_usb.c ****   uint32_t USBx_BASE = (uint32_t)USBx;
1218:Drivers/STM32F4xx_HAL_Driver/Src/stm32f4xx_ll_usb.c ****   uint32_t tmpreg;
1219:Drivers/STM32F4xx_HAL_Driver/Src/stm32f4xx_ll_usb.c **** 
1220:Drivers/STM32F4xx_HAL_Driver/Src/stm32f4xx_ll_usb.c ****   tmpreg  = USBx_DEVICE->DAINT;
1221:Drivers/STM32F4xx_HAL_Driver/Src/stm32f4xx_ll_usb.c ****   tmpreg &= USBx_DEVICE->DAINTMSK;
1222:Drivers/STM32F4xx_HAL_Driver/Src/stm32f4xx_ll_usb.c **** 
1223:Drivers/STM32F4xx_HAL_Driver/Src/stm32f4xx_ll_usb.c ****   return ((tmpreg & 0xffff0000U) >> 16);
1224:Drivers/STM32F4xx_HAL_Driver/Src/stm32f4xx_ll_usb.c **** }
1225:Drivers/STM32F4xx_HAL_Driver/Src/stm32f4xx_ll_usb.c **** 
1226:Drivers/STM32F4xx_HAL_Driver/Src/stm32f4xx_ll_usb.c **** /**
1227:Drivers/STM32F4xx_HAL_Driver/Src/stm32f4xx_ll_usb.c ****   * @brief  USB_ReadDevAllInEpInterrupt: return the USB device IN endpoints interrupt status
ARM GAS  /tmp/ccSVR7EX.s 			page 23


1228:Drivers/STM32F4xx_HAL_Driver/Src/stm32f4xx_ll_usb.c ****   * @param  USBx  Selected device
1229:Drivers/STM32F4xx_HAL_Driver/Src/stm32f4xx_ll_usb.c ****   * @retval HAL status
1230:Drivers/STM32F4xx_HAL_Driver/Src/stm32f4xx_ll_usb.c ****   */
1231:Drivers/STM32F4xx_HAL_Driver/Src/stm32f4xx_ll_usb.c **** uint32_t USB_ReadDevAllInEpInterrupt(USB_OTG_GlobalTypeDef *USBx)
1232:Drivers/STM32F4xx_HAL_Driver/Src/stm32f4xx_ll_usb.c **** {
1233:Drivers/STM32F4xx_HAL_Driver/Src/stm32f4xx_ll_usb.c ****   uint32_t USBx_BASE = (uint32_t)USBx;
1234:Drivers/STM32F4xx_HAL_Driver/Src/stm32f4xx_ll_usb.c ****   uint32_t tmpreg;
1235:Drivers/STM32F4xx_HAL_Driver/Src/stm32f4xx_ll_usb.c **** 
1236:Drivers/STM32F4xx_HAL_Driver/Src/stm32f4xx_ll_usb.c ****   tmpreg  = USBx_DEVICE->DAINT;
1237:Drivers/STM32F4xx_HAL_Driver/Src/stm32f4xx_ll_usb.c ****   tmpreg &= USBx_DEVICE->DAINTMSK;
1238:Drivers/STM32F4xx_HAL_Driver/Src/stm32f4xx_ll_usb.c **** 
1239:Drivers/STM32F4xx_HAL_Driver/Src/stm32f4xx_ll_usb.c ****   return ((tmpreg & 0xFFFFU));
1240:Drivers/STM32F4xx_HAL_Driver/Src/stm32f4xx_ll_usb.c **** }
1241:Drivers/STM32F4xx_HAL_Driver/Src/stm32f4xx_ll_usb.c **** 
1242:Drivers/STM32F4xx_HAL_Driver/Src/stm32f4xx_ll_usb.c **** /**
1243:Drivers/STM32F4xx_HAL_Driver/Src/stm32f4xx_ll_usb.c ****   * @brief  Returns Device OUT EP Interrupt register
1244:Drivers/STM32F4xx_HAL_Driver/Src/stm32f4xx_ll_usb.c ****   * @param  USBx  Selected device
1245:Drivers/STM32F4xx_HAL_Driver/Src/stm32f4xx_ll_usb.c ****   * @param  epnum  endpoint number
1246:Drivers/STM32F4xx_HAL_Driver/Src/stm32f4xx_ll_usb.c ****   *          This parameter can be a value from 0 to 15
1247:Drivers/STM32F4xx_HAL_Driver/Src/stm32f4xx_ll_usb.c ****   * @retval Device OUT EP Interrupt register
1248:Drivers/STM32F4xx_HAL_Driver/Src/stm32f4xx_ll_usb.c ****   */
1249:Drivers/STM32F4xx_HAL_Driver/Src/stm32f4xx_ll_usb.c **** uint32_t USB_ReadDevOutEPInterrupt(USB_OTG_GlobalTypeDef *USBx, uint8_t epnum)
1250:Drivers/STM32F4xx_HAL_Driver/Src/stm32f4xx_ll_usb.c **** {
1251:Drivers/STM32F4xx_HAL_Driver/Src/stm32f4xx_ll_usb.c ****   uint32_t USBx_BASE = (uint32_t)USBx;
1252:Drivers/STM32F4xx_HAL_Driver/Src/stm32f4xx_ll_usb.c ****   uint32_t tmpreg;
1253:Drivers/STM32F4xx_HAL_Driver/Src/stm32f4xx_ll_usb.c **** 
1254:Drivers/STM32F4xx_HAL_Driver/Src/stm32f4xx_ll_usb.c ****   tmpreg  = USBx_OUTEP((uint32_t)epnum)->DOEPINT;
1255:Drivers/STM32F4xx_HAL_Driver/Src/stm32f4xx_ll_usb.c ****   tmpreg &= USBx_DEVICE->DOEPMSK;
1256:Drivers/STM32F4xx_HAL_Driver/Src/stm32f4xx_ll_usb.c **** 
1257:Drivers/STM32F4xx_HAL_Driver/Src/stm32f4xx_ll_usb.c ****   return tmpreg;
1258:Drivers/STM32F4xx_HAL_Driver/Src/stm32f4xx_ll_usb.c **** }
1259:Drivers/STM32F4xx_HAL_Driver/Src/stm32f4xx_ll_usb.c **** 
1260:Drivers/STM32F4xx_HAL_Driver/Src/stm32f4xx_ll_usb.c **** /**
1261:Drivers/STM32F4xx_HAL_Driver/Src/stm32f4xx_ll_usb.c ****   * @brief  Returns Device IN EP Interrupt register
1262:Drivers/STM32F4xx_HAL_Driver/Src/stm32f4xx_ll_usb.c ****   * @param  USBx  Selected device
1263:Drivers/STM32F4xx_HAL_Driver/Src/stm32f4xx_ll_usb.c ****   * @param  epnum  endpoint number
1264:Drivers/STM32F4xx_HAL_Driver/Src/stm32f4xx_ll_usb.c ****   *          This parameter can be a value from 0 to 15
1265:Drivers/STM32F4xx_HAL_Driver/Src/stm32f4xx_ll_usb.c ****   * @retval Device IN EP Interrupt register
1266:Drivers/STM32F4xx_HAL_Driver/Src/stm32f4xx_ll_usb.c ****   */
1267:Drivers/STM32F4xx_HAL_Driver/Src/stm32f4xx_ll_usb.c **** uint32_t USB_ReadDevInEPInterrupt(USB_OTG_GlobalTypeDef *USBx, uint8_t epnum)
1268:Drivers/STM32F4xx_HAL_Driver/Src/stm32f4xx_ll_usb.c **** {
1269:Drivers/STM32F4xx_HAL_Driver/Src/stm32f4xx_ll_usb.c ****   uint32_t USBx_BASE = (uint32_t)USBx;
1270:Drivers/STM32F4xx_HAL_Driver/Src/stm32f4xx_ll_usb.c ****   uint32_t tmpreg;
1271:Drivers/STM32F4xx_HAL_Driver/Src/stm32f4xx_ll_usb.c ****   uint32_t msk;
1272:Drivers/STM32F4xx_HAL_Driver/Src/stm32f4xx_ll_usb.c ****   uint32_t emp;
1273:Drivers/STM32F4xx_HAL_Driver/Src/stm32f4xx_ll_usb.c **** 
1274:Drivers/STM32F4xx_HAL_Driver/Src/stm32f4xx_ll_usb.c ****   msk = USBx_DEVICE->DIEPMSK;
1275:Drivers/STM32F4xx_HAL_Driver/Src/stm32f4xx_ll_usb.c ****   emp = USBx_DEVICE->DIEPEMPMSK;
1276:Drivers/STM32F4xx_HAL_Driver/Src/stm32f4xx_ll_usb.c ****   msk |= ((emp >> (epnum & EP_ADDR_MSK)) & 0x1U) << 7;
1277:Drivers/STM32F4xx_HAL_Driver/Src/stm32f4xx_ll_usb.c ****   tmpreg = USBx_INEP((uint32_t)epnum)->DIEPINT & msk;
1278:Drivers/STM32F4xx_HAL_Driver/Src/stm32f4xx_ll_usb.c **** 
1279:Drivers/STM32F4xx_HAL_Driver/Src/stm32f4xx_ll_usb.c ****   return tmpreg;
1280:Drivers/STM32F4xx_HAL_Driver/Src/stm32f4xx_ll_usb.c **** }
1281:Drivers/STM32F4xx_HAL_Driver/Src/stm32f4xx_ll_usb.c **** 
1282:Drivers/STM32F4xx_HAL_Driver/Src/stm32f4xx_ll_usb.c **** /**
1283:Drivers/STM32F4xx_HAL_Driver/Src/stm32f4xx_ll_usb.c ****   * @brief  USB_ClearInterrupts: clear a USB interrupt
1284:Drivers/STM32F4xx_HAL_Driver/Src/stm32f4xx_ll_usb.c ****   * @param  USBx  Selected device
ARM GAS  /tmp/ccSVR7EX.s 			page 24


1285:Drivers/STM32F4xx_HAL_Driver/Src/stm32f4xx_ll_usb.c ****   * @param  interrupt  flag
1286:Drivers/STM32F4xx_HAL_Driver/Src/stm32f4xx_ll_usb.c ****   * @retval None
1287:Drivers/STM32F4xx_HAL_Driver/Src/stm32f4xx_ll_usb.c ****   */
1288:Drivers/STM32F4xx_HAL_Driver/Src/stm32f4xx_ll_usb.c **** void  USB_ClearInterrupts(USB_OTG_GlobalTypeDef *USBx, uint32_t interrupt)
1289:Drivers/STM32F4xx_HAL_Driver/Src/stm32f4xx_ll_usb.c **** {
1290:Drivers/STM32F4xx_HAL_Driver/Src/stm32f4xx_ll_usb.c ****   USBx->GINTSTS |= interrupt;
1291:Drivers/STM32F4xx_HAL_Driver/Src/stm32f4xx_ll_usb.c **** }
1292:Drivers/STM32F4xx_HAL_Driver/Src/stm32f4xx_ll_usb.c **** 
1293:Drivers/STM32F4xx_HAL_Driver/Src/stm32f4xx_ll_usb.c **** /**
1294:Drivers/STM32F4xx_HAL_Driver/Src/stm32f4xx_ll_usb.c ****   * @brief  Returns USB core mode
1295:Drivers/STM32F4xx_HAL_Driver/Src/stm32f4xx_ll_usb.c ****   * @param  USBx  Selected device
1296:Drivers/STM32F4xx_HAL_Driver/Src/stm32f4xx_ll_usb.c ****   * @retval return core mode : Host or Device
1297:Drivers/STM32F4xx_HAL_Driver/Src/stm32f4xx_ll_usb.c ****   *          This parameter can be one of these values:
1298:Drivers/STM32F4xx_HAL_Driver/Src/stm32f4xx_ll_usb.c ****   *           0 : Host
1299:Drivers/STM32F4xx_HAL_Driver/Src/stm32f4xx_ll_usb.c ****   *           1 : Device
1300:Drivers/STM32F4xx_HAL_Driver/Src/stm32f4xx_ll_usb.c ****   */
1301:Drivers/STM32F4xx_HAL_Driver/Src/stm32f4xx_ll_usb.c **** uint32_t USB_GetMode(USB_OTG_GlobalTypeDef *USBx)
1302:Drivers/STM32F4xx_HAL_Driver/Src/stm32f4xx_ll_usb.c **** {
1303:Drivers/STM32F4xx_HAL_Driver/Src/stm32f4xx_ll_usb.c ****   return ((USBx->GINTSTS) & 0x1U);
1304:Drivers/STM32F4xx_HAL_Driver/Src/stm32f4xx_ll_usb.c **** }
1305:Drivers/STM32F4xx_HAL_Driver/Src/stm32f4xx_ll_usb.c **** 
1306:Drivers/STM32F4xx_HAL_Driver/Src/stm32f4xx_ll_usb.c **** /**
1307:Drivers/STM32F4xx_HAL_Driver/Src/stm32f4xx_ll_usb.c ****   * @brief  Activate EP0 for Setup transactions
1308:Drivers/STM32F4xx_HAL_Driver/Src/stm32f4xx_ll_usb.c ****   * @param  USBx  Selected device
1309:Drivers/STM32F4xx_HAL_Driver/Src/stm32f4xx_ll_usb.c ****   * @retval HAL status
1310:Drivers/STM32F4xx_HAL_Driver/Src/stm32f4xx_ll_usb.c ****   */
1311:Drivers/STM32F4xx_HAL_Driver/Src/stm32f4xx_ll_usb.c **** HAL_StatusTypeDef  USB_ActivateSetup(USB_OTG_GlobalTypeDef *USBx)
1312:Drivers/STM32F4xx_HAL_Driver/Src/stm32f4xx_ll_usb.c **** {
1313:Drivers/STM32F4xx_HAL_Driver/Src/stm32f4xx_ll_usb.c ****   uint32_t USBx_BASE = (uint32_t)USBx;
1314:Drivers/STM32F4xx_HAL_Driver/Src/stm32f4xx_ll_usb.c **** 
1315:Drivers/STM32F4xx_HAL_Driver/Src/stm32f4xx_ll_usb.c ****   /* Set the MPS of the IN EP0 to 64 bytes */
1316:Drivers/STM32F4xx_HAL_Driver/Src/stm32f4xx_ll_usb.c ****   USBx_INEP(0U)->DIEPCTL &= ~USB_OTG_DIEPCTL_MPSIZ;
1317:Drivers/STM32F4xx_HAL_Driver/Src/stm32f4xx_ll_usb.c **** 
1318:Drivers/STM32F4xx_HAL_Driver/Src/stm32f4xx_ll_usb.c ****   USBx_DEVICE->DCTL |= USB_OTG_DCTL_CGINAK;
1319:Drivers/STM32F4xx_HAL_Driver/Src/stm32f4xx_ll_usb.c **** 
1320:Drivers/STM32F4xx_HAL_Driver/Src/stm32f4xx_ll_usb.c ****   return HAL_OK;
1321:Drivers/STM32F4xx_HAL_Driver/Src/stm32f4xx_ll_usb.c **** }
1322:Drivers/STM32F4xx_HAL_Driver/Src/stm32f4xx_ll_usb.c **** 
1323:Drivers/STM32F4xx_HAL_Driver/Src/stm32f4xx_ll_usb.c **** /**
1324:Drivers/STM32F4xx_HAL_Driver/Src/stm32f4xx_ll_usb.c ****   * @brief  Prepare the EP0 to start the first control setup
1325:Drivers/STM32F4xx_HAL_Driver/Src/stm32f4xx_ll_usb.c ****   * @param  USBx  Selected device
1326:Drivers/STM32F4xx_HAL_Driver/Src/stm32f4xx_ll_usb.c ****   * @param  dma USB dma enabled or disabled
1327:Drivers/STM32F4xx_HAL_Driver/Src/stm32f4xx_ll_usb.c ****   *          This parameter can be one of these values:
1328:Drivers/STM32F4xx_HAL_Driver/Src/stm32f4xx_ll_usb.c ****   *           0 : DMA feature not used
1329:Drivers/STM32F4xx_HAL_Driver/Src/stm32f4xx_ll_usb.c ****   *           1 : DMA feature used
1330:Drivers/STM32F4xx_HAL_Driver/Src/stm32f4xx_ll_usb.c ****   * @param  psetup  pointer to setup packet
1331:Drivers/STM32F4xx_HAL_Driver/Src/stm32f4xx_ll_usb.c ****   * @retval HAL status
1332:Drivers/STM32F4xx_HAL_Driver/Src/stm32f4xx_ll_usb.c ****   */
1333:Drivers/STM32F4xx_HAL_Driver/Src/stm32f4xx_ll_usb.c **** HAL_StatusTypeDef USB_EP0_OutStart(USB_OTG_GlobalTypeDef *USBx, uint8_t dma, uint8_t *psetup)
1334:Drivers/STM32F4xx_HAL_Driver/Src/stm32f4xx_ll_usb.c **** {
1335:Drivers/STM32F4xx_HAL_Driver/Src/stm32f4xx_ll_usb.c ****   uint32_t USBx_BASE = (uint32_t)USBx;
1336:Drivers/STM32F4xx_HAL_Driver/Src/stm32f4xx_ll_usb.c ****   uint32_t gSNPSiD = *(__IO uint32_t *)(&USBx->CID + 0x1U);
1337:Drivers/STM32F4xx_HAL_Driver/Src/stm32f4xx_ll_usb.c **** 
1338:Drivers/STM32F4xx_HAL_Driver/Src/stm32f4xx_ll_usb.c ****   if (gSNPSiD > USB_OTG_CORE_ID_300A)
1339:Drivers/STM32F4xx_HAL_Driver/Src/stm32f4xx_ll_usb.c ****   {
1340:Drivers/STM32F4xx_HAL_Driver/Src/stm32f4xx_ll_usb.c ****     if ((USBx_OUTEP(0U)->DOEPCTL & USB_OTG_DOEPCTL_EPENA) == USB_OTG_DOEPCTL_EPENA)
1341:Drivers/STM32F4xx_HAL_Driver/Src/stm32f4xx_ll_usb.c ****     {
ARM GAS  /tmp/ccSVR7EX.s 			page 25


1342:Drivers/STM32F4xx_HAL_Driver/Src/stm32f4xx_ll_usb.c ****       return HAL_OK;
1343:Drivers/STM32F4xx_HAL_Driver/Src/stm32f4xx_ll_usb.c ****     }
1344:Drivers/STM32F4xx_HAL_Driver/Src/stm32f4xx_ll_usb.c ****   }
1345:Drivers/STM32F4xx_HAL_Driver/Src/stm32f4xx_ll_usb.c **** 
1346:Drivers/STM32F4xx_HAL_Driver/Src/stm32f4xx_ll_usb.c ****   USBx_OUTEP(0U)->DOEPTSIZ = 0U;
1347:Drivers/STM32F4xx_HAL_Driver/Src/stm32f4xx_ll_usb.c ****   USBx_OUTEP(0U)->DOEPTSIZ |= (USB_OTG_DOEPTSIZ_PKTCNT & (1U << 19));
1348:Drivers/STM32F4xx_HAL_Driver/Src/stm32f4xx_ll_usb.c ****   USBx_OUTEP(0U)->DOEPTSIZ |= (3U * 8U);
1349:Drivers/STM32F4xx_HAL_Driver/Src/stm32f4xx_ll_usb.c ****   USBx_OUTEP(0U)->DOEPTSIZ |=  USB_OTG_DOEPTSIZ_STUPCNT;
1350:Drivers/STM32F4xx_HAL_Driver/Src/stm32f4xx_ll_usb.c **** 
1351:Drivers/STM32F4xx_HAL_Driver/Src/stm32f4xx_ll_usb.c ****   if (dma == 1U)
1352:Drivers/STM32F4xx_HAL_Driver/Src/stm32f4xx_ll_usb.c ****   {
1353:Drivers/STM32F4xx_HAL_Driver/Src/stm32f4xx_ll_usb.c ****     USBx_OUTEP(0U)->DOEPDMA = (uint32_t)psetup;
1354:Drivers/STM32F4xx_HAL_Driver/Src/stm32f4xx_ll_usb.c ****     /* EP enable */
1355:Drivers/STM32F4xx_HAL_Driver/Src/stm32f4xx_ll_usb.c ****     USBx_OUTEP(0U)->DOEPCTL |= USB_OTG_DOEPCTL_EPENA | USB_OTG_DOEPCTL_USBAEP;
1356:Drivers/STM32F4xx_HAL_Driver/Src/stm32f4xx_ll_usb.c ****   }
1357:Drivers/STM32F4xx_HAL_Driver/Src/stm32f4xx_ll_usb.c **** 
1358:Drivers/STM32F4xx_HAL_Driver/Src/stm32f4xx_ll_usb.c ****   return HAL_OK;
1359:Drivers/STM32F4xx_HAL_Driver/Src/stm32f4xx_ll_usb.c **** }
1360:Drivers/STM32F4xx_HAL_Driver/Src/stm32f4xx_ll_usb.c **** 
1361:Drivers/STM32F4xx_HAL_Driver/Src/stm32f4xx_ll_usb.c **** /**
1362:Drivers/STM32F4xx_HAL_Driver/Src/stm32f4xx_ll_usb.c ****   * @brief  Reset the USB Core (needed after USB clock settings change)
1363:Drivers/STM32F4xx_HAL_Driver/Src/stm32f4xx_ll_usb.c ****   * @param  USBx  Selected device
1364:Drivers/STM32F4xx_HAL_Driver/Src/stm32f4xx_ll_usb.c ****   * @retval HAL status
1365:Drivers/STM32F4xx_HAL_Driver/Src/stm32f4xx_ll_usb.c ****   */
1366:Drivers/STM32F4xx_HAL_Driver/Src/stm32f4xx_ll_usb.c **** static HAL_StatusTypeDef USB_CoreReset(USB_OTG_GlobalTypeDef *USBx)
1367:Drivers/STM32F4xx_HAL_Driver/Src/stm32f4xx_ll_usb.c **** {
  29              		.loc 1 1367 1 view -0
  30              		.cfi_startproc
  31              		@ args = 0, pretend = 0, frame = 8
  32              		@ frame_needed = 0, uses_anonymous_args = 0
  33              		@ link register save eliminated.
  34              		.loc 1 1367 1 is_stmt 0 view .LVU1
  35 0000 82B0     		sub	sp, sp, #8
  36              	.LCFI0:
  37              		.cfi_def_cfa_offset 8
1368:Drivers/STM32F4xx_HAL_Driver/Src/stm32f4xx_ll_usb.c ****   __IO uint32_t count = 0U;
  38              		.loc 1 1368 3 is_stmt 1 view .LVU2
  39              		.loc 1 1368 17 is_stmt 0 view .LVU3
  40 0002 0023     		movs	r3, #0
  41 0004 0193     		str	r3, [sp, #4]
  42              	.L3:
1369:Drivers/STM32F4xx_HAL_Driver/Src/stm32f4xx_ll_usb.c **** 
1370:Drivers/STM32F4xx_HAL_Driver/Src/stm32f4xx_ll_usb.c ****   /* Wait for AHB master IDLE state. */
1371:Drivers/STM32F4xx_HAL_Driver/Src/stm32f4xx_ll_usb.c ****   do
  43              		.loc 1 1371 3 is_stmt 1 view .LVU4
1372:Drivers/STM32F4xx_HAL_Driver/Src/stm32f4xx_ll_usb.c ****   {
1373:Drivers/STM32F4xx_HAL_Driver/Src/stm32f4xx_ll_usb.c ****     if (++count > 200000U)
  44              		.loc 1 1373 5 view .LVU5
  45              		.loc 1 1373 9 is_stmt 0 view .LVU6
  46 0006 019B     		ldr	r3, [sp, #4]
  47 0008 0133     		adds	r3, r3, #1
  48              		.loc 1 1373 8 view .LVU7
  49 000a 0193     		str	r3, [sp, #4]
  50 000c 0E4A     		ldr	r2, .L8
  51 000e 9342     		cmp	r3, r2
  52 0010 14D8     		bhi	.L5
1374:Drivers/STM32F4xx_HAL_Driver/Src/stm32f4xx_ll_usb.c ****     {
ARM GAS  /tmp/ccSVR7EX.s 			page 26


1375:Drivers/STM32F4xx_HAL_Driver/Src/stm32f4xx_ll_usb.c ****       return HAL_TIMEOUT;
1376:Drivers/STM32F4xx_HAL_Driver/Src/stm32f4xx_ll_usb.c ****     }
1377:Drivers/STM32F4xx_HAL_Driver/Src/stm32f4xx_ll_usb.c ****   } while ((USBx->GRSTCTL & USB_OTG_GRSTCTL_AHBIDL) == 0U);
  53              		.loc 1 1377 11 is_stmt 1 view .LVU8
  54              		.loc 1 1377 17 is_stmt 0 view .LVU9
  55 0012 0369     		ldr	r3, [r0, #16]
  56              		.loc 1 1377 3 view .LVU10
  57 0014 002B     		cmp	r3, #0
  58 0016 F6DA     		bge	.L3
1378:Drivers/STM32F4xx_HAL_Driver/Src/stm32f4xx_ll_usb.c **** 
1379:Drivers/STM32F4xx_HAL_Driver/Src/stm32f4xx_ll_usb.c ****   /* Core Soft Reset */
1380:Drivers/STM32F4xx_HAL_Driver/Src/stm32f4xx_ll_usb.c ****   count = 0U;
  59              		.loc 1 1380 3 is_stmt 1 view .LVU11
  60              		.loc 1 1380 9 is_stmt 0 view .LVU12
  61 0018 0023     		movs	r3, #0
  62 001a 0193     		str	r3, [sp, #4]
1381:Drivers/STM32F4xx_HAL_Driver/Src/stm32f4xx_ll_usb.c ****   USBx->GRSTCTL |= USB_OTG_GRSTCTL_CSRST;
  63              		.loc 1 1381 3 is_stmt 1 view .LVU13
  64              		.loc 1 1381 17 is_stmt 0 view .LVU14
  65 001c 0369     		ldr	r3, [r0, #16]
  66 001e 43F00103 		orr	r3, r3, #1
  67 0022 0361     		str	r3, [r0, #16]
  68              	.L4:
1382:Drivers/STM32F4xx_HAL_Driver/Src/stm32f4xx_ll_usb.c **** 
1383:Drivers/STM32F4xx_HAL_Driver/Src/stm32f4xx_ll_usb.c ****   do
  69              		.loc 1 1383 3 is_stmt 1 view .LVU15
1384:Drivers/STM32F4xx_HAL_Driver/Src/stm32f4xx_ll_usb.c ****   {
1385:Drivers/STM32F4xx_HAL_Driver/Src/stm32f4xx_ll_usb.c ****     if (++count > 200000U)
  70              		.loc 1 1385 5 view .LVU16
  71              		.loc 1 1385 9 is_stmt 0 view .LVU17
  72 0024 019B     		ldr	r3, [sp, #4]
  73 0026 0133     		adds	r3, r3, #1
  74              		.loc 1 1385 8 view .LVU18
  75 0028 0193     		str	r3, [sp, #4]
  76 002a 074A     		ldr	r2, .L8
  77 002c 9342     		cmp	r3, r2
  78 002e 08D8     		bhi	.L6
1386:Drivers/STM32F4xx_HAL_Driver/Src/stm32f4xx_ll_usb.c ****     {
1387:Drivers/STM32F4xx_HAL_Driver/Src/stm32f4xx_ll_usb.c ****       return HAL_TIMEOUT;
1388:Drivers/STM32F4xx_HAL_Driver/Src/stm32f4xx_ll_usb.c ****     }
1389:Drivers/STM32F4xx_HAL_Driver/Src/stm32f4xx_ll_usb.c ****   } while ((USBx->GRSTCTL & USB_OTG_GRSTCTL_CSRST) == USB_OTG_GRSTCTL_CSRST);
  79              		.loc 1 1389 11 is_stmt 1 view .LVU19
  80              		.loc 1 1389 17 is_stmt 0 view .LVU20
  81 0030 0369     		ldr	r3, [r0, #16]
  82              		.loc 1 1389 3 view .LVU21
  83 0032 13F0010F 		tst	r3, #1
  84 0036 F5D1     		bne	.L4
1390:Drivers/STM32F4xx_HAL_Driver/Src/stm32f4xx_ll_usb.c **** 
1391:Drivers/STM32F4xx_HAL_Driver/Src/stm32f4xx_ll_usb.c ****   return HAL_OK;
  85              		.loc 1 1391 10 view .LVU22
  86 0038 0020     		movs	r0, #0
  87              	.LVL1:
  88              		.loc 1 1391 10 view .LVU23
  89 003a 00E0     		b	.L2
  90              	.LVL2:
  91              	.L5:
1375:Drivers/STM32F4xx_HAL_Driver/Src/stm32f4xx_ll_usb.c ****     }
ARM GAS  /tmp/ccSVR7EX.s 			page 27


  92              		.loc 1 1375 14 view .LVU24
  93 003c 0320     		movs	r0, #3
  94              	.LVL3:
  95              	.L2:
1392:Drivers/STM32F4xx_HAL_Driver/Src/stm32f4xx_ll_usb.c **** }
  96              		.loc 1 1392 1 view .LVU25
  97 003e 02B0     		add	sp, sp, #8
  98              	.LCFI1:
  99              		.cfi_remember_state
 100              		.cfi_def_cfa_offset 0
 101              		@ sp needed
 102 0040 7047     		bx	lr
 103              	.LVL4:
 104              	.L6:
 105              	.LCFI2:
 106              		.cfi_restore_state
1387:Drivers/STM32F4xx_HAL_Driver/Src/stm32f4xx_ll_usb.c ****     }
 107              		.loc 1 1387 14 view .LVU26
 108 0042 0320     		movs	r0, #3
 109              	.LVL5:
1387:Drivers/STM32F4xx_HAL_Driver/Src/stm32f4xx_ll_usb.c ****     }
 110              		.loc 1 1387 14 view .LVU27
 111 0044 FBE7     		b	.L2
 112              	.L9:
 113 0046 00BF     		.align	2
 114              	.L8:
 115 0048 400D0300 		.word	200000
 116              		.cfi_endproc
 117              	.LFE163:
 119              		.section	.text.USB_CoreInit,"ax",%progbits
 120              		.align	1
 121              		.global	USB_CoreInit
 122              		.syntax unified
 123              		.thumb
 124              		.thumb_func
 125              		.fpu fpv4-sp-d16
 127              	USB_CoreInit:
 128              	.LVL6:
 129              	.LFB130:
  83:Drivers/STM32F4xx_HAL_Driver/Src/stm32f4xx_ll_usb.c ****   HAL_StatusTypeDef ret;
 130              		.loc 1 83 1 is_stmt 1 view -0
 131              		.cfi_startproc
 132              		@ args = 56, pretend = 16, frame = 0
 133              		@ frame_needed = 0, uses_anonymous_args = 0
  83:Drivers/STM32F4xx_HAL_Driver/Src/stm32f4xx_ll_usb.c ****   HAL_StatusTypeDef ret;
 134              		.loc 1 83 1 is_stmt 0 view .LVU29
 135 0000 84B0     		sub	sp, sp, #16
 136              	.LCFI3:
 137              		.cfi_def_cfa_offset 16
 138 0002 10B5     		push	{r4, lr}
 139              	.LCFI4:
 140              		.cfi_def_cfa_offset 24
 141              		.cfi_offset 4, -24
 142              		.cfi_offset 14, -20
 143 0004 0446     		mov	r4, r0
 144 0006 03A8     		add	r0, sp, #12
 145              	.LVL7:
ARM GAS  /tmp/ccSVR7EX.s 			page 28


  83:Drivers/STM32F4xx_HAL_Driver/Src/stm32f4xx_ll_usb.c ****   HAL_StatusTypeDef ret;
 146              		.loc 1 83 1 view .LVU30
 147 0008 80E80E00 		stm	r0, {r1, r2, r3}
  84:Drivers/STM32F4xx_HAL_Driver/Src/stm32f4xx_ll_usb.c **** 
 148              		.loc 1 84 3 is_stmt 1 view .LVU31
  86:Drivers/STM32F4xx_HAL_Driver/Src/stm32f4xx_ll_usb.c ****   {
 149              		.loc 1 86 3 view .LVU32
  86:Drivers/STM32F4xx_HAL_Driver/Src/stm32f4xx_ll_usb.c ****   {
 150              		.loc 1 86 10 is_stmt 0 view .LVU33
 151 000c 089B     		ldr	r3, [sp, #32]
  86:Drivers/STM32F4xx_HAL_Driver/Src/stm32f4xx_ll_usb.c ****   {
 152              		.loc 1 86 6 view .LVU34
 153 000e 012B     		cmp	r3, #1
 154 0010 1FD1     		bne	.L11
  88:Drivers/STM32F4xx_HAL_Driver/Src/stm32f4xx_ll_usb.c **** 
 155              		.loc 1 88 5 is_stmt 1 view .LVU35
  88:Drivers/STM32F4xx_HAL_Driver/Src/stm32f4xx_ll_usb.c **** 
 156              		.loc 1 88 17 is_stmt 0 view .LVU36
 157 0012 A36B     		ldr	r3, [r4, #56]
 158 0014 23F48033 		bic	r3, r3, #65536
 159 0018 A363     		str	r3, [r4, #56]
  91:Drivers/STM32F4xx_HAL_Driver/Src/stm32f4xx_ll_usb.c **** 
 160              		.loc 1 91 5 is_stmt 1 view .LVU37
  91:Drivers/STM32F4xx_HAL_Driver/Src/stm32f4xx_ll_usb.c **** 
 161              		.loc 1 91 19 is_stmt 0 view .LVU38
 162 001a E368     		ldr	r3, [r4, #12]
 163 001c 23F48403 		bic	r3, r3, #4325376
 164 0020 23F04003 		bic	r3, r3, #64
 165 0024 E360     		str	r3, [r4, #12]
  94:Drivers/STM32F4xx_HAL_Driver/Src/stm32f4xx_ll_usb.c ****     if (cfg.use_external_vbus == 1U)
 166              		.loc 1 94 5 is_stmt 1 view .LVU39
  94:Drivers/STM32F4xx_HAL_Driver/Src/stm32f4xx_ll_usb.c ****     if (cfg.use_external_vbus == 1U)
 167              		.loc 1 94 19 is_stmt 0 view .LVU40
 168 0026 E368     		ldr	r3, [r4, #12]
 169 0028 23F44013 		bic	r3, r3, #3145728
 170 002c E360     		str	r3, [r4, #12]
  95:Drivers/STM32F4xx_HAL_Driver/Src/stm32f4xx_ll_usb.c ****     {
 171              		.loc 1 95 5 is_stmt 1 view .LVU41
  95:Drivers/STM32F4xx_HAL_Driver/Src/stm32f4xx_ll_usb.c ****     {
 172              		.loc 1 95 12 is_stmt 0 view .LVU42
 173 002e 0F9B     		ldr	r3, [sp, #60]
  95:Drivers/STM32F4xx_HAL_Driver/Src/stm32f4xx_ll_usb.c ****     {
 174              		.loc 1 95 8 view .LVU43
 175 0030 012B     		cmp	r3, #1
 176 0032 09D0     		beq	.L17
 177              	.L12:
 101:Drivers/STM32F4xx_HAL_Driver/Src/stm32f4xx_ll_usb.c ****   }
 178              		.loc 1 101 5 is_stmt 1 view .LVU44
 101:Drivers/STM32F4xx_HAL_Driver/Src/stm32f4xx_ll_usb.c ****   }
 179              		.loc 1 101 11 is_stmt 0 view .LVU45
 180 0034 2046     		mov	r0, r4
 181 0036 FFF7FEFF 		bl	USB_CoreReset
 182              	.LVL8:
 183              	.L13:
 123:Drivers/STM32F4xx_HAL_Driver/Src/stm32f4xx_ll_usb.c ****   {
 184              		.loc 1 123 3 is_stmt 1 view .LVU46
 123:Drivers/STM32F4xx_HAL_Driver/Src/stm32f4xx_ll_usb.c ****   {
ARM GAS  /tmp/ccSVR7EX.s 			page 29


 185              		.loc 1 123 10 is_stmt 0 view .LVU47
 186 003a 069B     		ldr	r3, [sp, #24]
 123:Drivers/STM32F4xx_HAL_Driver/Src/stm32f4xx_ll_usb.c ****   {
 187              		.loc 1 123 6 view .LVU48
 188 003c 012B     		cmp	r3, #1
 189 003e 1BD0     		beq	.L18
 190              	.L15:
 129:Drivers/STM32F4xx_HAL_Driver/Src/stm32f4xx_ll_usb.c **** }
 191              		.loc 1 129 3 is_stmt 1 view .LVU49
 130:Drivers/STM32F4xx_HAL_Driver/Src/stm32f4xx_ll_usb.c **** 
 192              		.loc 1 130 1 is_stmt 0 view .LVU50
 193 0040 BDE81040 		pop	{r4, lr}
 194              	.LCFI5:
 195              		.cfi_remember_state
 196              		.cfi_restore 14
 197              		.cfi_restore 4
 198              		.cfi_def_cfa_offset 16
 199              	.LVL9:
 130:Drivers/STM32F4xx_HAL_Driver/Src/stm32f4xx_ll_usb.c **** 
 200              		.loc 1 130 1 view .LVU51
 201 0044 04B0     		add	sp, sp, #16
 202              	.LCFI6:
 203              		.cfi_def_cfa_offset 0
 204 0046 7047     		bx	lr
 205              	.LVL10:
 206              	.L17:
 207              	.LCFI7:
 208              		.cfi_restore_state
  97:Drivers/STM32F4xx_HAL_Driver/Src/stm32f4xx_ll_usb.c ****     }
 209              		.loc 1 97 7 is_stmt 1 view .LVU52
  97:Drivers/STM32F4xx_HAL_Driver/Src/stm32f4xx_ll_usb.c ****     }
 210              		.loc 1 97 21 is_stmt 0 view .LVU53
 211 0048 E368     		ldr	r3, [r4, #12]
 212 004a 43F48013 		orr	r3, r3, #1048576
 213 004e E360     		str	r3, [r4, #12]
 214 0050 F0E7     		b	.L12
 215              	.L11:
 106:Drivers/STM32F4xx_HAL_Driver/Src/stm32f4xx_ll_usb.c **** 
 216              		.loc 1 106 5 is_stmt 1 view .LVU54
 106:Drivers/STM32F4xx_HAL_Driver/Src/stm32f4xx_ll_usb.c **** 
 217              		.loc 1 106 19 is_stmt 0 view .LVU55
 218 0052 E368     		ldr	r3, [r4, #12]
 219 0054 43F04003 		orr	r3, r3, #64
 220 0058 E360     		str	r3, [r4, #12]
 109:Drivers/STM32F4xx_HAL_Driver/Src/stm32f4xx_ll_usb.c **** 
 221              		.loc 1 109 5 is_stmt 1 view .LVU56
 109:Drivers/STM32F4xx_HAL_Driver/Src/stm32f4xx_ll_usb.c **** 
 222              		.loc 1 109 11 is_stmt 0 view .LVU57
 223 005a 2046     		mov	r0, r4
 224 005c FFF7FEFF 		bl	USB_CoreReset
 225              	.LVL11:
 111:Drivers/STM32F4xx_HAL_Driver/Src/stm32f4xx_ll_usb.c ****     {
 226              		.loc 1 111 5 is_stmt 1 view .LVU58
 111:Drivers/STM32F4xx_HAL_Driver/Src/stm32f4xx_ll_usb.c ****     {
 227              		.loc 1 111 12 is_stmt 0 view .LVU59
 228 0060 0C9B     		ldr	r3, [sp, #48]
 111:Drivers/STM32F4xx_HAL_Driver/Src/stm32f4xx_ll_usb.c ****     {
ARM GAS  /tmp/ccSVR7EX.s 			page 30


 229              		.loc 1 111 8 view .LVU60
 230 0062 23B9     		cbnz	r3, .L14
 114:Drivers/STM32F4xx_HAL_Driver/Src/stm32f4xx_ll_usb.c ****     }
 231              		.loc 1 114 7 is_stmt 1 view .LVU61
 114:Drivers/STM32F4xx_HAL_Driver/Src/stm32f4xx_ll_usb.c ****     }
 232              		.loc 1 114 19 is_stmt 0 view .LVU62
 233 0064 A36B     		ldr	r3, [r4, #56]
 234 0066 43F48033 		orr	r3, r3, #65536
 235 006a A363     		str	r3, [r4, #56]
 236 006c E5E7     		b	.L13
 237              	.L14:
 119:Drivers/STM32F4xx_HAL_Driver/Src/stm32f4xx_ll_usb.c ****     }
 238              		.loc 1 119 7 is_stmt 1 view .LVU63
 119:Drivers/STM32F4xx_HAL_Driver/Src/stm32f4xx_ll_usb.c ****     }
 239              		.loc 1 119 19 is_stmt 0 view .LVU64
 240 006e A36B     		ldr	r3, [r4, #56]
 241 0070 23F48033 		bic	r3, r3, #65536
 242 0074 A363     		str	r3, [r4, #56]
 243 0076 E0E7     		b	.L13
 244              	.L18:
 125:Drivers/STM32F4xx_HAL_Driver/Src/stm32f4xx_ll_usb.c ****     USBx->GAHBCFG |= USB_OTG_GAHBCFG_DMAEN;
 245              		.loc 1 125 5 is_stmt 1 view .LVU65
 125:Drivers/STM32F4xx_HAL_Driver/Src/stm32f4xx_ll_usb.c ****     USBx->GAHBCFG |= USB_OTG_GAHBCFG_DMAEN;
 246              		.loc 1 125 19 is_stmt 0 view .LVU66
 247 0078 A368     		ldr	r3, [r4, #8]
 248 007a 43F00603 		orr	r3, r3, #6
 249 007e A360     		str	r3, [r4, #8]
 126:Drivers/STM32F4xx_HAL_Driver/Src/stm32f4xx_ll_usb.c ****   }
 250              		.loc 1 126 5 is_stmt 1 view .LVU67
 126:Drivers/STM32F4xx_HAL_Driver/Src/stm32f4xx_ll_usb.c ****   }
 251              		.loc 1 126 19 is_stmt 0 view .LVU68
 252 0080 A368     		ldr	r3, [r4, #8]
 253 0082 43F02003 		orr	r3, r3, #32
 254 0086 A360     		str	r3, [r4, #8]
 255 0088 DAE7     		b	.L15
 256              		.cfi_endproc
 257              	.LFE130:
 259              		.section	.text.USB_SetTurnaroundTime,"ax",%progbits
 260              		.align	1
 261              		.global	USB_SetTurnaroundTime
 262              		.syntax unified
 263              		.thumb
 264              		.thumb_func
 265              		.fpu fpv4-sp-d16
 267              	USB_SetTurnaroundTime:
 268              	.LVL12:
 269              	.LFB131:
 141:Drivers/STM32F4xx_HAL_Driver/Src/stm32f4xx_ll_usb.c ****   uint32_t UsbTrd;
 270              		.loc 1 141 1 is_stmt 1 view -0
 271              		.cfi_startproc
 272              		@ args = 0, pretend = 0, frame = 0
 273              		@ frame_needed = 0, uses_anonymous_args = 0
 274              		@ link register save eliminated.
 142:Drivers/STM32F4xx_HAL_Driver/Src/stm32f4xx_ll_usb.c **** 
 275              		.loc 1 142 3 view .LVU70
 148:Drivers/STM32F4xx_HAL_Driver/Src/stm32f4xx_ll_usb.c ****   {
 276              		.loc 1 148 3 view .LVU71
ARM GAS  /tmp/ccSVR7EX.s 			page 31


 148:Drivers/STM32F4xx_HAL_Driver/Src/stm32f4xx_ll_usb.c ****   {
 277              		.loc 1 148 6 is_stmt 0 view .LVU72
 278 0000 022A     		cmp	r2, #2
 279 0002 0AD0     		beq	.L31
 203:Drivers/STM32F4xx_HAL_Driver/Src/stm32f4xx_ll_usb.c ****   }
 280              		.loc 1 203 12 view .LVU73
 281 0004 0921     		movs	r1, #9
 282              	.LVL13:
 283              	.L20:
 210:Drivers/STM32F4xx_HAL_Driver/Src/stm32f4xx_ll_usb.c ****   USBx->GUSBCFG |= (uint32_t)((UsbTrd << 10) & USB_OTG_GUSBCFG_TRDT);
 284              		.loc 1 210 3 is_stmt 1 view .LVU74
 210:Drivers/STM32F4xx_HAL_Driver/Src/stm32f4xx_ll_usb.c ****   USBx->GUSBCFG |= (uint32_t)((UsbTrd << 10) & USB_OTG_GUSBCFG_TRDT);
 285              		.loc 1 210 17 is_stmt 0 view .LVU75
 286 0006 C268     		ldr	r2, [r0, #12]
 287 0008 22F47052 		bic	r2, r2, #15360
 288 000c C260     		str	r2, [r0, #12]
 211:Drivers/STM32F4xx_HAL_Driver/Src/stm32f4xx_ll_usb.c **** 
 289              		.loc 1 211 3 is_stmt 1 view .LVU76
 211:Drivers/STM32F4xx_HAL_Driver/Src/stm32f4xx_ll_usb.c **** 
 290              		.loc 1 211 17 is_stmt 0 view .LVU77
 291 000e C368     		ldr	r3, [r0, #12]
 292 0010 43EA8123 		orr	r3, r3, r1, lsl #10
 293 0014 C360     		str	r3, [r0, #12]
 213:Drivers/STM32F4xx_HAL_Driver/Src/stm32f4xx_ll_usb.c **** }
 294              		.loc 1 213 3 is_stmt 1 view .LVU78
 214:Drivers/STM32F4xx_HAL_Driver/Src/stm32f4xx_ll_usb.c **** 
 295              		.loc 1 214 1 is_stmt 0 view .LVU79
 296 0016 0020     		movs	r0, #0
 297              	.LVL14:
 214:Drivers/STM32F4xx_HAL_Driver/Src/stm32f4xx_ll_usb.c **** 
 298              		.loc 1 214 1 view .LVU80
 299 0018 7047     		bx	lr
 300              	.LVL15:
 301              	.L31:
 150:Drivers/STM32F4xx_HAL_Driver/Src/stm32f4xx_ll_usb.c ****     {
 302              		.loc 1 150 5 is_stmt 1 view .LVU81
 150:Drivers/STM32F4xx_HAL_Driver/Src/stm32f4xx_ll_usb.c ****     {
 303              		.loc 1 150 29 is_stmt 0 view .LVU82
 304 001a 234B     		ldr	r3, .L32
 305 001c 0B44     		add	r3, r3, r1
 150:Drivers/STM32F4xx_HAL_Driver/Src/stm32f4xx_ll_usb.c ****     {
 306              		.loc 1 150 8 view .LVU83
 307 001e 234A     		ldr	r2, .L32+4
 308              	.LVL16:
 150:Drivers/STM32F4xx_HAL_Driver/Src/stm32f4xx_ll_usb.c ****     {
 309              		.loc 1 150 8 view .LVU84
 310 0020 9342     		cmp	r3, r2
 311 0022 2FD9     		bls	.L22
 155:Drivers/STM32F4xx_HAL_Driver/Src/stm32f4xx_ll_usb.c ****     {
 312              		.loc 1 155 10 is_stmt 1 view .LVU85
 155:Drivers/STM32F4xx_HAL_Driver/Src/stm32f4xx_ll_usb.c ****     {
 313              		.loc 1 155 34 is_stmt 0 view .LVU86
 314 0024 224B     		ldr	r3, .L32+8
 315 0026 0B44     		add	r3, r3, r1
 155:Drivers/STM32F4xx_HAL_Driver/Src/stm32f4xx_ll_usb.c ****     {
 316              		.loc 1 155 13 view .LVU87
 317 0028 224A     		ldr	r2, .L32+12
ARM GAS  /tmp/ccSVR7EX.s 			page 32


 318 002a 9342     		cmp	r3, r2
 319 002c 2CD9     		bls	.L23
 160:Drivers/STM32F4xx_HAL_Driver/Src/stm32f4xx_ll_usb.c ****     {
 320              		.loc 1 160 10 is_stmt 1 view .LVU88
 160:Drivers/STM32F4xx_HAL_Driver/Src/stm32f4xx_ll_usb.c ****     {
 321              		.loc 1 160 34 is_stmt 0 view .LVU89
 322 002e A1F57403 		sub	r3, r1, #15990784
 323 0032 A3F51053 		sub	r3, r3, #9216
 160:Drivers/STM32F4xx_HAL_Driver/Src/stm32f4xx_ll_usb.c ****     {
 324              		.loc 1 160 13 view .LVU90
 325 0036 204A     		ldr	r2, .L32+16
 326 0038 9342     		cmp	r3, r2
 327 003a 27D9     		bls	.L24
 165:Drivers/STM32F4xx_HAL_Driver/Src/stm32f4xx_ll_usb.c ****     {
 328              		.loc 1 165 10 is_stmt 1 view .LVU91
 165:Drivers/STM32F4xx_HAL_Driver/Src/stm32f4xx_ll_usb.c ****     {
 329              		.loc 1 165 34 is_stmt 0 view .LVU92
 330 003c A1F18373 		sub	r3, r1, #17170432
 331 0040 A3F5E743 		sub	r3, r3, #29568
 165:Drivers/STM32F4xx_HAL_Driver/Src/stm32f4xx_ll_usb.c ****     {
 332              		.loc 1 165 13 view .LVU93
 333 0044 1D4A     		ldr	r2, .L32+20
 334 0046 9342     		cmp	r3, r2
 335 0048 22D3     		bcc	.L25
 170:Drivers/STM32F4xx_HAL_Driver/Src/stm32f4xx_ll_usb.c ****     {
 336              		.loc 1 170 10 is_stmt 1 view .LVU94
 170:Drivers/STM32F4xx_HAL_Driver/Src/stm32f4xx_ll_usb.c ****     {
 337              		.loc 1 170 34 is_stmt 0 view .LVU95
 338 004a 1D4B     		ldr	r3, .L32+24
 339 004c 0B44     		add	r3, r3, r1
 170:Drivers/STM32F4xx_HAL_Driver/Src/stm32f4xx_ll_usb.c ****     {
 340              		.loc 1 170 13 view .LVU96
 341 004e 1D4A     		ldr	r2, .L32+28
 342 0050 9342     		cmp	r3, r2
 343 0052 1FD9     		bls	.L26
 175:Drivers/STM32F4xx_HAL_Driver/Src/stm32f4xx_ll_usb.c ****     {
 344              		.loc 1 175 10 is_stmt 1 view .LVU97
 175:Drivers/STM32F4xx_HAL_Driver/Src/stm32f4xx_ll_usb.c ****     {
 345              		.loc 1 175 34 is_stmt 0 view .LVU98
 346 0054 1C4B     		ldr	r3, .L32+32
 347 0056 0B44     		add	r3, r3, r1
 175:Drivers/STM32F4xx_HAL_Driver/Src/stm32f4xx_ll_usb.c ****     {
 348              		.loc 1 175 13 view .LVU99
 349 0058 1C4A     		ldr	r2, .L32+36
 350 005a 9342     		cmp	r3, r2
 351 005c 1CD3     		bcc	.L27
 180:Drivers/STM32F4xx_HAL_Driver/Src/stm32f4xx_ll_usb.c ****     {
 352              		.loc 1 180 10 is_stmt 1 view .LVU100
 180:Drivers/STM32F4xx_HAL_Driver/Src/stm32f4xx_ll_usb.c ****     {
 353              		.loc 1 180 34 is_stmt 0 view .LVU101
 354 005e 1C4B     		ldr	r3, .L32+40
 355 0060 0B44     		add	r3, r3, r1
 180:Drivers/STM32F4xx_HAL_Driver/Src/stm32f4xx_ll_usb.c ****     {
 356              		.loc 1 180 13 view .LVU102
 357 0062 1C4A     		ldr	r2, .L32+44
 358 0064 9342     		cmp	r3, r2
 359 0066 19D3     		bcc	.L28
ARM GAS  /tmp/ccSVR7EX.s 			page 33


 185:Drivers/STM32F4xx_HAL_Driver/Src/stm32f4xx_ll_usb.c ****     {
 360              		.loc 1 185 10 is_stmt 1 view .LVU103
 185:Drivers/STM32F4xx_HAL_Driver/Src/stm32f4xx_ll_usb.c ****     {
 361              		.loc 1 185 34 is_stmt 0 view .LVU104
 362 0068 A1F1B773 		sub	r3, r1, #23986176
 363 006c A3F55853 		sub	r3, r3, #13824
 185:Drivers/STM32F4xx_HAL_Driver/Src/stm32f4xx_ll_usb.c ****     {
 364              		.loc 1 185 13 view .LVU105
 365 0070 194A     		ldr	r2, .L32+48
 366 0072 9342     		cmp	r3, r2
 367 0074 14D3     		bcc	.L29
 190:Drivers/STM32F4xx_HAL_Driver/Src/stm32f4xx_ll_usb.c ****     {
 368              		.loc 1 190 10 is_stmt 1 view .LVU106
 190:Drivers/STM32F4xx_HAL_Driver/Src/stm32f4xx_ll_usb.c ****     {
 369              		.loc 1 190 34 is_stmt 0 view .LVU107
 370 0076 194B     		ldr	r3, .L32+52
 371 0078 0B44     		add	r3, r3, r1
 190:Drivers/STM32F4xx_HAL_Driver/Src/stm32f4xx_ll_usb.c ****     {
 372              		.loc 1 190 13 view .LVU108
 373 007a 194A     		ldr	r2, .L32+56
 374 007c 9342     		cmp	r3, r2
 375 007e 11D2     		bcs	.L30
 193:Drivers/STM32F4xx_HAL_Driver/Src/stm32f4xx_ll_usb.c ****     }
 376              		.loc 1 193 14 view .LVU109
 377 0080 0721     		movs	r1, #7
 378              	.LVL17:
 193:Drivers/STM32F4xx_HAL_Driver/Src/stm32f4xx_ll_usb.c ****     }
 379              		.loc 1 193 14 view .LVU110
 380 0082 C0E7     		b	.L20
 381              	.LVL18:
 382              	.L22:
 153:Drivers/STM32F4xx_HAL_Driver/Src/stm32f4xx_ll_usb.c ****     }
 383              		.loc 1 153 14 view .LVU111
 384 0084 0F21     		movs	r1, #15
 385              	.LVL19:
 153:Drivers/STM32F4xx_HAL_Driver/Src/stm32f4xx_ll_usb.c ****     }
 386              		.loc 1 153 14 view .LVU112
 387 0086 BEE7     		b	.L20
 388              	.LVL20:
 389              	.L23:
 158:Drivers/STM32F4xx_HAL_Driver/Src/stm32f4xx_ll_usb.c ****     }
 390              		.loc 1 158 14 view .LVU113
 391 0088 0E21     		movs	r1, #14
 392              	.LVL21:
 158:Drivers/STM32F4xx_HAL_Driver/Src/stm32f4xx_ll_usb.c ****     }
 393              		.loc 1 158 14 view .LVU114
 394 008a BCE7     		b	.L20
 395              	.LVL22:
 396              	.L24:
 163:Drivers/STM32F4xx_HAL_Driver/Src/stm32f4xx_ll_usb.c ****     }
 397              		.loc 1 163 14 view .LVU115
 398 008c 0D21     		movs	r1, #13
 399              	.LVL23:
 163:Drivers/STM32F4xx_HAL_Driver/Src/stm32f4xx_ll_usb.c ****     }
 400              		.loc 1 163 14 view .LVU116
 401 008e BAE7     		b	.L20
 402              	.LVL24:
ARM GAS  /tmp/ccSVR7EX.s 			page 34


 403              	.L25:
 168:Drivers/STM32F4xx_HAL_Driver/Src/stm32f4xx_ll_usb.c ****     }
 404              		.loc 1 168 14 view .LVU117
 405 0090 0C21     		movs	r1, #12
 406              	.LVL25:
 168:Drivers/STM32F4xx_HAL_Driver/Src/stm32f4xx_ll_usb.c ****     }
 407              		.loc 1 168 14 view .LVU118
 408 0092 B8E7     		b	.L20
 409              	.LVL26:
 410              	.L26:
 173:Drivers/STM32F4xx_HAL_Driver/Src/stm32f4xx_ll_usb.c ****     }
 411              		.loc 1 173 14 view .LVU119
 412 0094 0B21     		movs	r1, #11
 413              	.LVL27:
 173:Drivers/STM32F4xx_HAL_Driver/Src/stm32f4xx_ll_usb.c ****     }
 414              		.loc 1 173 14 view .LVU120
 415 0096 B6E7     		b	.L20
 416              	.LVL28:
 417              	.L27:
 178:Drivers/STM32F4xx_HAL_Driver/Src/stm32f4xx_ll_usb.c ****     }
 418              		.loc 1 178 14 view .LVU121
 419 0098 0A21     		movs	r1, #10
 420              	.LVL29:
 178:Drivers/STM32F4xx_HAL_Driver/Src/stm32f4xx_ll_usb.c ****     }
 421              		.loc 1 178 14 view .LVU122
 422 009a B4E7     		b	.L20
 423              	.LVL30:
 424              	.L28:
 183:Drivers/STM32F4xx_HAL_Driver/Src/stm32f4xx_ll_usb.c ****     }
 425              		.loc 1 183 14 view .LVU123
 426 009c 0921     		movs	r1, #9
 427              	.LVL31:
 183:Drivers/STM32F4xx_HAL_Driver/Src/stm32f4xx_ll_usb.c ****     }
 428              		.loc 1 183 14 view .LVU124
 429 009e B2E7     		b	.L20
 430              	.LVL32:
 431              	.L29:
 188:Drivers/STM32F4xx_HAL_Driver/Src/stm32f4xx_ll_usb.c ****     }
 432              		.loc 1 188 14 view .LVU125
 433 00a0 0821     		movs	r1, #8
 434              	.LVL33:
 188:Drivers/STM32F4xx_HAL_Driver/Src/stm32f4xx_ll_usb.c ****     }
 435              		.loc 1 188 14 view .LVU126
 436 00a2 B0E7     		b	.L20
 437              	.LVL34:
 438              	.L30:
 198:Drivers/STM32F4xx_HAL_Driver/Src/stm32f4xx_ll_usb.c ****     }
 439              		.loc 1 198 14 view .LVU127
 440 00a4 0621     		movs	r1, #6
 441              	.LVL35:
 198:Drivers/STM32F4xx_HAL_Driver/Src/stm32f4xx_ll_usb.c ****     }
 442              		.loc 1 198 14 view .LVU128
 443 00a6 AEE7     		b	.L20
 444              	.L33:
 445              		.align	2
 446              	.L32:
 447 00a8 405327FF 		.word	-14200000
ARM GAS  /tmp/ccSVR7EX.s 			page 35


 448 00ac FF340C00 		.word	799999
 449 00b0 401E1BFF 		.word	-15000000
 450 00b4 3F420F00 		.word	999999
 451 00b8 7F4F1200 		.word	1199999
 452 00bc 20D61300 		.word	1300000
 453 00c0 60B6E5FE 		.word	-18500000
 454 00c4 5FE31600 		.word	1499999
 455 00c8 00D3CEFE 		.word	-20000000
 456 00cc 40771B00 		.word	1800000
 457 00d0 C05BB3FE 		.word	-21800000
 458 00d4 C0912100 		.word	2200000
 459 00d8 20753800 		.word	3700000
 460 00dc E05459FE 		.word	-27700000
 461 00e0 E09C4100 		.word	4300000
 462              		.cfi_endproc
 463              	.LFE131:
 465              		.section	.text.USB_EnableGlobalInt,"ax",%progbits
 466              		.align	1
 467              		.global	USB_EnableGlobalInt
 468              		.syntax unified
 469              		.thumb
 470              		.thumb_func
 471              		.fpu fpv4-sp-d16
 473              	USB_EnableGlobalInt:
 474              	.LVL36:
 475              	.LFB132:
 223:Drivers/STM32F4xx_HAL_Driver/Src/stm32f4xx_ll_usb.c ****   USBx->GAHBCFG |= USB_OTG_GAHBCFG_GINT;
 476              		.loc 1 223 1 is_stmt 1 view -0
 477              		.cfi_startproc
 478              		@ args = 0, pretend = 0, frame = 0
 479              		@ frame_needed = 0, uses_anonymous_args = 0
 480              		@ link register save eliminated.
 224:Drivers/STM32F4xx_HAL_Driver/Src/stm32f4xx_ll_usb.c ****   return HAL_OK;
 481              		.loc 1 224 3 view .LVU130
 224:Drivers/STM32F4xx_HAL_Driver/Src/stm32f4xx_ll_usb.c ****   return HAL_OK;
 482              		.loc 1 224 17 is_stmt 0 view .LVU131
 483 0000 8368     		ldr	r3, [r0, #8]
 484 0002 43F00103 		orr	r3, r3, #1
 485 0006 8360     		str	r3, [r0, #8]
 225:Drivers/STM32F4xx_HAL_Driver/Src/stm32f4xx_ll_usb.c **** }
 486              		.loc 1 225 3 is_stmt 1 view .LVU132
 226:Drivers/STM32F4xx_HAL_Driver/Src/stm32f4xx_ll_usb.c **** 
 487              		.loc 1 226 1 is_stmt 0 view .LVU133
 488 0008 0020     		movs	r0, #0
 489              	.LVL37:
 226:Drivers/STM32F4xx_HAL_Driver/Src/stm32f4xx_ll_usb.c **** 
 490              		.loc 1 226 1 view .LVU134
 491 000a 7047     		bx	lr
 492              		.cfi_endproc
 493              	.LFE132:
 495              		.section	.text.USB_DisableGlobalInt,"ax",%progbits
 496              		.align	1
 497              		.global	USB_DisableGlobalInt
 498              		.syntax unified
 499              		.thumb
 500              		.thumb_func
 501              		.fpu fpv4-sp-d16
ARM GAS  /tmp/ccSVR7EX.s 			page 36


 503              	USB_DisableGlobalInt:
 504              	.LVL38:
 505              	.LFB133:
 235:Drivers/STM32F4xx_HAL_Driver/Src/stm32f4xx_ll_usb.c ****   USBx->GAHBCFG &= ~USB_OTG_GAHBCFG_GINT;
 506              		.loc 1 235 1 is_stmt 1 view -0
 507              		.cfi_startproc
 508              		@ args = 0, pretend = 0, frame = 0
 509              		@ frame_needed = 0, uses_anonymous_args = 0
 510              		@ link register save eliminated.
 236:Drivers/STM32F4xx_HAL_Driver/Src/stm32f4xx_ll_usb.c ****   return HAL_OK;
 511              		.loc 1 236 3 view .LVU136
 236:Drivers/STM32F4xx_HAL_Driver/Src/stm32f4xx_ll_usb.c ****   return HAL_OK;
 512              		.loc 1 236 17 is_stmt 0 view .LVU137
 513 0000 8368     		ldr	r3, [r0, #8]
 514 0002 23F00103 		bic	r3, r3, #1
 515 0006 8360     		str	r3, [r0, #8]
 237:Drivers/STM32F4xx_HAL_Driver/Src/stm32f4xx_ll_usb.c **** }
 516              		.loc 1 237 3 is_stmt 1 view .LVU138
 238:Drivers/STM32F4xx_HAL_Driver/Src/stm32f4xx_ll_usb.c **** 
 517              		.loc 1 238 1 is_stmt 0 view .LVU139
 518 0008 0020     		movs	r0, #0
 519              	.LVL39:
 238:Drivers/STM32F4xx_HAL_Driver/Src/stm32f4xx_ll_usb.c **** 
 520              		.loc 1 238 1 view .LVU140
 521 000a 7047     		bx	lr
 522              		.cfi_endproc
 523              	.LFE133:
 525              		.section	.text.USB_FlushTxFifo,"ax",%progbits
 526              		.align	1
 527              		.global	USB_FlushTxFifo
 528              		.syntax unified
 529              		.thumb
 530              		.thumb_func
 531              		.fpu fpv4-sp-d16
 533              	USB_FlushTxFifo:
 534              	.LVL40:
 535              	.LFB136:
 473:Drivers/STM32F4xx_HAL_Driver/Src/stm32f4xx_ll_usb.c ****   __IO uint32_t count = 0U;
 536              		.loc 1 473 1 is_stmt 1 view -0
 537              		.cfi_startproc
 538              		@ args = 0, pretend = 0, frame = 8
 539              		@ frame_needed = 0, uses_anonymous_args = 0
 540              		@ link register save eliminated.
 473:Drivers/STM32F4xx_HAL_Driver/Src/stm32f4xx_ll_usb.c ****   __IO uint32_t count = 0U;
 541              		.loc 1 473 1 is_stmt 0 view .LVU142
 542 0000 82B0     		sub	sp, sp, #8
 543              	.LCFI8:
 544              		.cfi_def_cfa_offset 8
 474:Drivers/STM32F4xx_HAL_Driver/Src/stm32f4xx_ll_usb.c **** 
 545              		.loc 1 474 3 is_stmt 1 view .LVU143
 474:Drivers/STM32F4xx_HAL_Driver/Src/stm32f4xx_ll_usb.c **** 
 546              		.loc 1 474 17 is_stmt 0 view .LVU144
 547 0002 0023     		movs	r3, #0
 548 0004 0193     		str	r3, [sp, #4]
 476:Drivers/STM32F4xx_HAL_Driver/Src/stm32f4xx_ll_usb.c **** 
 549              		.loc 1 476 3 is_stmt 1 view .LVU145
 476:Drivers/STM32F4xx_HAL_Driver/Src/stm32f4xx_ll_usb.c **** 
ARM GAS  /tmp/ccSVR7EX.s 			page 37


 550              		.loc 1 476 51 is_stmt 0 view .LVU146
 551 0006 8901     		lsls	r1, r1, #6
 552              	.LVL41:
 476:Drivers/STM32F4xx_HAL_Driver/Src/stm32f4xx_ll_usb.c **** 
 553              		.loc 1 476 44 view .LVU147
 554 0008 41F02001 		orr	r1, r1, #32
 476:Drivers/STM32F4xx_HAL_Driver/Src/stm32f4xx_ll_usb.c **** 
 555              		.loc 1 476 17 view .LVU148
 556 000c 0161     		str	r1, [r0, #16]
 557              	.L38:
 478:Drivers/STM32F4xx_HAL_Driver/Src/stm32f4xx_ll_usb.c ****   {
 558              		.loc 1 478 3 is_stmt 1 view .LVU149
 480:Drivers/STM32F4xx_HAL_Driver/Src/stm32f4xx_ll_usb.c ****     {
 559              		.loc 1 480 5 view .LVU150
 480:Drivers/STM32F4xx_HAL_Driver/Src/stm32f4xx_ll_usb.c ****     {
 560              		.loc 1 480 9 is_stmt 0 view .LVU151
 561 000e 019B     		ldr	r3, [sp, #4]
 562 0010 0133     		adds	r3, r3, #1
 480:Drivers/STM32F4xx_HAL_Driver/Src/stm32f4xx_ll_usb.c ****     {
 563              		.loc 1 480 8 view .LVU152
 564 0012 0193     		str	r3, [sp, #4]
 565 0014 054A     		ldr	r2, .L41
 566 0016 9342     		cmp	r3, r2
 567 0018 05D8     		bhi	.L39
 484:Drivers/STM32F4xx_HAL_Driver/Src/stm32f4xx_ll_usb.c **** 
 568              		.loc 1 484 11 is_stmt 1 view .LVU153
 484:Drivers/STM32F4xx_HAL_Driver/Src/stm32f4xx_ll_usb.c **** 
 569              		.loc 1 484 17 is_stmt 0 view .LVU154
 570 001a 0369     		ldr	r3, [r0, #16]
 484:Drivers/STM32F4xx_HAL_Driver/Src/stm32f4xx_ll_usb.c **** 
 571              		.loc 1 484 3 view .LVU155
 572 001c 13F0200F 		tst	r3, #32
 573 0020 F5D1     		bne	.L38
 486:Drivers/STM32F4xx_HAL_Driver/Src/stm32f4xx_ll_usb.c **** }
 574              		.loc 1 486 10 view .LVU156
 575 0022 0020     		movs	r0, #0
 576              	.LVL42:
 486:Drivers/STM32F4xx_HAL_Driver/Src/stm32f4xx_ll_usb.c **** }
 577              		.loc 1 486 10 view .LVU157
 578 0024 00E0     		b	.L37
 579              	.LVL43:
 580              	.L39:
 482:Drivers/STM32F4xx_HAL_Driver/Src/stm32f4xx_ll_usb.c ****     }
 581              		.loc 1 482 14 view .LVU158
 582 0026 0320     		movs	r0, #3
 583              	.LVL44:
 584              	.L37:
 487:Drivers/STM32F4xx_HAL_Driver/Src/stm32f4xx_ll_usb.c **** 
 585              		.loc 1 487 1 view .LVU159
 586 0028 02B0     		add	sp, sp, #8
 587              	.LCFI9:
 588              		.cfi_def_cfa_offset 0
 589              		@ sp needed
 590 002a 7047     		bx	lr
 591              	.L42:
 592              		.align	2
 593              	.L41:
ARM GAS  /tmp/ccSVR7EX.s 			page 38


 594 002c 400D0300 		.word	200000
 595              		.cfi_endproc
 596              	.LFE136:
 598              		.section	.text.USB_FlushRxFifo,"ax",%progbits
 599              		.align	1
 600              		.global	USB_FlushRxFifo
 601              		.syntax unified
 602              		.thumb
 603              		.thumb_func
 604              		.fpu fpv4-sp-d16
 606              	USB_FlushRxFifo:
 607              	.LVL45:
 608              	.LFB137:
 495:Drivers/STM32F4xx_HAL_Driver/Src/stm32f4xx_ll_usb.c ****   __IO uint32_t count = 0U;
 609              		.loc 1 495 1 is_stmt 1 view -0
 610              		.cfi_startproc
 611              		@ args = 0, pretend = 0, frame = 8
 612              		@ frame_needed = 0, uses_anonymous_args = 0
 613              		@ link register save eliminated.
 495:Drivers/STM32F4xx_HAL_Driver/Src/stm32f4xx_ll_usb.c ****   __IO uint32_t count = 0U;
 614              		.loc 1 495 1 is_stmt 0 view .LVU161
 615 0000 82B0     		sub	sp, sp, #8
 616              	.LCFI10:
 617              		.cfi_def_cfa_offset 8
 496:Drivers/STM32F4xx_HAL_Driver/Src/stm32f4xx_ll_usb.c **** 
 618              		.loc 1 496 3 is_stmt 1 view .LVU162
 496:Drivers/STM32F4xx_HAL_Driver/Src/stm32f4xx_ll_usb.c **** 
 619              		.loc 1 496 17 is_stmt 0 view .LVU163
 620 0002 0023     		movs	r3, #0
 621 0004 0193     		str	r3, [sp, #4]
 498:Drivers/STM32F4xx_HAL_Driver/Src/stm32f4xx_ll_usb.c **** 
 622              		.loc 1 498 3 is_stmt 1 view .LVU164
 498:Drivers/STM32F4xx_HAL_Driver/Src/stm32f4xx_ll_usb.c **** 
 623              		.loc 1 498 17 is_stmt 0 view .LVU165
 624 0006 1023     		movs	r3, #16
 625 0008 0361     		str	r3, [r0, #16]
 626              	.L45:
 500:Drivers/STM32F4xx_HAL_Driver/Src/stm32f4xx_ll_usb.c ****   {
 627              		.loc 1 500 3 is_stmt 1 view .LVU166
 502:Drivers/STM32F4xx_HAL_Driver/Src/stm32f4xx_ll_usb.c ****     {
 628              		.loc 1 502 5 view .LVU167
 502:Drivers/STM32F4xx_HAL_Driver/Src/stm32f4xx_ll_usb.c ****     {
 629              		.loc 1 502 9 is_stmt 0 view .LVU168
 630 000a 019B     		ldr	r3, [sp, #4]
 631 000c 0133     		adds	r3, r3, #1
 502:Drivers/STM32F4xx_HAL_Driver/Src/stm32f4xx_ll_usb.c ****     {
 632              		.loc 1 502 8 view .LVU169
 633 000e 0193     		str	r3, [sp, #4]
 634 0010 054A     		ldr	r2, .L48
 635 0012 9342     		cmp	r3, r2
 636 0014 05D8     		bhi	.L46
 506:Drivers/STM32F4xx_HAL_Driver/Src/stm32f4xx_ll_usb.c **** 
 637              		.loc 1 506 11 is_stmt 1 view .LVU170
 506:Drivers/STM32F4xx_HAL_Driver/Src/stm32f4xx_ll_usb.c **** 
 638              		.loc 1 506 17 is_stmt 0 view .LVU171
 639 0016 0369     		ldr	r3, [r0, #16]
 506:Drivers/STM32F4xx_HAL_Driver/Src/stm32f4xx_ll_usb.c **** 
ARM GAS  /tmp/ccSVR7EX.s 			page 39


 640              		.loc 1 506 3 view .LVU172
 641 0018 13F0100F 		tst	r3, #16
 642 001c F5D1     		bne	.L45
 508:Drivers/STM32F4xx_HAL_Driver/Src/stm32f4xx_ll_usb.c **** }
 643              		.loc 1 508 10 view .LVU173
 644 001e 0020     		movs	r0, #0
 645              	.LVL46:
 508:Drivers/STM32F4xx_HAL_Driver/Src/stm32f4xx_ll_usb.c **** }
 646              		.loc 1 508 10 view .LVU174
 647 0020 00E0     		b	.L44
 648              	.LVL47:
 649              	.L46:
 504:Drivers/STM32F4xx_HAL_Driver/Src/stm32f4xx_ll_usb.c ****     }
 650              		.loc 1 504 14 view .LVU175
 651 0022 0320     		movs	r0, #3
 652              	.LVL48:
 653              	.L44:
 509:Drivers/STM32F4xx_HAL_Driver/Src/stm32f4xx_ll_usb.c **** 
 654              		.loc 1 509 1 view .LVU176
 655 0024 02B0     		add	sp, sp, #8
 656              	.LCFI11:
 657              		.cfi_def_cfa_offset 0
 658              		@ sp needed
 659 0026 7047     		bx	lr
 660              	.L49:
 661              		.align	2
 662              	.L48:
 663 0028 400D0300 		.word	200000
 664              		.cfi_endproc
 665              	.LFE137:
 667              		.section	.text.USB_SetDevSpeed,"ax",%progbits
 668              		.align	1
 669              		.global	USB_SetDevSpeed
 670              		.syntax unified
 671              		.thumb
 672              		.thumb_func
 673              		.fpu fpv4-sp-d16
 675              	USB_SetDevSpeed:
 676              	.LVL49:
 677              	.LFB138:
 523:Drivers/STM32F4xx_HAL_Driver/Src/stm32f4xx_ll_usb.c ****   uint32_t USBx_BASE = (uint32_t)USBx;
 678              		.loc 1 523 1 is_stmt 1 view -0
 679              		.cfi_startproc
 680              		@ args = 0, pretend = 0, frame = 0
 681              		@ frame_needed = 0, uses_anonymous_args = 0
 682              		@ link register save eliminated.
 524:Drivers/STM32F4xx_HAL_Driver/Src/stm32f4xx_ll_usb.c **** 
 683              		.loc 1 524 3 view .LVU178
 526:Drivers/STM32F4xx_HAL_Driver/Src/stm32f4xx_ll_usb.c ****   return HAL_OK;
 684              		.loc 1 526 3 view .LVU179
 526:Drivers/STM32F4xx_HAL_Driver/Src/stm32f4xx_ll_usb.c ****   return HAL_OK;
 685              		.loc 1 526 21 is_stmt 0 view .LVU180
 686 0000 D0F80038 		ldr	r3, [r0, #2048]
 687 0004 1943     		orrs	r1, r1, r3
 688              	.LVL50:
 526:Drivers/STM32F4xx_HAL_Driver/Src/stm32f4xx_ll_usb.c ****   return HAL_OK;
 689              		.loc 1 526 21 view .LVU181
ARM GAS  /tmp/ccSVR7EX.s 			page 40


 690 0006 C0F80018 		str	r1, [r0, #2048]
 527:Drivers/STM32F4xx_HAL_Driver/Src/stm32f4xx_ll_usb.c **** }
 691              		.loc 1 527 3 is_stmt 1 view .LVU182
 528:Drivers/STM32F4xx_HAL_Driver/Src/stm32f4xx_ll_usb.c **** 
 692              		.loc 1 528 1 is_stmt 0 view .LVU183
 693 000a 0020     		movs	r0, #0
 694              	.LVL51:
 528:Drivers/STM32F4xx_HAL_Driver/Src/stm32f4xx_ll_usb.c **** 
 695              		.loc 1 528 1 view .LVU184
 696 000c 7047     		bx	lr
 697              		.cfi_endproc
 698              	.LFE138:
 700              		.section	.text.USB_DevInit,"ax",%progbits
 701              		.align	1
 702              		.global	USB_DevInit
 703              		.syntax unified
 704              		.thumb
 705              		.thumb_func
 706              		.fpu fpv4-sp-d16
 708              	USB_DevInit:
 709              	.LVL52:
 710              	.LFB135:
 297:Drivers/STM32F4xx_HAL_Driver/Src/stm32f4xx_ll_usb.c ****   HAL_StatusTypeDef ret = HAL_OK;
 711              		.loc 1 297 1 is_stmt 1 view -0
 712              		.cfi_startproc
 713              		@ args = 56, pretend = 16, frame = 0
 714              		@ frame_needed = 0, uses_anonymous_args = 0
 297:Drivers/STM32F4xx_HAL_Driver/Src/stm32f4xx_ll_usb.c ****   HAL_StatusTypeDef ret = HAL_OK;
 715              		.loc 1 297 1 is_stmt 0 view .LVU186
 716 0000 84B0     		sub	sp, sp, #16
 717              	.LCFI12:
 718              		.cfi_def_cfa_offset 16
 719 0002 2DE9F843 		push	{r3, r4, r5, r6, r7, r8, r9, lr}
 720              	.LCFI13:
 721              		.cfi_def_cfa_offset 48
 722              		.cfi_offset 3, -48
 723              		.cfi_offset 4, -44
 724              		.cfi_offset 5, -40
 725              		.cfi_offset 6, -36
 726              		.cfi_offset 7, -32
 727              		.cfi_offset 8, -28
 728              		.cfi_offset 9, -24
 729              		.cfi_offset 14, -20
 730 0006 0446     		mov	r4, r0
 731 0008 09A8     		add	r0, sp, #36
 732              	.LVL53:
 297:Drivers/STM32F4xx_HAL_Driver/Src/stm32f4xx_ll_usb.c ****   HAL_StatusTypeDef ret = HAL_OK;
 733              		.loc 1 297 1 view .LVU187
 734 000a 80E80E00 		stm	r0, {r1, r2, r3}
 298:Drivers/STM32F4xx_HAL_Driver/Src/stm32f4xx_ll_usb.c ****   uint32_t USBx_BASE = (uint32_t)USBx;
 735              		.loc 1 298 3 is_stmt 1 view .LVU188
 736              	.LVL54:
 299:Drivers/STM32F4xx_HAL_Driver/Src/stm32f4xx_ll_usb.c ****   uint32_t i;
 737              		.loc 1 299 3 view .LVU189
 299:Drivers/STM32F4xx_HAL_Driver/Src/stm32f4xx_ll_usb.c ****   uint32_t i;
 738              		.loc 1 299 12 is_stmt 0 view .LVU190
 739 000e 2546     		mov	r5, r4
ARM GAS  /tmp/ccSVR7EX.s 			page 41


 740              	.LVL55:
 300:Drivers/STM32F4xx_HAL_Driver/Src/stm32f4xx_ll_usb.c **** 
 741              		.loc 1 300 3 is_stmt 1 view .LVU191
 302:Drivers/STM32F4xx_HAL_Driver/Src/stm32f4xx_ll_usb.c ****   {
 742              		.loc 1 302 3 view .LVU192
 302:Drivers/STM32F4xx_HAL_Driver/Src/stm32f4xx_ll_usb.c ****   {
 743              		.loc 1 302 10 is_stmt 0 view .LVU193
 744 0010 0023     		movs	r3, #0
 302:Drivers/STM32F4xx_HAL_Driver/Src/stm32f4xx_ll_usb.c ****   {
 745              		.loc 1 302 3 view .LVU194
 746 0012 06E0     		b	.L52
 747              	.LVL56:
 748              	.L53:
 304:Drivers/STM32F4xx_HAL_Driver/Src/stm32f4xx_ll_usb.c ****   }
 749              		.loc 1 304 5 is_stmt 1 discriminator 3 view .LVU195
 304:Drivers/STM32F4xx_HAL_Driver/Src/stm32f4xx_ll_usb.c ****   }
 750              		.loc 1 304 22 is_stmt 0 discriminator 3 view .LVU196
 751 0014 03F14002 		add	r2, r3, #64
 752 0018 04EB8202 		add	r2, r4, r2, lsl #2
 753 001c 0021     		movs	r1, #0
 754 001e 5160     		str	r1, [r2, #4]
 302:Drivers/STM32F4xx_HAL_Driver/Src/stm32f4xx_ll_usb.c ****   {
 755              		.loc 1 302 25 is_stmt 1 discriminator 3 view .LVU197
 302:Drivers/STM32F4xx_HAL_Driver/Src/stm32f4xx_ll_usb.c ****   {
 756              		.loc 1 302 26 is_stmt 0 discriminator 3 view .LVU198
 757 0020 0133     		adds	r3, r3, #1
 758              	.LVL57:
 759              	.L52:
 302:Drivers/STM32F4xx_HAL_Driver/Src/stm32f4xx_ll_usb.c ****   {
 760              		.loc 1 302 16 is_stmt 1 discriminator 1 view .LVU199
 302:Drivers/STM32F4xx_HAL_Driver/Src/stm32f4xx_ll_usb.c ****   {
 761              		.loc 1 302 3 is_stmt 0 discriminator 1 view .LVU200
 762 0022 0E2B     		cmp	r3, #14
 763 0024 F6D9     		bls	.L53
 327:Drivers/STM32F4xx_HAL_Driver/Src/stm32f4xx_ll_usb.c ****   {
 764              		.loc 1 327 3 is_stmt 1 view .LVU201
 327:Drivers/STM32F4xx_HAL_Driver/Src/stm32f4xx_ll_usb.c ****   {
 765              		.loc 1 327 10 is_stmt 0 view .LVU202
 766 0026 DDF84C80 		ldr	r8, [sp, #76]
 327:Drivers/STM32F4xx_HAL_Driver/Src/stm32f4xx_ll_usb.c ****   {
 767              		.loc 1 327 6 view .LVU203
 768 002a B8F1000F 		cmp	r8, #0
 769 002e 24D1     		bne	.L54
 333:Drivers/STM32F4xx_HAL_Driver/Src/stm32f4xx_ll_usb.c ****     USBx->GCCFG |= USB_OTG_GCCFG_NOVBUSSENS;
 770              		.loc 1 333 5 is_stmt 1 view .LVU204
 333:Drivers/STM32F4xx_HAL_Driver/Src/stm32f4xx_ll_usb.c ****     USBx->GCCFG |= USB_OTG_GCCFG_NOVBUSSENS;
 771              		.loc 1 333 23 is_stmt 0 view .LVU205
 772 0030 D4F80438 		ldr	r3, [r4, #2052]
 773              	.LVL58:
 333:Drivers/STM32F4xx_HAL_Driver/Src/stm32f4xx_ll_usb.c ****     USBx->GCCFG |= USB_OTG_GCCFG_NOVBUSSENS;
 774              		.loc 1 333 23 view .LVU206
 775 0034 43F00203 		orr	r3, r3, #2
 776 0038 C4F80438 		str	r3, [r4, #2052]
 334:Drivers/STM32F4xx_HAL_Driver/Src/stm32f4xx_ll_usb.c ****     USBx->GCCFG &= ~USB_OTG_GCCFG_VBUSBSEN;
 777              		.loc 1 334 5 is_stmt 1 view .LVU207
 334:Drivers/STM32F4xx_HAL_Driver/Src/stm32f4xx_ll_usb.c ****     USBx->GCCFG &= ~USB_OTG_GCCFG_VBUSBSEN;
 778              		.loc 1 334 17 is_stmt 0 view .LVU208
ARM GAS  /tmp/ccSVR7EX.s 			page 42


 779 003c A36B     		ldr	r3, [r4, #56]
 780 003e 43F40013 		orr	r3, r3, #2097152
 781 0042 A363     		str	r3, [r4, #56]
 335:Drivers/STM32F4xx_HAL_Driver/Src/stm32f4xx_ll_usb.c ****     USBx->GCCFG &= ~USB_OTG_GCCFG_VBUSASEN;
 782              		.loc 1 335 5 is_stmt 1 view .LVU209
 335:Drivers/STM32F4xx_HAL_Driver/Src/stm32f4xx_ll_usb.c ****     USBx->GCCFG &= ~USB_OTG_GCCFG_VBUSASEN;
 783              		.loc 1 335 17 is_stmt 0 view .LVU210
 784 0044 A36B     		ldr	r3, [r4, #56]
 785 0046 23F40023 		bic	r3, r3, #524288
 786 004a A363     		str	r3, [r4, #56]
 336:Drivers/STM32F4xx_HAL_Driver/Src/stm32f4xx_ll_usb.c ****   }
 787              		.loc 1 336 5 is_stmt 1 view .LVU211
 336:Drivers/STM32F4xx_HAL_Driver/Src/stm32f4xx_ll_usb.c ****   }
 788              		.loc 1 336 17 is_stmt 0 view .LVU212
 789 004c A36B     		ldr	r3, [r4, #56]
 790 004e 23F48023 		bic	r3, r3, #262144
 791 0052 A363     		str	r3, [r4, #56]
 792              	.L55:
 347:Drivers/STM32F4xx_HAL_Driver/Src/stm32f4xx_ll_usb.c **** 
 793              		.loc 1 347 3 is_stmt 1 view .LVU213
 347:Drivers/STM32F4xx_HAL_Driver/Src/stm32f4xx_ll_usb.c **** 
 794              		.loc 1 347 16 is_stmt 0 view .LVU214
 795 0054 0023     		movs	r3, #0
 796 0056 C4F8003E 		str	r3, [r4, #3584]
 350:Drivers/STM32F4xx_HAL_Driver/Src/stm32f4xx_ll_usb.c **** 
 797              		.loc 1 350 3 is_stmt 1 view .LVU215
 350:Drivers/STM32F4xx_HAL_Driver/Src/stm32f4xx_ll_usb.c **** 
 798              		.loc 1 350 21 is_stmt 0 view .LVU216
 799 005a 04F50066 		add	r6, r4, #2048
 800 005e D4F80038 		ldr	r3, [r4, #2048]
 801 0062 C4F80038 		str	r3, [r4, #2048]
 352:Drivers/STM32F4xx_HAL_Driver/Src/stm32f4xx_ll_usb.c ****   {
 802              		.loc 1 352 3 is_stmt 1 view .LVU217
 352:Drivers/STM32F4xx_HAL_Driver/Src/stm32f4xx_ll_usb.c ****   {
 803              		.loc 1 352 10 is_stmt 0 view .LVU218
 804 0066 0E9B     		ldr	r3, [sp, #56]
 352:Drivers/STM32F4xx_HAL_Driver/Src/stm32f4xx_ll_usb.c ****   {
 805              		.loc 1 352 6 view .LVU219
 806 0068 012B     		cmp	r3, #1
 807 006a 14D1     		bne	.L56
 354:Drivers/STM32F4xx_HAL_Driver/Src/stm32f4xx_ll_usb.c ****     {
 808              		.loc 1 354 5 is_stmt 1 view .LVU220
 354:Drivers/STM32F4xx_HAL_Driver/Src/stm32f4xx_ll_usb.c ****     {
 809              		.loc 1 354 12 is_stmt 0 view .LVU221
 810 006c 0B9B     		ldr	r3, [sp, #44]
 354:Drivers/STM32F4xx_HAL_Driver/Src/stm32f4xx_ll_usb.c ****     {
 811              		.loc 1 354 8 view .LVU222
 812 006e 6BB9     		cbnz	r3, .L57
 357:Drivers/STM32F4xx_HAL_Driver/Src/stm32f4xx_ll_usb.c ****     }
 813              		.loc 1 357 7 is_stmt 1 view .LVU223
 357:Drivers/STM32F4xx_HAL_Driver/Src/stm32f4xx_ll_usb.c ****     }
 814              		.loc 1 357 13 is_stmt 0 view .LVU224
 815 0070 0021     		movs	r1, #0
 816 0072 2046     		mov	r0, r4
 817 0074 FFF7FEFF 		bl	USB_SetDevSpeed
 818              	.LVL59:
 819 0078 11E0     		b	.L58
ARM GAS  /tmp/ccSVR7EX.s 			page 43


 820              	.LVL60:
 821              	.L54:
 341:Drivers/STM32F4xx_HAL_Driver/Src/stm32f4xx_ll_usb.c ****     USBx->GCCFG |= USB_OTG_GCCFG_VBUSBSEN;
 822              		.loc 1 341 5 is_stmt 1 view .LVU225
 341:Drivers/STM32F4xx_HAL_Driver/Src/stm32f4xx_ll_usb.c ****     USBx->GCCFG |= USB_OTG_GCCFG_VBUSBSEN;
 823              		.loc 1 341 17 is_stmt 0 view .LVU226
 824 007a A36B     		ldr	r3, [r4, #56]
 825              	.LVL61:
 341:Drivers/STM32F4xx_HAL_Driver/Src/stm32f4xx_ll_usb.c ****     USBx->GCCFG |= USB_OTG_GCCFG_VBUSBSEN;
 826              		.loc 1 341 17 view .LVU227
 827 007c 23F40013 		bic	r3, r3, #2097152
 828 0080 A363     		str	r3, [r4, #56]
 342:Drivers/STM32F4xx_HAL_Driver/Src/stm32f4xx_ll_usb.c ****   }
 829              		.loc 1 342 5 is_stmt 1 view .LVU228
 342:Drivers/STM32F4xx_HAL_Driver/Src/stm32f4xx_ll_usb.c ****   }
 830              		.loc 1 342 17 is_stmt 0 view .LVU229
 831 0082 A36B     		ldr	r3, [r4, #56]
 832 0084 43F40023 		orr	r3, r3, #524288
 833 0088 A363     		str	r3, [r4, #56]
 834 008a E3E7     		b	.L55
 835              	.L57:
 362:Drivers/STM32F4xx_HAL_Driver/Src/stm32f4xx_ll_usb.c ****     }
 836              		.loc 1 362 7 is_stmt 1 view .LVU230
 362:Drivers/STM32F4xx_HAL_Driver/Src/stm32f4xx_ll_usb.c ****     }
 837              		.loc 1 362 13 is_stmt 0 view .LVU231
 838 008c 0121     		movs	r1, #1
 839 008e 2046     		mov	r0, r4
 840 0090 FFF7FEFF 		bl	USB_SetDevSpeed
 841              	.LVL62:
 842 0094 03E0     		b	.L58
 843              	.L56:
 368:Drivers/STM32F4xx_HAL_Driver/Src/stm32f4xx_ll_usb.c ****   }
 844              		.loc 1 368 5 is_stmt 1 view .LVU232
 368:Drivers/STM32F4xx_HAL_Driver/Src/stm32f4xx_ll_usb.c ****   }
 845              		.loc 1 368 11 is_stmt 0 view .LVU233
 846 0096 0321     		movs	r1, #3
 847 0098 2046     		mov	r0, r4
 848 009a FFF7FEFF 		bl	USB_SetDevSpeed
 849              	.LVL63:
 850              	.L58:
 372:Drivers/STM32F4xx_HAL_Driver/Src/stm32f4xx_ll_usb.c ****   {
 851              		.loc 1 372 3 is_stmt 1 view .LVU234
 372:Drivers/STM32F4xx_HAL_Driver/Src/stm32f4xx_ll_usb.c ****   {
 852              		.loc 1 372 7 is_stmt 0 view .LVU235
 853 009e 1021     		movs	r1, #16
 854 00a0 2046     		mov	r0, r4
 855 00a2 FFF7FEFF 		bl	USB_FlushTxFifo
 856              	.LVL64:
 372:Drivers/STM32F4xx_HAL_Driver/Src/stm32f4xx_ll_usb.c ****   {
 857              		.loc 1 372 6 view .LVU236
 858 00a6 8146     		mov	r9, r0
 859 00a8 08B1     		cbz	r0, .L59
 374:Drivers/STM32F4xx_HAL_Driver/Src/stm32f4xx_ll_usb.c ****   }
 860              		.loc 1 374 9 view .LVU237
 861 00aa 4FF00109 		mov	r9, #1
 862              	.L59:
 863              	.LVL65:
ARM GAS  /tmp/ccSVR7EX.s 			page 44


 377:Drivers/STM32F4xx_HAL_Driver/Src/stm32f4xx_ll_usb.c ****   {
 864              		.loc 1 377 3 is_stmt 1 view .LVU238
 377:Drivers/STM32F4xx_HAL_Driver/Src/stm32f4xx_ll_usb.c ****   {
 865              		.loc 1 377 7 is_stmt 0 view .LVU239
 866 00ae 2046     		mov	r0, r4
 867 00b0 FFF7FEFF 		bl	USB_FlushRxFifo
 868              	.LVL66:
 377:Drivers/STM32F4xx_HAL_Driver/Src/stm32f4xx_ll_usb.c ****   {
 869              		.loc 1 377 6 view .LVU240
 870 00b4 08B1     		cbz	r0, .L60
 379:Drivers/STM32F4xx_HAL_Driver/Src/stm32f4xx_ll_usb.c ****   }
 871              		.loc 1 379 9 view .LVU241
 872 00b6 4FF00109 		mov	r9, #1
 873              	.LVL67:
 874              	.L60:
 383:Drivers/STM32F4xx_HAL_Driver/Src/stm32f4xx_ll_usb.c ****   USBx_DEVICE->DOEPMSK = 0U;
 875              		.loc 1 383 3 is_stmt 1 view .LVU242
 383:Drivers/STM32F4xx_HAL_Driver/Src/stm32f4xx_ll_usb.c ****   USBx_DEVICE->DOEPMSK = 0U;
 876              		.loc 1 383 24 is_stmt 0 view .LVU243
 877 00ba 0023     		movs	r3, #0
 878 00bc 3361     		str	r3, [r6, #16]
 384:Drivers/STM32F4xx_HAL_Driver/Src/stm32f4xx_ll_usb.c ****   USBx_DEVICE->DAINTMSK = 0U;
 879              		.loc 1 384 3 is_stmt 1 view .LVU244
 384:Drivers/STM32F4xx_HAL_Driver/Src/stm32f4xx_ll_usb.c ****   USBx_DEVICE->DAINTMSK = 0U;
 880              		.loc 1 384 24 is_stmt 0 view .LVU245
 881 00be 7361     		str	r3, [r6, #20]
 385:Drivers/STM32F4xx_HAL_Driver/Src/stm32f4xx_ll_usb.c **** 
 882              		.loc 1 385 3 is_stmt 1 view .LVU246
 385:Drivers/STM32F4xx_HAL_Driver/Src/stm32f4xx_ll_usb.c **** 
 883              		.loc 1 385 25 is_stmt 0 view .LVU247
 884 00c0 F361     		str	r3, [r6, #28]
 387:Drivers/STM32F4xx_HAL_Driver/Src/stm32f4xx_ll_usb.c ****   {
 885              		.loc 1 387 3 is_stmt 1 view .LVU248
 886              	.LVL68:
 387:Drivers/STM32F4xx_HAL_Driver/Src/stm32f4xx_ll_usb.c ****   {
 887              		.loc 1 387 3 is_stmt 0 view .LVU249
 888 00c2 0AE0     		b	.L61
 889              	.LVL69:
 890              	.L78:
 391:Drivers/STM32F4xx_HAL_Driver/Src/stm32f4xx_ll_usb.c ****       {
 891              		.loc 1 391 7 is_stmt 1 view .LVU250
 391:Drivers/STM32F4xx_HAL_Driver/Src/stm32f4xx_ll_usb.c ****       {
 892              		.loc 1 391 10 is_stmt 0 view .LVU251
 893 00c4 C3B9     		cbnz	r3, .L63
 393:Drivers/STM32F4xx_HAL_Driver/Src/stm32f4xx_ll_usb.c ****       }
 894              		.loc 1 393 9 is_stmt 1 view .LVU252
 393:Drivers/STM32F4xx_HAL_Driver/Src/stm32f4xx_ll_usb.c ****       }
 895              		.loc 1 393 31 is_stmt 0 view .LVU253
 896 00c6 4FF00060 		mov	r0, #134217728
 897 00ca C2F80009 		str	r0, [r2, #2304]
 898              	.L64:
 405:Drivers/STM32F4xx_HAL_Driver/Src/stm32f4xx_ll_usb.c ****     USBx_INEP(i)->DIEPINT  = 0xFB7FU;
 899              		.loc 1 405 5 is_stmt 1 discriminator 2 view .LVU254
 405:Drivers/STM32F4xx_HAL_Driver/Src/stm32f4xx_ll_usb.c ****     USBx_INEP(i)->DIEPINT  = 0xFB7FU;
 900              		.loc 1 405 28 is_stmt 0 discriminator 2 view .LVU255
 901 00ce 0022     		movs	r2, #0
 902 00d0 0A61     		str	r2, [r1, #16]
ARM GAS  /tmp/ccSVR7EX.s 			page 45


 406:Drivers/STM32F4xx_HAL_Driver/Src/stm32f4xx_ll_usb.c ****   }
 903              		.loc 1 406 5 is_stmt 1 discriminator 2 view .LVU256
 406:Drivers/STM32F4xx_HAL_Driver/Src/stm32f4xx_ll_usb.c ****   }
 904              		.loc 1 406 28 is_stmt 0 discriminator 2 view .LVU257
 905 00d2 4FF67F32 		movw	r2, #64383
 906 00d6 8A60     		str	r2, [r1, #8]
 387:Drivers/STM32F4xx_HAL_Driver/Src/stm32f4xx_ll_usb.c ****   {
 907              		.loc 1 387 39 is_stmt 1 discriminator 2 view .LVU258
 387:Drivers/STM32F4xx_HAL_Driver/Src/stm32f4xx_ll_usb.c ****   {
 908              		.loc 1 387 40 is_stmt 0 discriminator 2 view .LVU259
 909 00d8 0133     		adds	r3, r3, #1
 910              	.LVL70:
 911              	.L61:
 387:Drivers/STM32F4xx_HAL_Driver/Src/stm32f4xx_ll_usb.c ****   {
 912              		.loc 1 387 16 is_stmt 1 discriminator 1 view .LVU260
 387:Drivers/STM32F4xx_HAL_Driver/Src/stm32f4xx_ll_usb.c ****   {
 913              		.loc 1 387 23 is_stmt 0 discriminator 1 view .LVU261
 914 00da 099F     		ldr	r7, [sp, #36]
 387:Drivers/STM32F4xx_HAL_Driver/Src/stm32f4xx_ll_usb.c ****   {
 915              		.loc 1 387 3 discriminator 1 view .LVU262
 916 00dc 9F42     		cmp	r7, r3
 917 00de 10D9     		bls	.L77
 389:Drivers/STM32F4xx_HAL_Driver/Src/stm32f4xx_ll_usb.c ****     {
 918              		.loc 1 389 5 is_stmt 1 view .LVU263
 389:Drivers/STM32F4xx_HAL_Driver/Src/stm32f4xx_ll_usb.c ****     {
 919              		.loc 1 389 10 is_stmt 0 view .LVU264
 920 00e0 05EB4312 		add	r2, r5, r3, lsl #5
 921 00e4 02F51061 		add	r1, r2, #2304
 389:Drivers/STM32F4xx_HAL_Driver/Src/stm32f4xx_ll_usb.c ****     {
 922              		.loc 1 389 22 view .LVU265
 923 00e8 D2F80009 		ldr	r0, [r2, #2304]
 389:Drivers/STM32F4xx_HAL_Driver/Src/stm32f4xx_ll_usb.c ****     {
 924              		.loc 1 389 8 view .LVU266
 925 00ec 0028     		cmp	r0, #0
 926 00ee E9DB     		blt	.L78
 402:Drivers/STM32F4xx_HAL_Driver/Src/stm32f4xx_ll_usb.c ****     }
 927              		.loc 1 402 7 is_stmt 1 view .LVU267
 402:Drivers/STM32F4xx_HAL_Driver/Src/stm32f4xx_ll_usb.c ****     }
 928              		.loc 1 402 29 is_stmt 0 view .LVU268
 929 00f0 0020     		movs	r0, #0
 930 00f2 C2F80009 		str	r0, [r2, #2304]
 931 00f6 EAE7     		b	.L64
 932              	.L63:
 397:Drivers/STM32F4xx_HAL_Driver/Src/stm32f4xx_ll_usb.c ****       }
 933              		.loc 1 397 9 is_stmt 1 view .LVU269
 397:Drivers/STM32F4xx_HAL_Driver/Src/stm32f4xx_ll_usb.c ****       }
 934              		.loc 1 397 31 is_stmt 0 view .LVU270
 935 00f8 4FF09040 		mov	r0, #1207959552
 936 00fc C2F80009 		str	r0, [r2, #2304]
 937 0100 E5E7     		b	.L64
 938              	.L77:
 409:Drivers/STM32F4xx_HAL_Driver/Src/stm32f4xx_ll_usb.c ****   {
 939              		.loc 1 409 10 view .LVU271
 940 0102 0023     		movs	r3, #0
 941              	.LVL71:
 409:Drivers/STM32F4xx_HAL_Driver/Src/stm32f4xx_ll_usb.c ****   {
 942              		.loc 1 409 10 view .LVU272
ARM GAS  /tmp/ccSVR7EX.s 			page 46


 943 0104 0AE0     		b	.L66
 944              	.LVL72:
 945              	.L81:
 413:Drivers/STM32F4xx_HAL_Driver/Src/stm32f4xx_ll_usb.c ****       {
 946              		.loc 1 413 7 is_stmt 1 view .LVU273
 413:Drivers/STM32F4xx_HAL_Driver/Src/stm32f4xx_ll_usb.c ****       {
 947              		.loc 1 413 10 is_stmt 0 view .LVU274
 948 0106 BBB1     		cbz	r3, .L79
 419:Drivers/STM32F4xx_HAL_Driver/Src/stm32f4xx_ll_usb.c ****       }
 949              		.loc 1 419 9 is_stmt 1 view .LVU275
 419:Drivers/STM32F4xx_HAL_Driver/Src/stm32f4xx_ll_usb.c ****       }
 950              		.loc 1 419 32 is_stmt 0 view .LVU276
 951 0108 4FF09040 		mov	r0, #1207959552
 952 010c C2F8000B 		str	r0, [r2, #2816]
 953              	.L69:
 427:Drivers/STM32F4xx_HAL_Driver/Src/stm32f4xx_ll_usb.c ****     USBx_OUTEP(i)->DOEPINT  = 0xFB7FU;
 954              		.loc 1 427 5 is_stmt 1 discriminator 2 view .LVU277
 427:Drivers/STM32F4xx_HAL_Driver/Src/stm32f4xx_ll_usb.c ****     USBx_OUTEP(i)->DOEPINT  = 0xFB7FU;
 955              		.loc 1 427 29 is_stmt 0 discriminator 2 view .LVU278
 956 0110 0022     		movs	r2, #0
 957 0112 0A61     		str	r2, [r1, #16]
 428:Drivers/STM32F4xx_HAL_Driver/Src/stm32f4xx_ll_usb.c ****   }
 958              		.loc 1 428 5 is_stmt 1 discriminator 2 view .LVU279
 428:Drivers/STM32F4xx_HAL_Driver/Src/stm32f4xx_ll_usb.c ****   }
 959              		.loc 1 428 29 is_stmt 0 discriminator 2 view .LVU280
 960 0114 4FF67F32 		movw	r2, #64383
 961 0118 8A60     		str	r2, [r1, #8]
 409:Drivers/STM32F4xx_HAL_Driver/Src/stm32f4xx_ll_usb.c ****   {
 962              		.loc 1 409 39 is_stmt 1 discriminator 2 view .LVU281
 409:Drivers/STM32F4xx_HAL_Driver/Src/stm32f4xx_ll_usb.c ****   {
 963              		.loc 1 409 40 is_stmt 0 discriminator 2 view .LVU282
 964 011a 0133     		adds	r3, r3, #1
 965              	.LVL73:
 966              	.L66:
 409:Drivers/STM32F4xx_HAL_Driver/Src/stm32f4xx_ll_usb.c ****   {
 967              		.loc 1 409 16 is_stmt 1 discriminator 1 view .LVU283
 409:Drivers/STM32F4xx_HAL_Driver/Src/stm32f4xx_ll_usb.c ****   {
 968              		.loc 1 409 3 is_stmt 0 discriminator 1 view .LVU284
 969 011c 9F42     		cmp	r7, r3
 970 011e 10D9     		bls	.L80
 411:Drivers/STM32F4xx_HAL_Driver/Src/stm32f4xx_ll_usb.c ****     {
 971              		.loc 1 411 5 is_stmt 1 view .LVU285
 411:Drivers/STM32F4xx_HAL_Driver/Src/stm32f4xx_ll_usb.c ****     {
 972              		.loc 1 411 10 is_stmt 0 view .LVU286
 973 0120 05EB4312 		add	r2, r5, r3, lsl #5
 974 0124 02F53061 		add	r1, r2, #2816
 411:Drivers/STM32F4xx_HAL_Driver/Src/stm32f4xx_ll_usb.c ****     {
 975              		.loc 1 411 23 view .LVU287
 976 0128 D2F8000B 		ldr	r0, [r2, #2816]
 411:Drivers/STM32F4xx_HAL_Driver/Src/stm32f4xx_ll_usb.c ****     {
 977              		.loc 1 411 8 view .LVU288
 978 012c 0028     		cmp	r0, #0
 979 012e EADB     		blt	.L81
 424:Drivers/STM32F4xx_HAL_Driver/Src/stm32f4xx_ll_usb.c ****     }
 980              		.loc 1 424 7 is_stmt 1 view .LVU289
 424:Drivers/STM32F4xx_HAL_Driver/Src/stm32f4xx_ll_usb.c ****     }
 981              		.loc 1 424 30 is_stmt 0 view .LVU290
ARM GAS  /tmp/ccSVR7EX.s 			page 47


 982 0130 0020     		movs	r0, #0
 983 0132 C2F8000B 		str	r0, [r2, #2816]
 984 0136 EBE7     		b	.L69
 985              	.L79:
 415:Drivers/STM32F4xx_HAL_Driver/Src/stm32f4xx_ll_usb.c ****       }
 986              		.loc 1 415 9 is_stmt 1 view .LVU291
 415:Drivers/STM32F4xx_HAL_Driver/Src/stm32f4xx_ll_usb.c ****       }
 987              		.loc 1 415 32 is_stmt 0 view .LVU292
 988 0138 4FF00060 		mov	r0, #134217728
 989 013c C2F8000B 		str	r0, [r2, #2816]
 990 0140 E6E7     		b	.L69
 991              	.L80:
 431:Drivers/STM32F4xx_HAL_Driver/Src/stm32f4xx_ll_usb.c **** 
 992              		.loc 1 431 3 is_stmt 1 view .LVU293
 431:Drivers/STM32F4xx_HAL_Driver/Src/stm32f4xx_ll_usb.c **** 
 993              		.loc 1 431 24 is_stmt 0 view .LVU294
 994 0142 3369     		ldr	r3, [r6, #16]
 995              	.LVL74:
 431:Drivers/STM32F4xx_HAL_Driver/Src/stm32f4xx_ll_usb.c **** 
 996              		.loc 1 431 24 view .LVU295
 997 0144 23F48073 		bic	r3, r3, #256
 998 0148 3361     		str	r3, [r6, #16]
 434:Drivers/STM32F4xx_HAL_Driver/Src/stm32f4xx_ll_usb.c **** 
 999              		.loc 1 434 3 is_stmt 1 view .LVU296
 434:Drivers/STM32F4xx_HAL_Driver/Src/stm32f4xx_ll_usb.c **** 
 1000              		.loc 1 434 17 is_stmt 0 view .LVU297
 1001 014a 0023     		movs	r3, #0
 1002 014c A361     		str	r3, [r4, #24]
 437:Drivers/STM32F4xx_HAL_Driver/Src/stm32f4xx_ll_usb.c **** 
 1003              		.loc 1 437 3 is_stmt 1 view .LVU298
 437:Drivers/STM32F4xx_HAL_Driver/Src/stm32f4xx_ll_usb.c **** 
 1004              		.loc 1 437 17 is_stmt 0 view .LVU299
 1005 014e 6FF08043 		mvn	r3, #1073741824
 1006 0152 6361     		str	r3, [r4, #20]
 440:Drivers/STM32F4xx_HAL_Driver/Src/stm32f4xx_ll_usb.c ****   {
 1007              		.loc 1 440 3 is_stmt 1 view .LVU300
 440:Drivers/STM32F4xx_HAL_Driver/Src/stm32f4xx_ll_usb.c ****   {
 1008              		.loc 1 440 10 is_stmt 0 view .LVU301
 1009 0154 0C9B     		ldr	r3, [sp, #48]
 440:Drivers/STM32F4xx_HAL_Driver/Src/stm32f4xx_ll_usb.c ****   {
 1010              		.loc 1 440 6 view .LVU302
 1011 0156 1BB9     		cbnz	r3, .L71
 442:Drivers/STM32F4xx_HAL_Driver/Src/stm32f4xx_ll_usb.c ****   }
 1012              		.loc 1 442 5 is_stmt 1 view .LVU303
 442:Drivers/STM32F4xx_HAL_Driver/Src/stm32f4xx_ll_usb.c ****   }
 1013              		.loc 1 442 19 is_stmt 0 view .LVU304
 1014 0158 A369     		ldr	r3, [r4, #24]
 1015 015a 43F01003 		orr	r3, r3, #16
 1016 015e A361     		str	r3, [r4, #24]
 1017              	.L71:
 446:Drivers/STM32F4xx_HAL_Driver/Src/stm32f4xx_ll_usb.c ****                    USB_OTG_GINTMSK_ENUMDNEM | USB_OTG_GINTMSK_IEPINT |
 1018              		.loc 1 446 3 is_stmt 1 view .LVU305
 446:Drivers/STM32F4xx_HAL_Driver/Src/stm32f4xx_ll_usb.c ****                    USB_OTG_GINTMSK_ENUMDNEM | USB_OTG_GINTMSK_IEPINT |
 1019              		.loc 1 446 17 is_stmt 0 view .LVU306
 1020 0160 A269     		ldr	r2, [r4, #24]
 1021 0162 0C4B     		ldr	r3, .L83
 1022 0164 1343     		orrs	r3, r3, r2
ARM GAS  /tmp/ccSVR7EX.s 			page 48


 1023 0166 A361     		str	r3, [r4, #24]
 451:Drivers/STM32F4xx_HAL_Driver/Src/stm32f4xx_ll_usb.c ****   {
 1024              		.loc 1 451 3 is_stmt 1 view .LVU307
 451:Drivers/STM32F4xx_HAL_Driver/Src/stm32f4xx_ll_usb.c ****   {
 1025              		.loc 1 451 10 is_stmt 0 view .LVU308
 1026 0168 0F9B     		ldr	r3, [sp, #60]
 451:Drivers/STM32F4xx_HAL_Driver/Src/stm32f4xx_ll_usb.c ****   {
 1027              		.loc 1 451 6 view .LVU309
 1028 016a 1BB1     		cbz	r3, .L72
 453:Drivers/STM32F4xx_HAL_Driver/Src/stm32f4xx_ll_usb.c ****   }
 1029              		.loc 1 453 5 is_stmt 1 view .LVU310
 453:Drivers/STM32F4xx_HAL_Driver/Src/stm32f4xx_ll_usb.c ****   }
 1030              		.loc 1 453 19 is_stmt 0 view .LVU311
 1031 016c A369     		ldr	r3, [r4, #24]
 1032 016e 43F00803 		orr	r3, r3, #8
 1033 0172 A361     		str	r3, [r4, #24]
 1034              	.L72:
 456:Drivers/STM32F4xx_HAL_Driver/Src/stm32f4xx_ll_usb.c ****   {
 1035              		.loc 1 456 3 is_stmt 1 view .LVU312
 456:Drivers/STM32F4xx_HAL_Driver/Src/stm32f4xx_ll_usb.c ****   {
 1036              		.loc 1 456 6 is_stmt 0 view .LVU313
 1037 0174 B8F1010F 		cmp	r8, #1
 1038 0178 04D0     		beq	.L82
 1039              	.L73:
 461:Drivers/STM32F4xx_HAL_Driver/Src/stm32f4xx_ll_usb.c **** }
 1040              		.loc 1 461 3 is_stmt 1 view .LVU314
 462:Drivers/STM32F4xx_HAL_Driver/Src/stm32f4xx_ll_usb.c **** 
 1041              		.loc 1 462 1 is_stmt 0 view .LVU315
 1042 017a 4846     		mov	r0, r9
 1043 017c BDE8F843 		pop	{r3, r4, r5, r6, r7, r8, r9, lr}
 1044              	.LCFI14:
 1045              		.cfi_remember_state
 1046              		.cfi_restore 14
 1047              		.cfi_restore 9
 1048              		.cfi_restore 8
 1049              		.cfi_restore 7
 1050              		.cfi_restore 6
 1051              		.cfi_restore 5
 1052              		.cfi_restore 4
 1053              		.cfi_restore 3
 1054              		.cfi_def_cfa_offset 16
 1055              	.LVL75:
 462:Drivers/STM32F4xx_HAL_Driver/Src/stm32f4xx_ll_usb.c **** 
 1056              		.loc 1 462 1 view .LVU316
 1057 0180 04B0     		add	sp, sp, #16
 1058              	.LCFI15:
 1059              		.cfi_def_cfa_offset 0
 1060 0182 7047     		bx	lr
 1061              	.LVL76:
 1062              	.L82:
 1063              	.LCFI16:
 1064              		.cfi_restore_state
 458:Drivers/STM32F4xx_HAL_Driver/Src/stm32f4xx_ll_usb.c ****   }
 1065              		.loc 1 458 5 is_stmt 1 view .LVU317
 458:Drivers/STM32F4xx_HAL_Driver/Src/stm32f4xx_ll_usb.c ****   }
 1066              		.loc 1 458 19 is_stmt 0 view .LVU318
 1067 0184 A369     		ldr	r3, [r4, #24]
ARM GAS  /tmp/ccSVR7EX.s 			page 49


 1068 0186 43F08043 		orr	r3, r3, #1073741824
 1069 018a 43F00403 		orr	r3, r3, #4
 1070 018e A361     		str	r3, [r4, #24]
 1071 0190 F3E7     		b	.L73
 1072              	.L84:
 1073 0192 00BF     		.align	2
 1074              	.L83:
 1075 0194 00383C80 		.word	-2143537152
 1076              		.cfi_endproc
 1077              	.LFE135:
 1079              		.section	.text.USB_GetDevSpeed,"ax",%progbits
 1080              		.align	1
 1081              		.global	USB_GetDevSpeed
 1082              		.syntax unified
 1083              		.thumb
 1084              		.thumb_func
 1085              		.fpu fpv4-sp-d16
 1087              	USB_GetDevSpeed:
 1088              	.LVL77:
 1089              	.LFB139:
 539:Drivers/STM32F4xx_HAL_Driver/Src/stm32f4xx_ll_usb.c ****   uint32_t USBx_BASE = (uint32_t)USBx;
 1090              		.loc 1 539 1 is_stmt 1 view -0
 1091              		.cfi_startproc
 1092              		@ args = 0, pretend = 0, frame = 0
 1093              		@ frame_needed = 0, uses_anonymous_args = 0
 1094              		@ link register save eliminated.
 540:Drivers/STM32F4xx_HAL_Driver/Src/stm32f4xx_ll_usb.c ****   uint8_t speed;
 1095              		.loc 1 540 3 view .LVU320
 541:Drivers/STM32F4xx_HAL_Driver/Src/stm32f4xx_ll_usb.c ****   uint32_t DevEnumSpeed = USBx_DEVICE->DSTS & USB_OTG_DSTS_ENUMSPD;
 1096              		.loc 1 541 3 view .LVU321
 542:Drivers/STM32F4xx_HAL_Driver/Src/stm32f4xx_ll_usb.c **** 
 1097              		.loc 1 542 3 view .LVU322
 542:Drivers/STM32F4xx_HAL_Driver/Src/stm32f4xx_ll_usb.c **** 
 1098              		.loc 1 542 38 is_stmt 0 view .LVU323
 1099 0000 D0F80838 		ldr	r3, [r0, #2056]
 1100              	.LVL78:
 544:Drivers/STM32F4xx_HAL_Driver/Src/stm32f4xx_ll_usb.c ****   {
 1101              		.loc 1 544 3 is_stmt 1 view .LVU324
 544:Drivers/STM32F4xx_HAL_Driver/Src/stm32f4xx_ll_usb.c ****   {
 1102              		.loc 1 544 6 is_stmt 0 view .LVU325
 1103 0004 13F00603 		ands	r3, r3, #6
 1104              	.LVL79:
 544:Drivers/STM32F4xx_HAL_Driver/Src/stm32f4xx_ll_usb.c ****   {
 1105              		.loc 1 544 6 view .LVU326
 1106 0008 07D0     		beq	.L87
 548:Drivers/STM32F4xx_HAL_Driver/Src/stm32f4xx_ll_usb.c ****            (DevEnumSpeed == DSTS_ENUMSPD_FS_PHY_48MHZ))
 1107              		.loc 1 548 8 is_stmt 1 view .LVU327
 548:Drivers/STM32F4xx_HAL_Driver/Src/stm32f4xx_ll_usb.c ****            (DevEnumSpeed == DSTS_ENUMSPD_FS_PHY_48MHZ))
 1108              		.loc 1 548 11 is_stmt 0 view .LVU328
 1109 000a 022B     		cmp	r3, #2
 1110 000c 07D0     		beq	.L88
 548:Drivers/STM32F4xx_HAL_Driver/Src/stm32f4xx_ll_usb.c ****            (DevEnumSpeed == DSTS_ENUMSPD_FS_PHY_48MHZ))
 1111              		.loc 1 548 65 discriminator 1 view .LVU329
 1112 000e 062B     		cmp	r3, #6
 1113 0010 01D0     		beq	.L90
 555:Drivers/STM32F4xx_HAL_Driver/Src/stm32f4xx_ll_usb.c ****   }
 1114              		.loc 1 555 11 view .LVU330
ARM GAS  /tmp/ccSVR7EX.s 			page 50


 1115 0012 0F20     		movs	r0, #15
 1116              	.LVL80:
 558:Drivers/STM32F4xx_HAL_Driver/Src/stm32f4xx_ll_usb.c **** }
 1117              		.loc 1 558 3 is_stmt 1 view .LVU331
 559:Drivers/STM32F4xx_HAL_Driver/Src/stm32f4xx_ll_usb.c **** 
 1118              		.loc 1 559 1 is_stmt 0 view .LVU332
 1119 0014 7047     		bx	lr
 1120              	.LVL81:
 1121              	.L90:
 551:Drivers/STM32F4xx_HAL_Driver/Src/stm32f4xx_ll_usb.c ****   }
 1122              		.loc 1 551 11 view .LVU333
 1123 0016 0220     		movs	r0, #2
 1124              	.LVL82:
 551:Drivers/STM32F4xx_HAL_Driver/Src/stm32f4xx_ll_usb.c ****   }
 1125              		.loc 1 551 11 view .LVU334
 1126 0018 7047     		bx	lr
 1127              	.LVL83:
 1128              	.L87:
 546:Drivers/STM32F4xx_HAL_Driver/Src/stm32f4xx_ll_usb.c ****   }
 1129              		.loc 1 546 11 view .LVU335
 1130 001a 0020     		movs	r0, #0
 1131              	.LVL84:
 546:Drivers/STM32F4xx_HAL_Driver/Src/stm32f4xx_ll_usb.c ****   }
 1132              		.loc 1 546 11 view .LVU336
 1133 001c 7047     		bx	lr
 1134              	.LVL85:
 1135              	.L88:
 551:Drivers/STM32F4xx_HAL_Driver/Src/stm32f4xx_ll_usb.c ****   }
 1136              		.loc 1 551 11 view .LVU337
 1137 001e 0220     		movs	r0, #2
 1138              	.LVL86:
 551:Drivers/STM32F4xx_HAL_Driver/Src/stm32f4xx_ll_usb.c ****   }
 1139              		.loc 1 551 11 view .LVU338
 1140 0020 7047     		bx	lr
 1141              		.cfi_endproc
 1142              	.LFE139:
 1144              		.section	.text.USB_ActivateEndpoint,"ax",%progbits
 1145              		.align	1
 1146              		.global	USB_ActivateEndpoint
 1147              		.syntax unified
 1148              		.thumb
 1149              		.thumb_func
 1150              		.fpu fpv4-sp-d16
 1152              	USB_ActivateEndpoint:
 1153              	.LVL87:
 1154              	.LFB140:
 568:Drivers/STM32F4xx_HAL_Driver/Src/stm32f4xx_ll_usb.c ****   uint32_t USBx_BASE = (uint32_t)USBx;
 1155              		.loc 1 568 1 is_stmt 1 view -0
 1156              		.cfi_startproc
 1157              		@ args = 0, pretend = 0, frame = 0
 1158              		@ frame_needed = 0, uses_anonymous_args = 0
 1159              		@ link register save eliminated.
 568:Drivers/STM32F4xx_HAL_Driver/Src/stm32f4xx_ll_usb.c ****   uint32_t USBx_BASE = (uint32_t)USBx;
 1160              		.loc 1 568 1 is_stmt 0 view .LVU340
 1161 0000 70B4     		push	{r4, r5, r6}
 1162              	.LCFI17:
 1163              		.cfi_def_cfa_offset 12
ARM GAS  /tmp/ccSVR7EX.s 			page 51


 1164              		.cfi_offset 4, -12
 1165              		.cfi_offset 5, -8
 1166              		.cfi_offset 6, -4
 569:Drivers/STM32F4xx_HAL_Driver/Src/stm32f4xx_ll_usb.c ****   uint32_t epnum = (uint32_t)ep->num;
 1167              		.loc 1 569 3 is_stmt 1 view .LVU341
 1168              	.LVL88:
 570:Drivers/STM32F4xx_HAL_Driver/Src/stm32f4xx_ll_usb.c **** 
 1169              		.loc 1 570 3 view .LVU342
 570:Drivers/STM32F4xx_HAL_Driver/Src/stm32f4xx_ll_usb.c **** 
 1170              		.loc 1 570 32 is_stmt 0 view .LVU343
 1171 0002 0C78     		ldrb	r4, [r1]	@ zero_extendqisi2
 1172              	.LVL89:
 572:Drivers/STM32F4xx_HAL_Driver/Src/stm32f4xx_ll_usb.c ****   {
 1173              		.loc 1 572 3 is_stmt 1 view .LVU344
 572:Drivers/STM32F4xx_HAL_Driver/Src/stm32f4xx_ll_usb.c ****   {
 1174              		.loc 1 572 9 is_stmt 0 view .LVU345
 1175 0004 4B78     		ldrb	r3, [r1, #1]	@ zero_extendqisi2
 572:Drivers/STM32F4xx_HAL_Driver/Src/stm32f4xx_ll_usb.c ****   {
 1176              		.loc 1 572 6 view .LVU346
 1177 0006 012B     		cmp	r3, #1
 1178 0008 22D0     		beq	.L95
 586:Drivers/STM32F4xx_HAL_Driver/Src/stm32f4xx_ll_usb.c **** 
 1179              		.loc 1 586 5 is_stmt 1 view .LVU347
 586:Drivers/STM32F4xx_HAL_Driver/Src/stm32f4xx_ll_usb.c **** 
 1180              		.loc 1 586 27 is_stmt 0 view .LVU348
 1181 000a D0F81C38 		ldr	r3, [r0, #2076]
 586:Drivers/STM32F4xx_HAL_Driver/Src/stm32f4xx_ll_usb.c **** 
 1182              		.loc 1 586 82 view .LVU349
 1183 000e 04F00F06 		and	r6, r4, #15
 586:Drivers/STM32F4xx_HAL_Driver/Src/stm32f4xx_ll_usb.c **** 
 1184              		.loc 1 586 55 view .LVU350
 1185 0012 0122     		movs	r2, #1
 1186 0014 B240     		lsls	r2, r2, r6
 586:Drivers/STM32F4xx_HAL_Driver/Src/stm32f4xx_ll_usb.c **** 
 1187              		.loc 1 586 27 view .LVU351
 1188 0016 43EA0243 		orr	r3, r3, r2, lsl #16
 1189 001a C0F81C38 		str	r3, [r0, #2076]
 588:Drivers/STM32F4xx_HAL_Driver/Src/stm32f4xx_ll_usb.c ****     {
 1190              		.loc 1 588 5 is_stmt 1 view .LVU352
 588:Drivers/STM32F4xx_HAL_Driver/Src/stm32f4xx_ll_usb.c ****     {
 1191              		.loc 1 588 11 is_stmt 0 view .LVU353
 1192 001e 00EB4410 		add	r0, r0, r4, lsl #5
 1193              	.LVL90:
 588:Drivers/STM32F4xx_HAL_Driver/Src/stm32f4xx_ll_usb.c ****     {
 1194              		.loc 1 588 28 view .LVU354
 1195 0022 D0F8003B 		ldr	r3, [r0, #2816]
 588:Drivers/STM32F4xx_HAL_Driver/Src/stm32f4xx_ll_usb.c ****     {
 1196              		.loc 1 588 8 view .LVU355
 1197 0026 13F4004F 		tst	r3, #32768
 1198 002a 0ED1     		bne	.L93
 590:Drivers/STM32F4xx_HAL_Driver/Src/stm32f4xx_ll_usb.c ****                                     ((uint32_t)ep->type << 18) |
 1199              		.loc 1 590 7 is_stmt 1 view .LVU356
 590:Drivers/STM32F4xx_HAL_Driver/Src/stm32f4xx_ll_usb.c ****                                     ((uint32_t)ep->type << 18) |
 1200              		.loc 1 590 34 is_stmt 0 view .LVU357
 1201 002c D0F8003B 		ldr	r3, [r0, #2816]
 590:Drivers/STM32F4xx_HAL_Driver/Src/stm32f4xx_ll_usb.c ****                                     ((uint32_t)ep->type << 18) |
 1202              		.loc 1 590 40 view .LVU358
ARM GAS  /tmp/ccSVR7EX.s 			page 52


 1203 0030 8A68     		ldr	r2, [r1, #8]
 590:Drivers/STM32F4xx_HAL_Driver/Src/stm32f4xx_ll_usb.c ****                                     ((uint32_t)ep->type << 18) |
 1204              		.loc 1 590 52 view .LVU359
 1205 0032 C2F30A02 		ubfx	r2, r2, #0, #11
 591:Drivers/STM32F4xx_HAL_Driver/Src/stm32f4xx_ll_usb.c ****                                     USB_OTG_DIEPCTL_SD0PID_SEVNFRM |
 1206              		.loc 1 591 50 view .LVU360
 1207 0036 C978     		ldrb	r1, [r1, #3]	@ zero_extendqisi2
 1208              	.LVL91:
 590:Drivers/STM32F4xx_HAL_Driver/Src/stm32f4xx_ll_usb.c ****                                     ((uint32_t)ep->type << 18) |
 1209              		.loc 1 590 77 view .LVU361
 1210 0038 42EA8142 		orr	r2, r2, r1, lsl #18
 590:Drivers/STM32F4xx_HAL_Driver/Src/stm32f4xx_ll_usb.c ****                                     ((uint32_t)ep->type << 18) |
 1211              		.loc 1 590 34 view .LVU362
 1212 003c 1343     		orrs	r3, r3, r2
 1213 003e 43F08053 		orr	r3, r3, #268435456
 1214 0042 43F40043 		orr	r3, r3, #32768
 1215 0046 C0F8003B 		str	r3, [r0, #2816]
 1216              	.LVL92:
 1217              	.L93:
 596:Drivers/STM32F4xx_HAL_Driver/Src/stm32f4xx_ll_usb.c **** }
 1218              		.loc 1 596 3 is_stmt 1 view .LVU363
 597:Drivers/STM32F4xx_HAL_Driver/Src/stm32f4xx_ll_usb.c **** 
 1219              		.loc 1 597 1 is_stmt 0 view .LVU364
 1220 004a 0020     		movs	r0, #0
 1221 004c 70BC     		pop	{r4, r5, r6}
 1222              	.LCFI18:
 1223              		.cfi_remember_state
 1224              		.cfi_restore 6
 1225              		.cfi_restore 5
 1226              		.cfi_restore 4
 1227              		.cfi_def_cfa_offset 0
 1228 004e 7047     		bx	lr
 1229              	.LVL93:
 1230              	.L95:
 1231              	.LCFI19:
 1232              		.cfi_restore_state
 574:Drivers/STM32F4xx_HAL_Driver/Src/stm32f4xx_ll_usb.c **** 
 1233              		.loc 1 574 5 is_stmt 1 view .LVU365
 574:Drivers/STM32F4xx_HAL_Driver/Src/stm32f4xx_ll_usb.c **** 
 1234              		.loc 1 574 27 is_stmt 0 view .LVU366
 1235 0050 D0F81C28 		ldr	r2, [r0, #2076]
 574:Drivers/STM32F4xx_HAL_Driver/Src/stm32f4xx_ll_usb.c **** 
 1236              		.loc 1 574 81 view .LVU367
 1237 0054 04F00F06 		and	r6, r4, #15
 574:Drivers/STM32F4xx_HAL_Driver/Src/stm32f4xx_ll_usb.c **** 
 1238              		.loc 1 574 54 view .LVU368
 1239 0058 B340     		lsls	r3, r3, r6
 574:Drivers/STM32F4xx_HAL_Driver/Src/stm32f4xx_ll_usb.c **** 
 1240              		.loc 1 574 52 view .LVU369
 1241 005a 9BB2     		uxth	r3, r3
 574:Drivers/STM32F4xx_HAL_Driver/Src/stm32f4xx_ll_usb.c **** 
 1242              		.loc 1 574 27 view .LVU370
 1243 005c 1343     		orrs	r3, r3, r2
 1244 005e C0F81C38 		str	r3, [r0, #2076]
 576:Drivers/STM32F4xx_HAL_Driver/Src/stm32f4xx_ll_usb.c ****     {
 1245              		.loc 1 576 5 is_stmt 1 view .LVU371
 576:Drivers/STM32F4xx_HAL_Driver/Src/stm32f4xx_ll_usb.c ****     {
ARM GAS  /tmp/ccSVR7EX.s 			page 53


 1246              		.loc 1 576 10 is_stmt 0 view .LVU372
 1247 0062 00EB4410 		add	r0, r0, r4, lsl #5
 1248              	.LVL94:
 576:Drivers/STM32F4xx_HAL_Driver/Src/stm32f4xx_ll_usb.c ****     {
 1249              		.loc 1 576 26 view .LVU373
 1250 0066 D0F80039 		ldr	r3, [r0, #2304]
 576:Drivers/STM32F4xx_HAL_Driver/Src/stm32f4xx_ll_usb.c ****     {
 1251              		.loc 1 576 8 view .LVU374
 1252 006a 13F4004F 		tst	r3, #32768
 1253 006e ECD1     		bne	.L93
 578:Drivers/STM32F4xx_HAL_Driver/Src/stm32f4xx_ll_usb.c ****                                    ((uint32_t)ep->type << 18) | (epnum << 22) |
 1254              		.loc 1 578 7 is_stmt 1 view .LVU375
 578:Drivers/STM32F4xx_HAL_Driver/Src/stm32f4xx_ll_usb.c ****                                    ((uint32_t)ep->type << 18) | (epnum << 22) |
 1255              		.loc 1 578 33 is_stmt 0 view .LVU376
 1256 0070 D0F80039 		ldr	r3, [r0, #2304]
 578:Drivers/STM32F4xx_HAL_Driver/Src/stm32f4xx_ll_usb.c ****                                    ((uint32_t)ep->type << 18) | (epnum << 22) |
 1257              		.loc 1 578 39 view .LVU377
 1258 0074 8A68     		ldr	r2, [r1, #8]
 578:Drivers/STM32F4xx_HAL_Driver/Src/stm32f4xx_ll_usb.c ****                                    ((uint32_t)ep->type << 18) | (epnum << 22) |
 1259              		.loc 1 578 51 view .LVU378
 1260 0076 C2F30A02 		ubfx	r2, r2, #0, #11
 579:Drivers/STM32F4xx_HAL_Driver/Src/stm32f4xx_ll_usb.c ****                                    USB_OTG_DIEPCTL_SD0PID_SEVNFRM |
 1261              		.loc 1 579 49 view .LVU379
 1262 007a C978     		ldrb	r1, [r1, #3]	@ zero_extendqisi2
 1263              	.LVL95:
 578:Drivers/STM32F4xx_HAL_Driver/Src/stm32f4xx_ll_usb.c ****                                    ((uint32_t)ep->type << 18) | (epnum << 22) |
 1264              		.loc 1 578 76 view .LVU380
 1265 007c 42EA8142 		orr	r2, r2, r1, lsl #18
 579:Drivers/STM32F4xx_HAL_Driver/Src/stm32f4xx_ll_usb.c ****                                    USB_OTG_DIEPCTL_SD0PID_SEVNFRM |
 1266              		.loc 1 579 63 view .LVU381
 1267 0080 42EA8454 		orr	r4, r2, r4, lsl #22
 1268              	.LVL96:
 578:Drivers/STM32F4xx_HAL_Driver/Src/stm32f4xx_ll_usb.c ****                                    ((uint32_t)ep->type << 18) | (epnum << 22) |
 1269              		.loc 1 578 33 view .LVU382
 1270 0084 1C43     		orrs	r4, r4, r3
 1271 0086 44F08054 		orr	r4, r4, #268435456
 1272 008a 44F40044 		orr	r4, r4, #32768
 1273 008e C0F80049 		str	r4, [r0, #2304]
 1274 0092 DAE7     		b	.L93
 1275              		.cfi_endproc
 1276              	.LFE140:
 1278              		.section	.text.USB_ActivateDedicatedEndpoint,"ax",%progbits
 1279              		.align	1
 1280              		.global	USB_ActivateDedicatedEndpoint
 1281              		.syntax unified
 1282              		.thumb
 1283              		.thumb_func
 1284              		.fpu fpv4-sp-d16
 1286              	USB_ActivateDedicatedEndpoint:
 1287              	.LVL97:
 1288              	.LFB141:
 606:Drivers/STM32F4xx_HAL_Driver/Src/stm32f4xx_ll_usb.c ****   uint32_t USBx_BASE = (uint32_t)USBx;
 1289              		.loc 1 606 1 is_stmt 1 view -0
 1290              		.cfi_startproc
 1291              		@ args = 0, pretend = 0, frame = 0
 1292              		@ frame_needed = 0, uses_anonymous_args = 0
 1293              		@ link register save eliminated.
ARM GAS  /tmp/ccSVR7EX.s 			page 54


 606:Drivers/STM32F4xx_HAL_Driver/Src/stm32f4xx_ll_usb.c ****   uint32_t USBx_BASE = (uint32_t)USBx;
 1294              		.loc 1 606 1 is_stmt 0 view .LVU384
 1295 0000 70B4     		push	{r4, r5, r6}
 1296              	.LCFI20:
 1297              		.cfi_def_cfa_offset 12
 1298              		.cfi_offset 4, -12
 1299              		.cfi_offset 5, -8
 1300              		.cfi_offset 6, -4
 607:Drivers/STM32F4xx_HAL_Driver/Src/stm32f4xx_ll_usb.c ****   uint32_t epnum = (uint32_t)ep->num;
 1301              		.loc 1 607 3 is_stmt 1 view .LVU385
 1302              	.LVL98:
 608:Drivers/STM32F4xx_HAL_Driver/Src/stm32f4xx_ll_usb.c **** 
 1303              		.loc 1 608 3 view .LVU386
 608:Drivers/STM32F4xx_HAL_Driver/Src/stm32f4xx_ll_usb.c **** 
 1304              		.loc 1 608 32 is_stmt 0 view .LVU387
 1305 0002 0A78     		ldrb	r2, [r1]	@ zero_extendqisi2
 1306              	.LVL99:
 611:Drivers/STM32F4xx_HAL_Driver/Src/stm32f4xx_ll_usb.c ****   {
 1307              		.loc 1 611 3 is_stmt 1 view .LVU388
 611:Drivers/STM32F4xx_HAL_Driver/Src/stm32f4xx_ll_usb.c ****   {
 1308              		.loc 1 611 9 is_stmt 0 view .LVU389
 1309 0004 4B78     		ldrb	r3, [r1, #1]	@ zero_extendqisi2
 611:Drivers/STM32F4xx_HAL_Driver/Src/stm32f4xx_ll_usb.c ****   {
 1310              		.loc 1 611 6 view .LVU390
 1311 0006 012B     		cmp	r3, #1
 1312 0008 23D0     		beq	.L102
 625:Drivers/STM32F4xx_HAL_Driver/Src/stm32f4xx_ll_usb.c ****     {
 1313              		.loc 1 625 5 is_stmt 1 view .LVU391
 625:Drivers/STM32F4xx_HAL_Driver/Src/stm32f4xx_ll_usb.c ****     {
 1314              		.loc 1 625 11 is_stmt 0 view .LVU392
 1315 000a 00EB4214 		add	r4, r0, r2, lsl #5
 625:Drivers/STM32F4xx_HAL_Driver/Src/stm32f4xx_ll_usb.c ****     {
 1316              		.loc 1 625 28 view .LVU393
 1317 000e D4F8003B 		ldr	r3, [r4, #2816]
 625:Drivers/STM32F4xx_HAL_Driver/Src/stm32f4xx_ll_usb.c ****     {
 1318              		.loc 1 625 8 view .LVU394
 1319 0012 13F4004F 		tst	r3, #32768
 1320 0016 0ED1     		bne	.L100
 627:Drivers/STM32F4xx_HAL_Driver/Src/stm32f4xx_ll_usb.c ****                                     ((uint32_t)ep->type << 18) | (epnum << 22) |
 1321              		.loc 1 627 7 is_stmt 1 view .LVU395
 627:Drivers/STM32F4xx_HAL_Driver/Src/stm32f4xx_ll_usb.c ****                                     ((uint32_t)ep->type << 18) | (epnum << 22) |
 1322              		.loc 1 627 34 is_stmt 0 view .LVU396
 1323 0018 D4F8005B 		ldr	r5, [r4, #2816]
 627:Drivers/STM32F4xx_HAL_Driver/Src/stm32f4xx_ll_usb.c ****                                     ((uint32_t)ep->type << 18) | (epnum << 22) |
 1324              		.loc 1 627 40 view .LVU397
 1325 001c 8B68     		ldr	r3, [r1, #8]
 627:Drivers/STM32F4xx_HAL_Driver/Src/stm32f4xx_ll_usb.c ****                                     ((uint32_t)ep->type << 18) | (epnum << 22) |
 1326              		.loc 1 627 52 view .LVU398
 1327 001e C3F30A03 		ubfx	r3, r3, #0, #11
 628:Drivers/STM32F4xx_HAL_Driver/Src/stm32f4xx_ll_usb.c ****                                     USB_OTG_DOEPCTL_USBAEP;
 1328              		.loc 1 628 50 view .LVU399
 1329 0022 CE78     		ldrb	r6, [r1, #3]	@ zero_extendqisi2
 627:Drivers/STM32F4xx_HAL_Driver/Src/stm32f4xx_ll_usb.c ****                                     ((uint32_t)ep->type << 18) | (epnum << 22) |
 1330              		.loc 1 627 77 view .LVU400
 1331 0024 43EA8643 		orr	r3, r3, r6, lsl #18
 628:Drivers/STM32F4xx_HAL_Driver/Src/stm32f4xx_ll_usb.c ****                                     USB_OTG_DOEPCTL_USBAEP;
 1332              		.loc 1 628 64 view .LVU401
ARM GAS  /tmp/ccSVR7EX.s 			page 55


 1333 0028 43EA8253 		orr	r3, r3, r2, lsl #22
 627:Drivers/STM32F4xx_HAL_Driver/Src/stm32f4xx_ll_usb.c ****                                     ((uint32_t)ep->type << 18) | (epnum << 22) |
 1334              		.loc 1 627 34 view .LVU402
 1335 002c 2B43     		orrs	r3, r3, r5
 1336 002e 43F40043 		orr	r3, r3, #32768
 1337 0032 C4F8003B 		str	r3, [r4, #2816]
 1338              	.L100:
 632:Drivers/STM32F4xx_HAL_Driver/Src/stm32f4xx_ll_usb.c ****   }
 1339              		.loc 1 632 5 is_stmt 1 view .LVU403
 632:Drivers/STM32F4xx_HAL_Driver/Src/stm32f4xx_ll_usb.c ****   }
 1340              		.loc 1 632 27 is_stmt 0 view .LVU404
 1341 0036 D0F83C38 		ldr	r3, [r0, #2108]
 632:Drivers/STM32F4xx_HAL_Driver/Src/stm32f4xx_ll_usb.c ****   }
 1342              		.loc 1 632 76 view .LVU405
 1343 003a 0A78     		ldrb	r2, [r1]	@ zero_extendqisi2
 1344              	.LVL100:
 632:Drivers/STM32F4xx_HAL_Driver/Src/stm32f4xx_ll_usb.c ****   }
 1345              		.loc 1 632 82 view .LVU406
 1346 003c 02F00F01 		and	r1, r2, #15
 1347              	.LVL101:
 632:Drivers/STM32F4xx_HAL_Driver/Src/stm32f4xx_ll_usb.c ****   }
 1348              		.loc 1 632 55 view .LVU407
 1349 0040 0122     		movs	r2, #1
 1350 0042 8A40     		lsls	r2, r2, r1
 632:Drivers/STM32F4xx_HAL_Driver/Src/stm32f4xx_ll_usb.c ****   }
 1351              		.loc 1 632 27 view .LVU408
 1352 0044 43EA0243 		orr	r3, r3, r2, lsl #16
 1353 0048 C0F83C38 		str	r3, [r0, #2108]
 1354              	.L99:
 635:Drivers/STM32F4xx_HAL_Driver/Src/stm32f4xx_ll_usb.c **** }
 1355              		.loc 1 635 3 is_stmt 1 view .LVU409
 636:Drivers/STM32F4xx_HAL_Driver/Src/stm32f4xx_ll_usb.c **** 
 1356              		.loc 1 636 1 is_stmt 0 view .LVU410
 1357 004c 0020     		movs	r0, #0
 1358              	.LVL102:
 636:Drivers/STM32F4xx_HAL_Driver/Src/stm32f4xx_ll_usb.c **** 
 1359              		.loc 1 636 1 view .LVU411
 1360 004e 70BC     		pop	{r4, r5, r6}
 1361              	.LCFI21:
 1362              		.cfi_remember_state
 1363              		.cfi_restore 6
 1364              		.cfi_restore 5
 1365              		.cfi_restore 4
 1366              		.cfi_def_cfa_offset 0
 1367 0050 7047     		bx	lr
 1368              	.LVL103:
 1369              	.L102:
 1370              	.LCFI22:
 1371              		.cfi_restore_state
 613:Drivers/STM32F4xx_HAL_Driver/Src/stm32f4xx_ll_usb.c ****     {
 1372              		.loc 1 613 5 is_stmt 1 view .LVU412
 613:Drivers/STM32F4xx_HAL_Driver/Src/stm32f4xx_ll_usb.c ****     {
 1373              		.loc 1 613 11 is_stmt 0 view .LVU413
 1374 0052 00EB4215 		add	r5, r0, r2, lsl #5
 613:Drivers/STM32F4xx_HAL_Driver/Src/stm32f4xx_ll_usb.c ****     {
 1375              		.loc 1 613 27 view .LVU414
 1376 0056 D5F80039 		ldr	r3, [r5, #2304]
ARM GAS  /tmp/ccSVR7EX.s 			page 56


 613:Drivers/STM32F4xx_HAL_Driver/Src/stm32f4xx_ll_usb.c ****     {
 1377              		.loc 1 613 8 view .LVU415
 1378 005a 13F4004F 		tst	r3, #32768
 1379 005e 10D1     		bne	.L98
 615:Drivers/STM32F4xx_HAL_Driver/Src/stm32f4xx_ll_usb.c ****                                    ((uint32_t)ep->type << 18) | (epnum << 22) |
 1380              		.loc 1 615 7 is_stmt 1 view .LVU416
 615:Drivers/STM32F4xx_HAL_Driver/Src/stm32f4xx_ll_usb.c ****                                    ((uint32_t)ep->type << 18) | (epnum << 22) |
 1381              		.loc 1 615 33 is_stmt 0 view .LVU417
 1382 0060 D5F80039 		ldr	r3, [r5, #2304]
 615:Drivers/STM32F4xx_HAL_Driver/Src/stm32f4xx_ll_usb.c ****                                    ((uint32_t)ep->type << 18) | (epnum << 22) |
 1383              		.loc 1 615 39 view .LVU418
 1384 0064 8C68     		ldr	r4, [r1, #8]
 615:Drivers/STM32F4xx_HAL_Driver/Src/stm32f4xx_ll_usb.c ****                                    ((uint32_t)ep->type << 18) | (epnum << 22) |
 1385              		.loc 1 615 51 view .LVU419
 1386 0066 C4F30A04 		ubfx	r4, r4, #0, #11
 616:Drivers/STM32F4xx_HAL_Driver/Src/stm32f4xx_ll_usb.c ****                                    USB_OTG_DIEPCTL_SD0PID_SEVNFRM |
 1387              		.loc 1 616 49 view .LVU420
 1388 006a CE78     		ldrb	r6, [r1, #3]	@ zero_extendqisi2
 615:Drivers/STM32F4xx_HAL_Driver/Src/stm32f4xx_ll_usb.c ****                                    ((uint32_t)ep->type << 18) | (epnum << 22) |
 1389              		.loc 1 615 76 view .LVU421
 1390 006c 44EA8644 		orr	r4, r4, r6, lsl #18
 616:Drivers/STM32F4xx_HAL_Driver/Src/stm32f4xx_ll_usb.c ****                                    USB_OTG_DIEPCTL_SD0PID_SEVNFRM |
 1391              		.loc 1 616 63 view .LVU422
 1392 0070 44EA8252 		orr	r2, r4, r2, lsl #22
 1393              	.LVL104:
 615:Drivers/STM32F4xx_HAL_Driver/Src/stm32f4xx_ll_usb.c ****                                    ((uint32_t)ep->type << 18) | (epnum << 22) |
 1394              		.loc 1 615 33 view .LVU423
 1395 0074 1343     		orrs	r3, r3, r2
 1396 0076 43F08053 		orr	r3, r3, #268435456
 1397 007a 43F40043 		orr	r3, r3, #32768
 1398 007e C5F80039 		str	r3, [r5, #2304]
 1399              	.LVL105:
 1400              	.L98:
 621:Drivers/STM32F4xx_HAL_Driver/Src/stm32f4xx_ll_usb.c ****   }
 1401              		.loc 1 621 5 is_stmt 1 view .LVU424
 621:Drivers/STM32F4xx_HAL_Driver/Src/stm32f4xx_ll_usb.c ****   }
 1402              		.loc 1 621 27 is_stmt 0 view .LVU425
 1403 0082 D0F83C28 		ldr	r2, [r0, #2108]
 621:Drivers/STM32F4xx_HAL_Driver/Src/stm32f4xx_ll_usb.c ****   }
 1404              		.loc 1 621 75 view .LVU426
 1405 0086 0B78     		ldrb	r3, [r1]	@ zero_extendqisi2
 621:Drivers/STM32F4xx_HAL_Driver/Src/stm32f4xx_ll_usb.c ****   }
 1406              		.loc 1 621 81 view .LVU427
 1407 0088 03F00F01 		and	r1, r3, #15
 1408              	.LVL106:
 621:Drivers/STM32F4xx_HAL_Driver/Src/stm32f4xx_ll_usb.c ****   }
 1409              		.loc 1 621 54 view .LVU428
 1410 008c 0123     		movs	r3, #1
 1411 008e 8B40     		lsls	r3, r3, r1
 621:Drivers/STM32F4xx_HAL_Driver/Src/stm32f4xx_ll_usb.c ****   }
 1412              		.loc 1 621 52 view .LVU429
 1413 0090 9BB2     		uxth	r3, r3
 621:Drivers/STM32F4xx_HAL_Driver/Src/stm32f4xx_ll_usb.c ****   }
 1414              		.loc 1 621 27 view .LVU430
 1415 0092 1343     		orrs	r3, r3, r2
 1416 0094 C0F83C38 		str	r3, [r0, #2108]
 1417 0098 D8E7     		b	.L99
ARM GAS  /tmp/ccSVR7EX.s 			page 57


 1418              		.cfi_endproc
 1419              	.LFE141:
 1421              		.section	.text.USB_DeactivateEndpoint,"ax",%progbits
 1422              		.align	1
 1423              		.global	USB_DeactivateEndpoint
 1424              		.syntax unified
 1425              		.thumb
 1426              		.thumb_func
 1427              		.fpu fpv4-sp-d16
 1429              	USB_DeactivateEndpoint:
 1430              	.LVL107:
 1431              	.LFB142:
 645:Drivers/STM32F4xx_HAL_Driver/Src/stm32f4xx_ll_usb.c ****   uint32_t USBx_BASE = (uint32_t)USBx;
 1432              		.loc 1 645 1 is_stmt 1 view -0
 1433              		.cfi_startproc
 1434              		@ args = 0, pretend = 0, frame = 0
 1435              		@ frame_needed = 0, uses_anonymous_args = 0
 1436              		@ link register save eliminated.
 645:Drivers/STM32F4xx_HAL_Driver/Src/stm32f4xx_ll_usb.c ****   uint32_t USBx_BASE = (uint32_t)USBx;
 1437              		.loc 1 645 1 is_stmt 0 view .LVU432
 1438 0000 30B4     		push	{r4, r5}
 1439              	.LCFI23:
 1440              		.cfi_def_cfa_offset 8
 1441              		.cfi_offset 4, -8
 1442              		.cfi_offset 5, -4
 646:Drivers/STM32F4xx_HAL_Driver/Src/stm32f4xx_ll_usb.c ****   uint32_t epnum = (uint32_t)ep->num;
 1443              		.loc 1 646 3 is_stmt 1 view .LVU433
 1444              	.LVL108:
 647:Drivers/STM32F4xx_HAL_Driver/Src/stm32f4xx_ll_usb.c **** 
 1445              		.loc 1 647 3 view .LVU434
 647:Drivers/STM32F4xx_HAL_Driver/Src/stm32f4xx_ll_usb.c **** 
 1446              		.loc 1 647 32 is_stmt 0 view .LVU435
 1447 0002 0B78     		ldrb	r3, [r1]	@ zero_extendqisi2
 1448              	.LVL109:
 650:Drivers/STM32F4xx_HAL_Driver/Src/stm32f4xx_ll_usb.c ****   {
 1449              		.loc 1 650 3 is_stmt 1 view .LVU436
 650:Drivers/STM32F4xx_HAL_Driver/Src/stm32f4xx_ll_usb.c ****   {
 1450              		.loc 1 650 9 is_stmt 0 view .LVU437
 1451 0004 4A78     		ldrb	r2, [r1, #1]	@ zero_extendqisi2
 650:Drivers/STM32F4xx_HAL_Driver/Src/stm32f4xx_ll_usb.c ****   {
 1452              		.loc 1 650 6 view .LVU438
 1453 0006 012A     		cmp	r2, #1
 1454 0008 24D0     		beq	.L109
 668:Drivers/STM32F4xx_HAL_Driver/Src/stm32f4xx_ll_usb.c ****     {
 1455              		.loc 1 668 5 is_stmt 1 view .LVU439
 668:Drivers/STM32F4xx_HAL_Driver/Src/stm32f4xx_ll_usb.c ****     {
 1456              		.loc 1 668 10 is_stmt 0 view .LVU440
 1457 000a 00EB4313 		add	r3, r0, r3, lsl #5
 1458              	.LVL110:
 668:Drivers/STM32F4xx_HAL_Driver/Src/stm32f4xx_ll_usb.c ****     {
 1459              		.loc 1 668 27 view .LVU441
 1460 000e D3F8002B 		ldr	r2, [r3, #2816]
 668:Drivers/STM32F4xx_HAL_Driver/Src/stm32f4xx_ll_usb.c ****     {
 1461              		.loc 1 668 8 view .LVU442
 1462 0012 002A     		cmp	r2, #0
 1463 0014 50DB     		blt	.L110
 1464              	.LVL111:
ARM GAS  /tmp/ccSVR7EX.s 			page 58


 1465              	.L107:
 674:Drivers/STM32F4xx_HAL_Driver/Src/stm32f4xx_ll_usb.c ****     USBx_DEVICE->DAINTMSK &= ~(USB_OTG_DAINTMSK_OEPM & ((uint32_t)(1UL << (ep->num & EP_ADDR_MSK)) 
 1466              		.loc 1 674 5 is_stmt 1 view .LVU443
 674:Drivers/STM32F4xx_HAL_Driver/Src/stm32f4xx_ll_usb.c ****     USBx_DEVICE->DAINTMSK &= ~(USB_OTG_DAINTMSK_OEPM & ((uint32_t)(1UL << (ep->num & EP_ADDR_MSK)) 
 1467              		.loc 1 674 27 is_stmt 0 view .LVU444
 1468 0016 D0F83C58 		ldr	r5, [r0, #2108]
 674:Drivers/STM32F4xx_HAL_Driver/Src/stm32f4xx_ll_usb.c ****     USBx_DEVICE->DAINTMSK &= ~(USB_OTG_DAINTMSK_OEPM & ((uint32_t)(1UL << (ep->num & EP_ADDR_MSK)) 
 1469              		.loc 1 674 78 view .LVU445
 1470 001a 0A78     		ldrb	r2, [r1]	@ zero_extendqisi2
 674:Drivers/STM32F4xx_HAL_Driver/Src/stm32f4xx_ll_usb.c ****     USBx_DEVICE->DAINTMSK &= ~(USB_OTG_DAINTMSK_OEPM & ((uint32_t)(1UL << (ep->num & EP_ADDR_MSK)) 
 1471              		.loc 1 674 84 view .LVU446
 1472 001c 02F00F02 		and	r2, r2, #15
 674:Drivers/STM32F4xx_HAL_Driver/Src/stm32f4xx_ll_usb.c ****     USBx_DEVICE->DAINTMSK &= ~(USB_OTG_DAINTMSK_OEPM & ((uint32_t)(1UL << (ep->num & EP_ADDR_MSK)) 
 1473              		.loc 1 674 57 view .LVU447
 1474 0020 0124     		movs	r4, #1
 1475 0022 04FA02F2 		lsl	r2, r4, r2
 674:Drivers/STM32F4xx_HAL_Driver/Src/stm32f4xx_ll_usb.c ****     USBx_DEVICE->DAINTMSK &= ~(USB_OTG_DAINTMSK_OEPM & ((uint32_t)(1UL << (ep->num & EP_ADDR_MSK)) 
 1476              		.loc 1 674 27 view .LVU448
 1477 0026 25EA0242 		bic	r2, r5, r2, lsl #16
 1478 002a C0F83C28 		str	r2, [r0, #2108]
 675:Drivers/STM32F4xx_HAL_Driver/Src/stm32f4xx_ll_usb.c ****     USBx_OUTEP(epnum)->DOEPCTL &= ~(USB_OTG_DOEPCTL_USBAEP |
 1479              		.loc 1 675 5 is_stmt 1 view .LVU449
 675:Drivers/STM32F4xx_HAL_Driver/Src/stm32f4xx_ll_usb.c ****     USBx_OUTEP(epnum)->DOEPCTL &= ~(USB_OTG_DOEPCTL_USBAEP |
 1480              		.loc 1 675 27 is_stmt 0 view .LVU450
 1481 002e D0F81C28 		ldr	r2, [r0, #2076]
 675:Drivers/STM32F4xx_HAL_Driver/Src/stm32f4xx_ll_usb.c ****     USBx_OUTEP(epnum)->DOEPCTL &= ~(USB_OTG_DOEPCTL_USBAEP |
 1482              		.loc 1 675 78 view .LVU451
 1483 0032 0978     		ldrb	r1, [r1]	@ zero_extendqisi2
 1484              	.LVL112:
 675:Drivers/STM32F4xx_HAL_Driver/Src/stm32f4xx_ll_usb.c ****     USBx_OUTEP(epnum)->DOEPCTL &= ~(USB_OTG_DOEPCTL_USBAEP |
 1485              		.loc 1 675 84 view .LVU452
 1486 0034 01F00F01 		and	r1, r1, #15
 675:Drivers/STM32F4xx_HAL_Driver/Src/stm32f4xx_ll_usb.c ****     USBx_OUTEP(epnum)->DOEPCTL &= ~(USB_OTG_DOEPCTL_USBAEP |
 1487              		.loc 1 675 57 view .LVU453
 1488 0038 8C40     		lsls	r4, r4, r1
 675:Drivers/STM32F4xx_HAL_Driver/Src/stm32f4xx_ll_usb.c ****     USBx_OUTEP(epnum)->DOEPCTL &= ~(USB_OTG_DOEPCTL_USBAEP |
 1489              		.loc 1 675 27 view .LVU454
 1490 003a 22EA0444 		bic	r4, r2, r4, lsl #16
 1491 003e C0F81C48 		str	r4, [r0, #2076]
 676:Drivers/STM32F4xx_HAL_Driver/Src/stm32f4xx_ll_usb.c ****                                     USB_OTG_DOEPCTL_MPSIZ |
 1492              		.loc 1 676 5 is_stmt 1 view .LVU455
 676:Drivers/STM32F4xx_HAL_Driver/Src/stm32f4xx_ll_usb.c ****                                     USB_OTG_DOEPCTL_MPSIZ |
 1493              		.loc 1 676 32 is_stmt 0 view .LVU456
 1494 0042 D3F8001B 		ldr	r1, [r3, #2816]
 1495 0046 234A     		ldr	r2, .L112
 1496 0048 0A40     		ands	r2, r2, r1
 1497 004a C3F8002B 		str	r2, [r3, #2816]
 1498              	.L106:
 682:Drivers/STM32F4xx_HAL_Driver/Src/stm32f4xx_ll_usb.c **** }
 1499              		.loc 1 682 3 is_stmt 1 view .LVU457
 683:Drivers/STM32F4xx_HAL_Driver/Src/stm32f4xx_ll_usb.c **** 
 1500              		.loc 1 683 1 is_stmt 0 view .LVU458
 1501 004e 0020     		movs	r0, #0
 1502              	.LVL113:
 683:Drivers/STM32F4xx_HAL_Driver/Src/stm32f4xx_ll_usb.c **** 
 1503              		.loc 1 683 1 view .LVU459
 1504 0050 30BC     		pop	{r4, r5}
ARM GAS  /tmp/ccSVR7EX.s 			page 59


 1505              	.LCFI24:
 1506              		.cfi_remember_state
 1507              		.cfi_restore 5
 1508              		.cfi_restore 4
 1509              		.cfi_def_cfa_offset 0
 1510 0052 7047     		bx	lr
 1511              	.LVL114:
 1512              	.L109:
 1513              	.LCFI25:
 1514              		.cfi_restore_state
 652:Drivers/STM32F4xx_HAL_Driver/Src/stm32f4xx_ll_usb.c ****     {
 1515              		.loc 1 652 5 is_stmt 1 view .LVU460
 652:Drivers/STM32F4xx_HAL_Driver/Src/stm32f4xx_ll_usb.c ****     {
 1516              		.loc 1 652 10 is_stmt 0 view .LVU461
 1517 0054 00EB4313 		add	r3, r0, r3, lsl #5
 1518              	.LVL115:
 652:Drivers/STM32F4xx_HAL_Driver/Src/stm32f4xx_ll_usb.c ****     {
 1519              		.loc 1 652 26 view .LVU462
 1520 0058 D3F80029 		ldr	r2, [r3, #2304]
 652:Drivers/STM32F4xx_HAL_Driver/Src/stm32f4xx_ll_usb.c ****     {
 1521              		.loc 1 652 8 view .LVU463
 1522 005c 002A     		cmp	r2, #0
 1523 005e 1EDB     		blt	.L111
 1524              	.LVL116:
 1525              	.L105:
 658:Drivers/STM32F4xx_HAL_Driver/Src/stm32f4xx_ll_usb.c ****     USBx_DEVICE->DAINTMSK &= ~(USB_OTG_DAINTMSK_IEPM & (uint32_t)(1UL << (ep->num & EP_ADDR_MSK)));
 1526              		.loc 1 658 5 is_stmt 1 view .LVU464
 658:Drivers/STM32F4xx_HAL_Driver/Src/stm32f4xx_ll_usb.c ****     USBx_DEVICE->DAINTMSK &= ~(USB_OTG_DAINTMSK_IEPM & (uint32_t)(1UL << (ep->num & EP_ADDR_MSK)));
 1527              		.loc 1 658 27 is_stmt 0 view .LVU465
 1528 0060 D0F83C58 		ldr	r5, [r0, #2108]
 658:Drivers/STM32F4xx_HAL_Driver/Src/stm32f4xx_ll_usb.c ****     USBx_DEVICE->DAINTMSK &= ~(USB_OTG_DAINTMSK_IEPM & (uint32_t)(1UL << (ep->num & EP_ADDR_MSK)));
 1529              		.loc 1 658 77 view .LVU466
 1530 0064 0A78     		ldrb	r2, [r1]	@ zero_extendqisi2
 658:Drivers/STM32F4xx_HAL_Driver/Src/stm32f4xx_ll_usb.c ****     USBx_DEVICE->DAINTMSK &= ~(USB_OTG_DAINTMSK_IEPM & (uint32_t)(1UL << (ep->num & EP_ADDR_MSK)));
 1531              		.loc 1 658 83 view .LVU467
 1532 0066 02F00F02 		and	r2, r2, #15
 658:Drivers/STM32F4xx_HAL_Driver/Src/stm32f4xx_ll_usb.c ****     USBx_DEVICE->DAINTMSK &= ~(USB_OTG_DAINTMSK_IEPM & (uint32_t)(1UL << (ep->num & EP_ADDR_MSK)));
 1533              		.loc 1 658 56 view .LVU468
 1534 006a 0124     		movs	r4, #1
 1535 006c 04FA02F2 		lsl	r2, r4, r2
 658:Drivers/STM32F4xx_HAL_Driver/Src/stm32f4xx_ll_usb.c ****     USBx_DEVICE->DAINTMSK &= ~(USB_OTG_DAINTMSK_IEPM & (uint32_t)(1UL << (ep->num & EP_ADDR_MSK)));
 1536              		.loc 1 658 54 view .LVU469
 1537 0070 92B2     		uxth	r2, r2
 658:Drivers/STM32F4xx_HAL_Driver/Src/stm32f4xx_ll_usb.c ****     USBx_DEVICE->DAINTMSK &= ~(USB_OTG_DAINTMSK_IEPM & (uint32_t)(1UL << (ep->num & EP_ADDR_MSK)));
 1538              		.loc 1 658 27 view .LVU470
 1539 0072 25EA0202 		bic	r2, r5, r2
 1540 0076 C0F83C28 		str	r2, [r0, #2108]
 659:Drivers/STM32F4xx_HAL_Driver/Src/stm32f4xx_ll_usb.c ****     USBx_INEP(epnum)->DIEPCTL &= ~(USB_OTG_DIEPCTL_USBAEP |
 1541              		.loc 1 659 5 is_stmt 1 view .LVU471
 659:Drivers/STM32F4xx_HAL_Driver/Src/stm32f4xx_ll_usb.c ****     USBx_INEP(epnum)->DIEPCTL &= ~(USB_OTG_DIEPCTL_USBAEP |
 1542              		.loc 1 659 27 is_stmt 0 view .LVU472
 1543 007a D0F81C28 		ldr	r2, [r0, #2076]
 659:Drivers/STM32F4xx_HAL_Driver/Src/stm32f4xx_ll_usb.c ****     USBx_INEP(epnum)->DIEPCTL &= ~(USB_OTG_DIEPCTL_USBAEP |
 1544              		.loc 1 659 77 view .LVU473
 1545 007e 0978     		ldrb	r1, [r1]	@ zero_extendqisi2
 1546              	.LVL117:
 659:Drivers/STM32F4xx_HAL_Driver/Src/stm32f4xx_ll_usb.c ****     USBx_INEP(epnum)->DIEPCTL &= ~(USB_OTG_DIEPCTL_USBAEP |
ARM GAS  /tmp/ccSVR7EX.s 			page 60


 1547              		.loc 1 659 83 view .LVU474
 1548 0080 01F00F01 		and	r1, r1, #15
 659:Drivers/STM32F4xx_HAL_Driver/Src/stm32f4xx_ll_usb.c ****     USBx_INEP(epnum)->DIEPCTL &= ~(USB_OTG_DIEPCTL_USBAEP |
 1549              		.loc 1 659 56 view .LVU475
 1550 0084 8C40     		lsls	r4, r4, r1
 659:Drivers/STM32F4xx_HAL_Driver/Src/stm32f4xx_ll_usb.c ****     USBx_INEP(epnum)->DIEPCTL &= ~(USB_OTG_DIEPCTL_USBAEP |
 1551              		.loc 1 659 54 view .LVU476
 1552 0086 A4B2     		uxth	r4, r4
 659:Drivers/STM32F4xx_HAL_Driver/Src/stm32f4xx_ll_usb.c ****     USBx_INEP(epnum)->DIEPCTL &= ~(USB_OTG_DIEPCTL_USBAEP |
 1553              		.loc 1 659 27 view .LVU477
 1554 0088 22EA0404 		bic	r4, r2, r4
 1555 008c C0F81C48 		str	r4, [r0, #2076]
 660:Drivers/STM32F4xx_HAL_Driver/Src/stm32f4xx_ll_usb.c ****                                    USB_OTG_DIEPCTL_MPSIZ |
 1556              		.loc 1 660 5 is_stmt 1 view .LVU478
 660:Drivers/STM32F4xx_HAL_Driver/Src/stm32f4xx_ll_usb.c ****                                    USB_OTG_DIEPCTL_MPSIZ |
 1557              		.loc 1 660 31 is_stmt 0 view .LVU479
 1558 0090 D3F80019 		ldr	r1, [r3, #2304]
 1559 0094 104A     		ldr	r2, .L112+4
 1560 0096 0A40     		ands	r2, r2, r1
 1561 0098 C3F80029 		str	r2, [r3, #2304]
 1562 009c D7E7     		b	.L106
 1563              	.LVL118:
 1564              	.L111:
 654:Drivers/STM32F4xx_HAL_Driver/Src/stm32f4xx_ll_usb.c ****       USBx_INEP(epnum)->DIEPCTL |= USB_OTG_DIEPCTL_EPDIS;
 1565              		.loc 1 654 7 is_stmt 1 view .LVU480
 654:Drivers/STM32F4xx_HAL_Driver/Src/stm32f4xx_ll_usb.c ****       USBx_INEP(epnum)->DIEPCTL |= USB_OTG_DIEPCTL_EPDIS;
 1566              		.loc 1 654 33 is_stmt 0 view .LVU481
 1567 009e D3F80029 		ldr	r2, [r3, #2304]
 1568 00a2 42F00062 		orr	r2, r2, #134217728
 1569 00a6 C3F80029 		str	r2, [r3, #2304]
 1570              	.LVL119:
 655:Drivers/STM32F4xx_HAL_Driver/Src/stm32f4xx_ll_usb.c ****     }
 1571              		.loc 1 655 7 is_stmt 1 view .LVU482
 655:Drivers/STM32F4xx_HAL_Driver/Src/stm32f4xx_ll_usb.c ****     }
 1572              		.loc 1 655 33 is_stmt 0 view .LVU483
 1573 00aa D3F80029 		ldr	r2, [r3, #2304]
 1574 00ae 42F08042 		orr	r2, r2, #1073741824
 1575 00b2 C3F80029 		str	r2, [r3, #2304]
 1576 00b6 D3E7     		b	.L105
 1577              	.LVL120:
 1578              	.L110:
 670:Drivers/STM32F4xx_HAL_Driver/Src/stm32f4xx_ll_usb.c ****       USBx_OUTEP(epnum)->DOEPCTL |= USB_OTG_DOEPCTL_EPDIS;
 1579              		.loc 1 670 7 is_stmt 1 view .LVU484
 670:Drivers/STM32F4xx_HAL_Driver/Src/stm32f4xx_ll_usb.c ****       USBx_OUTEP(epnum)->DOEPCTL |= USB_OTG_DOEPCTL_EPDIS;
 1580              		.loc 1 670 34 is_stmt 0 view .LVU485
 1581 00b8 D3F8002B 		ldr	r2, [r3, #2816]
 1582 00bc 42F00062 		orr	r2, r2, #134217728
 1583 00c0 C3F8002B 		str	r2, [r3, #2816]
 1584              	.LVL121:
 671:Drivers/STM32F4xx_HAL_Driver/Src/stm32f4xx_ll_usb.c ****     }
 1585              		.loc 1 671 7 is_stmt 1 view .LVU486
 671:Drivers/STM32F4xx_HAL_Driver/Src/stm32f4xx_ll_usb.c ****     }
 1586              		.loc 1 671 34 is_stmt 0 view .LVU487
 1587 00c4 D3F8002B 		ldr	r2, [r3, #2816]
 1588 00c8 42F08042 		orr	r2, r2, #1073741824
 1589 00cc C3F8002B 		str	r2, [r3, #2816]
 1590 00d0 A1E7     		b	.L107
ARM GAS  /tmp/ccSVR7EX.s 			page 61


 1591              	.L113:
 1592 00d2 00BF     		.align	2
 1593              	.L112:
 1594 00d4 0078F3EF 		.word	-269256704
 1595 00d8 007833EC 		.word	-332171264
 1596              		.cfi_endproc
 1597              	.LFE142:
 1599              		.section	.text.USB_DeactivateDedicatedEndpoint,"ax",%progbits
 1600              		.align	1
 1601              		.global	USB_DeactivateDedicatedEndpoint
 1602              		.syntax unified
 1603              		.thumb
 1604              		.thumb_func
 1605              		.fpu fpv4-sp-d16
 1607              	USB_DeactivateDedicatedEndpoint:
 1608              	.LVL122:
 1609              	.LFB143:
 692:Drivers/STM32F4xx_HAL_Driver/Src/stm32f4xx_ll_usb.c ****   uint32_t USBx_BASE = (uint32_t)USBx;
 1610              		.loc 1 692 1 is_stmt 1 view -0
 1611              		.cfi_startproc
 1612              		@ args = 0, pretend = 0, frame = 0
 1613              		@ frame_needed = 0, uses_anonymous_args = 0
 1614              		@ link register save eliminated.
 693:Drivers/STM32F4xx_HAL_Driver/Src/stm32f4xx_ll_usb.c ****   uint32_t epnum = (uint32_t)ep->num;
 1615              		.loc 1 693 3 view .LVU489
 694:Drivers/STM32F4xx_HAL_Driver/Src/stm32f4xx_ll_usb.c **** 
 1616              		.loc 1 694 3 view .LVU490
 694:Drivers/STM32F4xx_HAL_Driver/Src/stm32f4xx_ll_usb.c **** 
 1617              		.loc 1 694 32 is_stmt 0 view .LVU491
 1618 0000 0B78     		ldrb	r3, [r1]	@ zero_extendqisi2
 1619              	.LVL123:
 697:Drivers/STM32F4xx_HAL_Driver/Src/stm32f4xx_ll_usb.c ****   {
 1620              		.loc 1 697 3 is_stmt 1 view .LVU492
 697:Drivers/STM32F4xx_HAL_Driver/Src/stm32f4xx_ll_usb.c ****   {
 1621              		.loc 1 697 9 is_stmt 0 view .LVU493
 1622 0002 4A78     		ldrb	r2, [r1, #1]	@ zero_extendqisi2
 697:Drivers/STM32F4xx_HAL_Driver/Src/stm32f4xx_ll_usb.c ****   {
 1623              		.loc 1 697 6 view .LVU494
 1624 0004 012A     		cmp	r2, #1
 1625 0006 18D0     		beq	.L119
 710:Drivers/STM32F4xx_HAL_Driver/Src/stm32f4xx_ll_usb.c ****     {
 1626              		.loc 1 710 5 is_stmt 1 view .LVU495
 710:Drivers/STM32F4xx_HAL_Driver/Src/stm32f4xx_ll_usb.c ****     {
 1627              		.loc 1 710 10 is_stmt 0 view .LVU496
 1628 0008 00EB4313 		add	r3, r0, r3, lsl #5
 1629              	.LVL124:
 710:Drivers/STM32F4xx_HAL_Driver/Src/stm32f4xx_ll_usb.c ****     {
 1630              		.loc 1 710 27 view .LVU497
 1631 000c D3F8002B 		ldr	r2, [r3, #2816]
 710:Drivers/STM32F4xx_HAL_Driver/Src/stm32f4xx_ll_usb.c ****     {
 1632              		.loc 1 710 8 view .LVU498
 1633 0010 002A     		cmp	r2, #0
 1634 0012 38DB     		blt	.L120
 1635              	.LVL125:
 1636              	.L118:
 716:Drivers/STM32F4xx_HAL_Driver/Src/stm32f4xx_ll_usb.c ****     USBx_DEVICE->DAINTMSK &= ~(USB_OTG_DAINTMSK_OEPM & ((uint32_t)(1UL << (ep->num & EP_ADDR_MSK)) 
 1637              		.loc 1 716 5 is_stmt 1 view .LVU499
ARM GAS  /tmp/ccSVR7EX.s 			page 62


 716:Drivers/STM32F4xx_HAL_Driver/Src/stm32f4xx_ll_usb.c ****     USBx_DEVICE->DAINTMSK &= ~(USB_OTG_DAINTMSK_OEPM & ((uint32_t)(1UL << (ep->num & EP_ADDR_MSK)) 
 1638              		.loc 1 716 32 is_stmt 0 view .LVU500
 1639 0014 D3F8002B 		ldr	r2, [r3, #2816]
 1640 0018 22F40042 		bic	r2, r2, #32768
 1641 001c C3F8002B 		str	r2, [r3, #2816]
 717:Drivers/STM32F4xx_HAL_Driver/Src/stm32f4xx_ll_usb.c ****   }
 1642              		.loc 1 717 5 is_stmt 1 view .LVU501
 717:Drivers/STM32F4xx_HAL_Driver/Src/stm32f4xx_ll_usb.c ****   }
 1643              		.loc 1 717 27 is_stmt 0 view .LVU502
 1644 0020 D0F81C38 		ldr	r3, [r0, #2076]
 717:Drivers/STM32F4xx_HAL_Driver/Src/stm32f4xx_ll_usb.c ****   }
 1645              		.loc 1 717 78 view .LVU503
 1646 0024 0A78     		ldrb	r2, [r1]	@ zero_extendqisi2
 717:Drivers/STM32F4xx_HAL_Driver/Src/stm32f4xx_ll_usb.c ****   }
 1647              		.loc 1 717 84 view .LVU504
 1648 0026 02F00F01 		and	r1, r2, #15
 1649              	.LVL126:
 717:Drivers/STM32F4xx_HAL_Driver/Src/stm32f4xx_ll_usb.c ****   }
 1650              		.loc 1 717 57 view .LVU505
 1651 002a 0122     		movs	r2, #1
 1652 002c 8A40     		lsls	r2, r2, r1
 717:Drivers/STM32F4xx_HAL_Driver/Src/stm32f4xx_ll_usb.c ****   }
 1653              		.loc 1 717 27 view .LVU506
 1654 002e 23EA0243 		bic	r3, r3, r2, lsl #16
 1655 0032 C0F81C38 		str	r3, [r0, #2076]
 1656              	.L117:
 720:Drivers/STM32F4xx_HAL_Driver/Src/stm32f4xx_ll_usb.c **** }
 1657              		.loc 1 720 3 is_stmt 1 view .LVU507
 721:Drivers/STM32F4xx_HAL_Driver/Src/stm32f4xx_ll_usb.c **** 
 1658              		.loc 1 721 1 is_stmt 0 view .LVU508
 1659 0036 0020     		movs	r0, #0
 1660              	.LVL127:
 721:Drivers/STM32F4xx_HAL_Driver/Src/stm32f4xx_ll_usb.c **** 
 1661              		.loc 1 721 1 view .LVU509
 1662 0038 7047     		bx	lr
 1663              	.LVL128:
 1664              	.L119:
 699:Drivers/STM32F4xx_HAL_Driver/Src/stm32f4xx_ll_usb.c ****     {
 1665              		.loc 1 699 5 is_stmt 1 view .LVU510
 699:Drivers/STM32F4xx_HAL_Driver/Src/stm32f4xx_ll_usb.c ****     {
 1666              		.loc 1 699 10 is_stmt 0 view .LVU511
 1667 003a 00EB4313 		add	r3, r0, r3, lsl #5
 1668              	.LVL129:
 699:Drivers/STM32F4xx_HAL_Driver/Src/stm32f4xx_ll_usb.c ****     {
 1669              		.loc 1 699 26 view .LVU512
 1670 003e D3F80029 		ldr	r2, [r3, #2304]
 699:Drivers/STM32F4xx_HAL_Driver/Src/stm32f4xx_ll_usb.c ****     {
 1671              		.loc 1 699 8 view .LVU513
 1672 0042 002A     		cmp	r2, #0
 1673 0044 12DB     		blt	.L121
 1674              	.LVL130:
 1675              	.L116:
 705:Drivers/STM32F4xx_HAL_Driver/Src/stm32f4xx_ll_usb.c ****     USBx_DEVICE->DAINTMSK &= ~(USB_OTG_DAINTMSK_IEPM & (uint32_t)(1UL << (ep->num & EP_ADDR_MSK)));
 1676              		.loc 1 705 5 is_stmt 1 view .LVU514
 705:Drivers/STM32F4xx_HAL_Driver/Src/stm32f4xx_ll_usb.c ****     USBx_DEVICE->DAINTMSK &= ~(USB_OTG_DAINTMSK_IEPM & (uint32_t)(1UL << (ep->num & EP_ADDR_MSK)));
 1677              		.loc 1 705 31 is_stmt 0 view .LVU515
 1678 0046 D3F80029 		ldr	r2, [r3, #2304]
ARM GAS  /tmp/ccSVR7EX.s 			page 63


 1679 004a 22F40042 		bic	r2, r2, #32768
 1680 004e C3F80029 		str	r2, [r3, #2304]
 706:Drivers/STM32F4xx_HAL_Driver/Src/stm32f4xx_ll_usb.c ****   }
 1681              		.loc 1 706 5 is_stmt 1 view .LVU516
 706:Drivers/STM32F4xx_HAL_Driver/Src/stm32f4xx_ll_usb.c ****   }
 1682              		.loc 1 706 27 is_stmt 0 view .LVU517
 1683 0052 D0F81C28 		ldr	r2, [r0, #2076]
 706:Drivers/STM32F4xx_HAL_Driver/Src/stm32f4xx_ll_usb.c ****   }
 1684              		.loc 1 706 77 view .LVU518
 1685 0056 0B78     		ldrb	r3, [r1]	@ zero_extendqisi2
 706:Drivers/STM32F4xx_HAL_Driver/Src/stm32f4xx_ll_usb.c ****   }
 1686              		.loc 1 706 83 view .LVU519
 1687 0058 03F00F01 		and	r1, r3, #15
 1688              	.LVL131:
 706:Drivers/STM32F4xx_HAL_Driver/Src/stm32f4xx_ll_usb.c ****   }
 1689              		.loc 1 706 56 view .LVU520
 1690 005c 0123     		movs	r3, #1
 1691 005e 8B40     		lsls	r3, r3, r1
 706:Drivers/STM32F4xx_HAL_Driver/Src/stm32f4xx_ll_usb.c ****   }
 1692              		.loc 1 706 54 view .LVU521
 1693 0060 9BB2     		uxth	r3, r3
 706:Drivers/STM32F4xx_HAL_Driver/Src/stm32f4xx_ll_usb.c ****   }
 1694              		.loc 1 706 27 view .LVU522
 1695 0062 22EA0303 		bic	r3, r2, r3
 1696 0066 C0F81C38 		str	r3, [r0, #2076]
 1697 006a E4E7     		b	.L117
 1698              	.LVL132:
 1699              	.L121:
 701:Drivers/STM32F4xx_HAL_Driver/Src/stm32f4xx_ll_usb.c ****       USBx_INEP(epnum)->DIEPCTL  |= USB_OTG_DIEPCTL_EPDIS;
 1700              		.loc 1 701 7 is_stmt 1 view .LVU523
 701:Drivers/STM32F4xx_HAL_Driver/Src/stm32f4xx_ll_usb.c ****       USBx_INEP(epnum)->DIEPCTL  |= USB_OTG_DIEPCTL_EPDIS;
 1701              		.loc 1 701 34 is_stmt 0 view .LVU524
 1702 006c D3F80029 		ldr	r2, [r3, #2304]
 1703 0070 42F00062 		orr	r2, r2, #134217728
 1704 0074 C3F80029 		str	r2, [r3, #2304]
 1705              	.LVL133:
 702:Drivers/STM32F4xx_HAL_Driver/Src/stm32f4xx_ll_usb.c ****     }
 1706              		.loc 1 702 7 is_stmt 1 view .LVU525
 702:Drivers/STM32F4xx_HAL_Driver/Src/stm32f4xx_ll_usb.c ****     }
 1707              		.loc 1 702 34 is_stmt 0 view .LVU526
 1708 0078 D3F80029 		ldr	r2, [r3, #2304]
 1709 007c 42F08042 		orr	r2, r2, #1073741824
 1710 0080 C3F80029 		str	r2, [r3, #2304]
 1711 0084 DFE7     		b	.L116
 1712              	.LVL134:
 1713              	.L120:
 712:Drivers/STM32F4xx_HAL_Driver/Src/stm32f4xx_ll_usb.c ****       USBx_OUTEP(epnum)->DOEPCTL  |= USB_OTG_DOEPCTL_EPDIS;
 1714              		.loc 1 712 7 is_stmt 1 view .LVU527
 712:Drivers/STM32F4xx_HAL_Driver/Src/stm32f4xx_ll_usb.c ****       USBx_OUTEP(epnum)->DOEPCTL  |= USB_OTG_DOEPCTL_EPDIS;
 1715              		.loc 1 712 35 is_stmt 0 view .LVU528
 1716 0086 D3F8002B 		ldr	r2, [r3, #2816]
 1717 008a 42F00062 		orr	r2, r2, #134217728
 1718 008e C3F8002B 		str	r2, [r3, #2816]
 1719              	.LVL135:
 713:Drivers/STM32F4xx_HAL_Driver/Src/stm32f4xx_ll_usb.c ****     }
 1720              		.loc 1 713 7 is_stmt 1 view .LVU529
 713:Drivers/STM32F4xx_HAL_Driver/Src/stm32f4xx_ll_usb.c ****     }
ARM GAS  /tmp/ccSVR7EX.s 			page 64


 1721              		.loc 1 713 35 is_stmt 0 view .LVU530
 1722 0092 D3F8002B 		ldr	r2, [r3, #2816]
 1723 0096 42F08042 		orr	r2, r2, #1073741824
 1724 009a C3F8002B 		str	r2, [r3, #2816]
 1725 009e B9E7     		b	.L118
 1726              		.cfi_endproc
 1727              	.LFE143:
 1729              		.section	.text.USB_EP0StartXfer,"ax",%progbits
 1730              		.align	1
 1731              		.global	USB_EP0StartXfer
 1732              		.syntax unified
 1733              		.thumb
 1734              		.thumb_func
 1735              		.fpu fpv4-sp-d16
 1737              	USB_EP0StartXfer:
 1738              	.LVL136:
 1739              	.LFB145:
 878:Drivers/STM32F4xx_HAL_Driver/Src/stm32f4xx_ll_usb.c ****   uint32_t USBx_BASE = (uint32_t)USBx;
 1740              		.loc 1 878 1 is_stmt 1 view -0
 1741              		.cfi_startproc
 1742              		@ args = 0, pretend = 0, frame = 0
 1743              		@ frame_needed = 0, uses_anonymous_args = 0
 1744              		@ link register save eliminated.
 878:Drivers/STM32F4xx_HAL_Driver/Src/stm32f4xx_ll_usb.c ****   uint32_t USBx_BASE = (uint32_t)USBx;
 1745              		.loc 1 878 1 is_stmt 0 view .LVU532
 1746 0000 70B4     		push	{r4, r5, r6}
 1747              	.LCFI26:
 1748              		.cfi_def_cfa_offset 12
 1749              		.cfi_offset 4, -12
 1750              		.cfi_offset 5, -8
 1751              		.cfi_offset 6, -4
 879:Drivers/STM32F4xx_HAL_Driver/Src/stm32f4xx_ll_usb.c ****   uint32_t epnum = (uint32_t)ep->num;
 1752              		.loc 1 879 3 is_stmt 1 view .LVU533
 1753              	.LVL137:
 880:Drivers/STM32F4xx_HAL_Driver/Src/stm32f4xx_ll_usb.c **** 
 1754              		.loc 1 880 3 view .LVU534
 880:Drivers/STM32F4xx_HAL_Driver/Src/stm32f4xx_ll_usb.c **** 
 1755              		.loc 1 880 32 is_stmt 0 view .LVU535
 1756 0002 0B78     		ldrb	r3, [r1]	@ zero_extendqisi2
 1757              	.LVL138:
 883:Drivers/STM32F4xx_HAL_Driver/Src/stm32f4xx_ll_usb.c ****   {
 1758              		.loc 1 883 3 is_stmt 1 view .LVU536
 883:Drivers/STM32F4xx_HAL_Driver/Src/stm32f4xx_ll_usb.c ****   {
 1759              		.loc 1 883 9 is_stmt 0 view .LVU537
 1760 0004 4C78     		ldrb	r4, [r1, #1]	@ zero_extendqisi2
 883:Drivers/STM32F4xx_HAL_Driver/Src/stm32f4xx_ll_usb.c ****   {
 1761              		.loc 1 883 6 view .LVU538
 1762 0006 012C     		cmp	r4, #1
 1763 0008 26D0     		beq	.L133
 938:Drivers/STM32F4xx_HAL_Driver/Src/stm32f4xx_ll_usb.c ****     USBx_OUTEP(epnum)->DOEPTSIZ &= ~(USB_OTG_DOEPTSIZ_PKTCNT);
 1764              		.loc 1 938 5 is_stmt 1 view .LVU539
 938:Drivers/STM32F4xx_HAL_Driver/Src/stm32f4xx_ll_usb.c ****     USBx_OUTEP(epnum)->DOEPTSIZ &= ~(USB_OTG_DOEPTSIZ_PKTCNT);
 1765              		.loc 1 938 33 is_stmt 0 view .LVU540
 1766 000a 00EB4310 		add	r0, r0, r3, lsl #5
 1767              	.LVL139:
 938:Drivers/STM32F4xx_HAL_Driver/Src/stm32f4xx_ll_usb.c ****     USBx_OUTEP(epnum)->DOEPTSIZ &= ~(USB_OTG_DOEPTSIZ_PKTCNT);
 1768              		.loc 1 938 33 view .LVU541
ARM GAS  /tmp/ccSVR7EX.s 			page 65


 1769 000e 00F53063 		add	r3, r0, #2816
 1770              	.LVL140:
 938:Drivers/STM32F4xx_HAL_Driver/Src/stm32f4xx_ll_usb.c ****     USBx_OUTEP(epnum)->DOEPTSIZ &= ~(USB_OTG_DOEPTSIZ_PKTCNT);
 1771              		.loc 1 938 33 view .LVU542
 1772 0012 1C69     		ldr	r4, [r3, #16]
 1773 0014 E40C     		lsrs	r4, r4, #19
 1774 0016 E404     		lsls	r4, r4, #19
 1775 0018 1C61     		str	r4, [r3, #16]
 1776              	.LVL141:
 939:Drivers/STM32F4xx_HAL_Driver/Src/stm32f4xx_ll_usb.c **** 
 1777              		.loc 1 939 5 is_stmt 1 view .LVU543
 939:Drivers/STM32F4xx_HAL_Driver/Src/stm32f4xx_ll_usb.c **** 
 1778              		.loc 1 939 33 is_stmt 0 view .LVU544
 1779 001a 1C69     		ldr	r4, [r3, #16]
 1780 001c 24F0FF54 		bic	r4, r4, #534773760
 1781 0020 24F4C014 		bic	r4, r4, #1572864
 1782 0024 1C61     		str	r4, [r3, #16]
 941:Drivers/STM32F4xx_HAL_Driver/Src/stm32f4xx_ll_usb.c ****     {
 1783              		.loc 1 941 5 is_stmt 1 view .LVU545
 941:Drivers/STM32F4xx_HAL_Driver/Src/stm32f4xx_ll_usb.c ****     {
 1784              		.loc 1 941 11 is_stmt 0 view .LVU546
 1785 0026 4C69     		ldr	r4, [r1, #20]
 941:Drivers/STM32F4xx_HAL_Driver/Src/stm32f4xx_ll_usb.c ****     {
 1786              		.loc 1 941 8 view .LVU547
 1787 0028 0CB1     		cbz	r4, .L130
 943:Drivers/STM32F4xx_HAL_Driver/Src/stm32f4xx_ll_usb.c ****     }
 1788              		.loc 1 943 7 is_stmt 1 view .LVU548
 943:Drivers/STM32F4xx_HAL_Driver/Src/stm32f4xx_ll_usb.c ****     }
 1789              		.loc 1 943 24 is_stmt 0 view .LVU549
 1790 002a 8C68     		ldr	r4, [r1, #8]
 943:Drivers/STM32F4xx_HAL_Driver/Src/stm32f4xx_ll_usb.c ****     }
 1791              		.loc 1 943 20 view .LVU550
 1792 002c 4C61     		str	r4, [r1, #20]
 1793              	.L130:
 946:Drivers/STM32F4xx_HAL_Driver/Src/stm32f4xx_ll_usb.c ****     USBx_OUTEP(epnum)->DOEPTSIZ |= (USB_OTG_DOEPTSIZ_XFRSIZ & (ep->maxpacket));
 1794              		.loc 1 946 5 is_stmt 1 view .LVU551
 946:Drivers/STM32F4xx_HAL_Driver/Src/stm32f4xx_ll_usb.c ****     USBx_OUTEP(epnum)->DOEPTSIZ |= (USB_OTG_DOEPTSIZ_XFRSIZ & (ep->maxpacket));
 1795              		.loc 1 946 33 is_stmt 0 view .LVU552
 1796 002e 1C69     		ldr	r4, [r3, #16]
 1797 0030 44F40024 		orr	r4, r4, #524288
 1798 0034 1C61     		str	r4, [r3, #16]
 947:Drivers/STM32F4xx_HAL_Driver/Src/stm32f4xx_ll_usb.c **** 
 1799              		.loc 1 947 5 is_stmt 1 view .LVU553
 947:Drivers/STM32F4xx_HAL_Driver/Src/stm32f4xx_ll_usb.c **** 
 1800              		.loc 1 947 33 is_stmt 0 view .LVU554
 1801 0036 1C69     		ldr	r4, [r3, #16]
 947:Drivers/STM32F4xx_HAL_Driver/Src/stm32f4xx_ll_usb.c **** 
 1802              		.loc 1 947 66 view .LVU555
 1803 0038 8D68     		ldr	r5, [r1, #8]
 947:Drivers/STM32F4xx_HAL_Driver/Src/stm32f4xx_ll_usb.c **** 
 1804              		.loc 1 947 61 view .LVU556
 1805 003a C5F31205 		ubfx	r5, r5, #0, #19
 947:Drivers/STM32F4xx_HAL_Driver/Src/stm32f4xx_ll_usb.c **** 
 1806              		.loc 1 947 33 view .LVU557
 1807 003e 2C43     		orrs	r4, r4, r5
 1808 0040 1C61     		str	r4, [r3, #16]
 949:Drivers/STM32F4xx_HAL_Driver/Src/stm32f4xx_ll_usb.c ****     {
ARM GAS  /tmp/ccSVR7EX.s 			page 66


 1809              		.loc 1 949 5 is_stmt 1 view .LVU558
 949:Drivers/STM32F4xx_HAL_Driver/Src/stm32f4xx_ll_usb.c ****     {
 1810              		.loc 1 949 8 is_stmt 0 view .LVU559
 1811 0042 012A     		cmp	r2, #1
 1812 0044 65D0     		beq	.L134
 1813              	.LVL142:
 1814              	.L131:
 958:Drivers/STM32F4xx_HAL_Driver/Src/stm32f4xx_ll_usb.c ****   }
 1815              		.loc 1 958 5 is_stmt 1 view .LVU560
 958:Drivers/STM32F4xx_HAL_Driver/Src/stm32f4xx_ll_usb.c ****   }
 1816              		.loc 1 958 32 is_stmt 0 view .LVU561
 1817 0046 D0F8003B 		ldr	r3, [r0, #2816]
 1818 004a 43F00443 		orr	r3, r3, #-2080374784
 1819 004e C0F8003B 		str	r3, [r0, #2816]
 1820              	.LVL143:
 1821              	.L129:
 961:Drivers/STM32F4xx_HAL_Driver/Src/stm32f4xx_ll_usb.c **** }
 1822              		.loc 1 961 3 is_stmt 1 view .LVU562
 962:Drivers/STM32F4xx_HAL_Driver/Src/stm32f4xx_ll_usb.c **** 
 1823              		.loc 1 962 1 is_stmt 0 view .LVU563
 1824 0052 0020     		movs	r0, #0
 1825 0054 70BC     		pop	{r4, r5, r6}
 1826              	.LCFI27:
 1827              		.cfi_remember_state
 1828              		.cfi_restore 6
 1829              		.cfi_restore 5
 1830              		.cfi_restore 4
 1831              		.cfi_def_cfa_offset 0
 1832 0056 7047     		bx	lr
 1833              	.LVL144:
 1834              	.L133:
 1835              	.LCFI28:
 1836              		.cfi_restore_state
 886:Drivers/STM32F4xx_HAL_Driver/Src/stm32f4xx_ll_usb.c ****     {
 1837              		.loc 1 886 5 is_stmt 1 view .LVU564
 886:Drivers/STM32F4xx_HAL_Driver/Src/stm32f4xx_ll_usb.c ****     {
 1838              		.loc 1 886 11 is_stmt 0 view .LVU565
 1839 0058 4C69     		ldr	r4, [r1, #20]
 886:Drivers/STM32F4xx_HAL_Driver/Src/stm32f4xx_ll_usb.c ****     {
 1840              		.loc 1 886 8 view .LVU566
 1841 005a 6CBB     		cbnz	r4, .L124
 888:Drivers/STM32F4xx_HAL_Driver/Src/stm32f4xx_ll_usb.c ****       USBx_INEP(epnum)->DIEPTSIZ |= (USB_OTG_DIEPTSIZ_PKTCNT & (1U << 19));
 1842              		.loc 1 888 7 is_stmt 1 view .LVU567
 888:Drivers/STM32F4xx_HAL_Driver/Src/stm32f4xx_ll_usb.c ****       USBx_INEP(epnum)->DIEPTSIZ |= (USB_OTG_DIEPTSIZ_PKTCNT & (1U << 19));
 1843              		.loc 1 888 34 is_stmt 0 view .LVU568
 1844 005c 00EB4314 		add	r4, r0, r3, lsl #5
 1845 0060 D4F81059 		ldr	r5, [r4, #2320]
 1846 0064 25F0FF55 		bic	r5, r5, #534773760
 1847 0068 25F4C015 		bic	r5, r5, #1572864
 1848 006c C4F81059 		str	r5, [r4, #2320]
 889:Drivers/STM32F4xx_HAL_Driver/Src/stm32f4xx_ll_usb.c ****       USBx_INEP(epnum)->DIEPTSIZ &= ~(USB_OTG_DIEPTSIZ_XFRSIZ);
 1849              		.loc 1 889 7 is_stmt 1 view .LVU569
 889:Drivers/STM32F4xx_HAL_Driver/Src/stm32f4xx_ll_usb.c ****       USBx_INEP(epnum)->DIEPTSIZ &= ~(USB_OTG_DIEPTSIZ_XFRSIZ);
 1850              		.loc 1 889 34 is_stmt 0 view .LVU570
 1851 0070 D4F81059 		ldr	r5, [r4, #2320]
 1852 0074 45F40025 		orr	r5, r5, #524288
 1853 0078 C4F81059 		str	r5, [r4, #2320]
ARM GAS  /tmp/ccSVR7EX.s 			page 67


 890:Drivers/STM32F4xx_HAL_Driver/Src/stm32f4xx_ll_usb.c ****     }
 1854              		.loc 1 890 7 is_stmt 1 view .LVU571
 890:Drivers/STM32F4xx_HAL_Driver/Src/stm32f4xx_ll_usb.c ****     }
 1855              		.loc 1 890 34 is_stmt 0 view .LVU572
 1856 007c D4F81059 		ldr	r5, [r4, #2320]
 1857 0080 ED0C     		lsrs	r5, r5, #19
 1858 0082 ED04     		lsls	r5, r5, #19
 1859 0084 C4F81059 		str	r5, [r4, #2320]
 1860              	.L125:
 910:Drivers/STM32F4xx_HAL_Driver/Src/stm32f4xx_ll_usb.c ****     {
 1861              		.loc 1 910 5 is_stmt 1 view .LVU573
 910:Drivers/STM32F4xx_HAL_Driver/Src/stm32f4xx_ll_usb.c ****     {
 1862              		.loc 1 910 8 is_stmt 0 view .LVU574
 1863 0088 012A     		cmp	r2, #1
 1864 008a 33D0     		beq	.L135
 923:Drivers/STM32F4xx_HAL_Driver/Src/stm32f4xx_ll_usb.c **** 
 1865              		.loc 1 923 7 is_stmt 1 view .LVU575
 923:Drivers/STM32F4xx_HAL_Driver/Src/stm32f4xx_ll_usb.c **** 
 1866              		.loc 1 923 33 is_stmt 0 view .LVU576
 1867 008c 00EB4313 		add	r3, r0, r3, lsl #5
 1868              	.LVL145:
 923:Drivers/STM32F4xx_HAL_Driver/Src/stm32f4xx_ll_usb.c **** 
 1869              		.loc 1 923 33 view .LVU577
 1870 0090 D3F80029 		ldr	r2, [r3, #2304]
 1871              	.LVL146:
 923:Drivers/STM32F4xx_HAL_Driver/Src/stm32f4xx_ll_usb.c **** 
 1872              		.loc 1 923 33 view .LVU578
 1873 0094 42F00442 		orr	r2, r2, #-2080374784
 1874 0098 C3F80029 		str	r2, [r3, #2304]
 926:Drivers/STM32F4xx_HAL_Driver/Src/stm32f4xx_ll_usb.c ****       {
 1875              		.loc 1 926 7 is_stmt 1 view .LVU579
 926:Drivers/STM32F4xx_HAL_Driver/Src/stm32f4xx_ll_usb.c ****       {
 1876              		.loc 1 926 13 is_stmt 0 view .LVU580
 1877 009c 4B69     		ldr	r3, [r1, #20]
 926:Drivers/STM32F4xx_HAL_Driver/Src/stm32f4xx_ll_usb.c ****       {
 1878              		.loc 1 926 10 view .LVU581
 1879 009e 002B     		cmp	r3, #0
 1880 00a0 D7D0     		beq	.L129
 928:Drivers/STM32F4xx_HAL_Driver/Src/stm32f4xx_ll_usb.c ****       }
 1881              		.loc 1 928 9 is_stmt 1 view .LVU582
 928:Drivers/STM32F4xx_HAL_Driver/Src/stm32f4xx_ll_usb.c ****       }
 1882              		.loc 1 928 33 is_stmt 0 view .LVU583
 1883 00a2 D0F83438 		ldr	r3, [r0, #2100]
 928:Drivers/STM32F4xx_HAL_Driver/Src/stm32f4xx_ll_usb.c ****       }
 1884              		.loc 1 928 46 view .LVU584
 1885 00a6 0A78     		ldrb	r2, [r1]	@ zero_extendqisi2
 928:Drivers/STM32F4xx_HAL_Driver/Src/stm32f4xx_ll_usb.c ****       }
 1886              		.loc 1 928 52 view .LVU585
 1887 00a8 02F00F01 		and	r1, r2, #15
 1888              	.LVL147:
 928:Drivers/STM32F4xx_HAL_Driver/Src/stm32f4xx_ll_usb.c ****       }
 1889              		.loc 1 928 40 view .LVU586
 1890 00ac 0122     		movs	r2, #1
 1891 00ae 8A40     		lsls	r2, r2, r1
 928:Drivers/STM32F4xx_HAL_Driver/Src/stm32f4xx_ll_usb.c ****       }
 1892              		.loc 1 928 33 view .LVU587
 1893 00b0 1343     		orrs	r3, r3, r2
ARM GAS  /tmp/ccSVR7EX.s 			page 68


 1894 00b2 C0F83438 		str	r3, [r0, #2100]
 1895 00b6 CCE7     		b	.L129
 1896              	.LVL148:
 1897              	.L124:
 899:Drivers/STM32F4xx_HAL_Driver/Src/stm32f4xx_ll_usb.c ****       USBx_INEP(epnum)->DIEPTSIZ &= ~(USB_OTG_DIEPTSIZ_PKTCNT);
 1898              		.loc 1 899 7 is_stmt 1 view .LVU588
 899:Drivers/STM32F4xx_HAL_Driver/Src/stm32f4xx_ll_usb.c ****       USBx_INEP(epnum)->DIEPTSIZ &= ~(USB_OTG_DIEPTSIZ_PKTCNT);
 1899              		.loc 1 899 34 is_stmt 0 view .LVU589
 1900 00b8 00EB4314 		add	r4, r0, r3, lsl #5
 1901 00bc 04F51064 		add	r4, r4, #2304
 1902 00c0 2569     		ldr	r5, [r4, #16]
 1903 00c2 ED0C     		lsrs	r5, r5, #19
 1904 00c4 ED04     		lsls	r5, r5, #19
 1905 00c6 2561     		str	r5, [r4, #16]
 900:Drivers/STM32F4xx_HAL_Driver/Src/stm32f4xx_ll_usb.c **** 
 1906              		.loc 1 900 7 is_stmt 1 view .LVU590
 900:Drivers/STM32F4xx_HAL_Driver/Src/stm32f4xx_ll_usb.c **** 
 1907              		.loc 1 900 34 is_stmt 0 view .LVU591
 1908 00c8 2569     		ldr	r5, [r4, #16]
 1909 00ca 25F0FF55 		bic	r5, r5, #534773760
 1910 00ce 25F4C015 		bic	r5, r5, #1572864
 1911 00d2 2561     		str	r5, [r4, #16]
 902:Drivers/STM32F4xx_HAL_Driver/Src/stm32f4xx_ll_usb.c ****       {
 1912              		.loc 1 902 7 is_stmt 1 view .LVU592
 902:Drivers/STM32F4xx_HAL_Driver/Src/stm32f4xx_ll_usb.c ****       {
 1913              		.loc 1 902 13 is_stmt 0 view .LVU593
 1914 00d4 4E69     		ldr	r6, [r1, #20]
 902:Drivers/STM32F4xx_HAL_Driver/Src/stm32f4xx_ll_usb.c ****       {
 1915              		.loc 1 902 28 view .LVU594
 1916 00d6 8D68     		ldr	r5, [r1, #8]
 902:Drivers/STM32F4xx_HAL_Driver/Src/stm32f4xx_ll_usb.c ****       {
 1917              		.loc 1 902 10 view .LVU595
 1918 00d8 AE42     		cmp	r6, r5
 1919 00da 00D9     		bls	.L126
 904:Drivers/STM32F4xx_HAL_Driver/Src/stm32f4xx_ll_usb.c ****       }
 1920              		.loc 1 904 9 is_stmt 1 view .LVU596
 904:Drivers/STM32F4xx_HAL_Driver/Src/stm32f4xx_ll_usb.c ****       }
 1921              		.loc 1 904 22 is_stmt 0 view .LVU597
 1922 00dc 4D61     		str	r5, [r1, #20]
 1923              	.L126:
 906:Drivers/STM32F4xx_HAL_Driver/Src/stm32f4xx_ll_usb.c ****       USBx_INEP(epnum)->DIEPTSIZ |= (USB_OTG_DIEPTSIZ_XFRSIZ & ep->xfer_len);
 1924              		.loc 1 906 7 is_stmt 1 view .LVU598
 906:Drivers/STM32F4xx_HAL_Driver/Src/stm32f4xx_ll_usb.c ****       USBx_INEP(epnum)->DIEPTSIZ |= (USB_OTG_DIEPTSIZ_XFRSIZ & ep->xfer_len);
 1925              		.loc 1 906 34 is_stmt 0 view .LVU599
 1926 00de 2569     		ldr	r5, [r4, #16]
 1927 00e0 45F40025 		orr	r5, r5, #524288
 1928 00e4 2561     		str	r5, [r4, #16]
 907:Drivers/STM32F4xx_HAL_Driver/Src/stm32f4xx_ll_usb.c ****     }
 1929              		.loc 1 907 7 is_stmt 1 view .LVU600
 907:Drivers/STM32F4xx_HAL_Driver/Src/stm32f4xx_ll_usb.c ****     }
 1930              		.loc 1 907 34 is_stmt 0 view .LVU601
 1931 00e6 2569     		ldr	r5, [r4, #16]
 907:Drivers/STM32F4xx_HAL_Driver/Src/stm32f4xx_ll_usb.c ****     }
 1932              		.loc 1 907 66 view .LVU602
 1933 00e8 4E69     		ldr	r6, [r1, #20]
 907:Drivers/STM32F4xx_HAL_Driver/Src/stm32f4xx_ll_usb.c ****     }
 1934              		.loc 1 907 62 view .LVU603
ARM GAS  /tmp/ccSVR7EX.s 			page 69


 1935 00ea C6F31206 		ubfx	r6, r6, #0, #19
 907:Drivers/STM32F4xx_HAL_Driver/Src/stm32f4xx_ll_usb.c ****     }
 1936              		.loc 1 907 34 view .LVU604
 1937 00ee 3543     		orrs	r5, r5, r6
 1938 00f0 2561     		str	r5, [r4, #16]
 1939 00f2 C9E7     		b	.L125
 1940              	.L135:
 912:Drivers/STM32F4xx_HAL_Driver/Src/stm32f4xx_ll_usb.c ****       {
 1941              		.loc 1 912 7 is_stmt 1 view .LVU605
 912:Drivers/STM32F4xx_HAL_Driver/Src/stm32f4xx_ll_usb.c ****       {
 1942              		.loc 1 912 23 is_stmt 0 view .LVU606
 1943 00f4 0A69     		ldr	r2, [r1, #16]
 1944              	.LVL149:
 912:Drivers/STM32F4xx_HAL_Driver/Src/stm32f4xx_ll_usb.c ****       {
 1945              		.loc 1 912 10 view .LVU607
 1946 00f6 1AB1     		cbz	r2, .L128
 914:Drivers/STM32F4xx_HAL_Driver/Src/stm32f4xx_ll_usb.c ****       }
 1947              		.loc 1 914 9 is_stmt 1 view .LVU608
 1948 00f8 00EB4311 		add	r1, r0, r3, lsl #5
 1949              	.LVL150:
 914:Drivers/STM32F4xx_HAL_Driver/Src/stm32f4xx_ll_usb.c ****       }
 1950              		.loc 1 914 35 is_stmt 0 view .LVU609
 1951 00fc C1F81429 		str	r2, [r1, #2324]
 1952              	.L128:
 918:Drivers/STM32F4xx_HAL_Driver/Src/stm32f4xx_ll_usb.c ****     }
 1953              		.loc 1 918 7 is_stmt 1 view .LVU610
 918:Drivers/STM32F4xx_HAL_Driver/Src/stm32f4xx_ll_usb.c ****     }
 1954              		.loc 1 918 33 is_stmt 0 view .LVU611
 1955 0100 00EB4310 		add	r0, r0, r3, lsl #5
 1956              	.LVL151:
 918:Drivers/STM32F4xx_HAL_Driver/Src/stm32f4xx_ll_usb.c ****     }
 1957              		.loc 1 918 33 view .LVU612
 1958 0104 D0F80029 		ldr	r2, [r0, #2304]
 1959 0108 42F00442 		orr	r2, r2, #-2080374784
 1960 010c C0F80029 		str	r2, [r0, #2304]
 1961 0110 9FE7     		b	.L129
 1962              	.LVL152:
 1963              	.L134:
 951:Drivers/STM32F4xx_HAL_Driver/Src/stm32f4xx_ll_usb.c ****       {
 1964              		.loc 1 951 7 is_stmt 1 view .LVU613
 951:Drivers/STM32F4xx_HAL_Driver/Src/stm32f4xx_ll_usb.c ****       {
 1965              		.loc 1 951 23 is_stmt 0 view .LVU614
 1966 0112 CA68     		ldr	r2, [r1, #12]
 1967              	.LVL153:
 951:Drivers/STM32F4xx_HAL_Driver/Src/stm32f4xx_ll_usb.c ****       {
 1968              		.loc 1 951 10 view .LVU615
 1969 0114 002A     		cmp	r2, #0
 1970 0116 96D0     		beq	.L131
 953:Drivers/STM32F4xx_HAL_Driver/Src/stm32f4xx_ll_usb.c ****       }
 1971              		.loc 1 953 9 is_stmt 1 view .LVU616
 953:Drivers/STM32F4xx_HAL_Driver/Src/stm32f4xx_ll_usb.c ****       }
 1972              		.loc 1 953 36 is_stmt 0 view .LVU617
 1973 0118 5A61     		str	r2, [r3, #20]
 1974 011a 94E7     		b	.L131
 1975              		.cfi_endproc
 1976              	.LFE145:
 1978              		.section	.text.USB_WritePacket,"ax",%progbits
ARM GAS  /tmp/ccSVR7EX.s 			page 70


 1979              		.align	1
 1980              		.global	USB_WritePacket
 1981              		.syntax unified
 1982              		.thumb
 1983              		.thumb_func
 1984              		.fpu fpv4-sp-d16
 1986              	USB_WritePacket:
 1987              	.LVL154:
 1988              	.LFB146:
 979:Drivers/STM32F4xx_HAL_Driver/Src/stm32f4xx_ll_usb.c ****   uint32_t USBx_BASE = (uint32_t)USBx;
 1989              		.loc 1 979 1 is_stmt 1 view -0
 1990              		.cfi_startproc
 1991              		@ args = 4, pretend = 0, frame = 0
 1992              		@ frame_needed = 0, uses_anonymous_args = 0
 1993              		@ link register save eliminated.
 979:Drivers/STM32F4xx_HAL_Driver/Src/stm32f4xx_ll_usb.c ****   uint32_t USBx_BASE = (uint32_t)USBx;
 1994              		.loc 1 979 1 is_stmt 0 view .LVU619
 1995 0000 70B4     		push	{r4, r5, r6}
 1996              	.LCFI29:
 1997              		.cfi_def_cfa_offset 12
 1998              		.cfi_offset 4, -12
 1999              		.cfi_offset 5, -8
 2000              		.cfi_offset 6, -4
 2001 0002 9DF80C40 		ldrb	r4, [sp, #12]	@ zero_extendqisi2
 980:Drivers/STM32F4xx_HAL_Driver/Src/stm32f4xx_ll_usb.c ****   uint8_t *pSrc = src;
 2002              		.loc 1 980 3 is_stmt 1 view .LVU620
 2003              	.LVL155:
 981:Drivers/STM32F4xx_HAL_Driver/Src/stm32f4xx_ll_usb.c ****   uint32_t count32b;
 2004              		.loc 1 981 3 view .LVU621
 982:Drivers/STM32F4xx_HAL_Driver/Src/stm32f4xx_ll_usb.c ****   uint32_t i;
 2005              		.loc 1 982 3 view .LVU622
 983:Drivers/STM32F4xx_HAL_Driver/Src/stm32f4xx_ll_usb.c **** 
 2006              		.loc 1 983 3 view .LVU623
 985:Drivers/STM32F4xx_HAL_Driver/Src/stm32f4xx_ll_usb.c ****   {
 2007              		.loc 1 985 3 view .LVU624
 985:Drivers/STM32F4xx_HAL_Driver/Src/stm32f4xx_ll_usb.c ****   {
 2008              		.loc 1 985 6 is_stmt 0 view .LVU625
 2009 0006 64B9     		cbnz	r4, .L137
 987:Drivers/STM32F4xx_HAL_Driver/Src/stm32f4xx_ll_usb.c ****     for (i = 0U; i < count32b; i++)
 2010              		.loc 1 987 5 is_stmt 1 view .LVU626
 987:Drivers/STM32F4xx_HAL_Driver/Src/stm32f4xx_ll_usb.c ****     for (i = 0U; i < count32b; i++)
 2011              		.loc 1 987 31 is_stmt 0 view .LVU627
 2012 0008 0333     		adds	r3, r3, #3
 2013              	.LVL156:
 987:Drivers/STM32F4xx_HAL_Driver/Src/stm32f4xx_ll_usb.c ****     for (i = 0U; i < count32b; i++)
 2014              		.loc 1 987 14 view .LVU628
 2015 000a 9D08     		lsrs	r5, r3, #2
 2016              	.LVL157:
 988:Drivers/STM32F4xx_HAL_Driver/Src/stm32f4xx_ll_usb.c ****     {
 2017              		.loc 1 988 5 is_stmt 1 view .LVU629
 2018              	.L138:
 988:Drivers/STM32F4xx_HAL_Driver/Src/stm32f4xx_ll_usb.c ****     {
 2019              		.loc 1 988 18 discriminator 1 view .LVU630
 988:Drivers/STM32F4xx_HAL_Driver/Src/stm32f4xx_ll_usb.c ****     {
 2020              		.loc 1 988 5 is_stmt 0 discriminator 1 view .LVU631
 2021 000c AC42     		cmp	r4, r5
 2022 000e 08D2     		bcs	.L137
ARM GAS  /tmp/ccSVR7EX.s 			page 71


 990:Drivers/STM32F4xx_HAL_Driver/Src/stm32f4xx_ll_usb.c ****       pSrc++;
 2023              		.loc 1 990 7 is_stmt 1 discriminator 3 view .LVU632
 2024 0010 00EB0233 		add	r3, r0, r2, lsl #12
 2025 0014 03F58053 		add	r3, r3, #4096
 990:Drivers/STM32F4xx_HAL_Driver/Src/stm32f4xx_ll_usb.c ****       pSrc++;
 2026              		.loc 1 990 41 is_stmt 0 discriminator 3 view .LVU633
 2027 0018 51F8046B 		ldr	r6, [r1], #4	@ unaligned
 2028              	.LVL158:
 990:Drivers/STM32F4xx_HAL_Driver/Src/stm32f4xx_ll_usb.c ****       pSrc++;
 2029              		.loc 1 990 39 discriminator 3 view .LVU634
 2030 001c 1E60     		str	r6, [r3]
 991:Drivers/STM32F4xx_HAL_Driver/Src/stm32f4xx_ll_usb.c ****       pSrc++;
 2031              		.loc 1 991 7 is_stmt 1 discriminator 3 view .LVU635
 2032              	.LVL159:
 992:Drivers/STM32F4xx_HAL_Driver/Src/stm32f4xx_ll_usb.c ****       pSrc++;
 2033              		.loc 1 992 7 discriminator 3 view .LVU636
 993:Drivers/STM32F4xx_HAL_Driver/Src/stm32f4xx_ll_usb.c ****       pSrc++;
 2034              		.loc 1 993 7 discriminator 3 view .LVU637
 994:Drivers/STM32F4xx_HAL_Driver/Src/stm32f4xx_ll_usb.c ****     }
 2035              		.loc 1 994 7 discriminator 3 view .LVU638
 988:Drivers/STM32F4xx_HAL_Driver/Src/stm32f4xx_ll_usb.c ****     {
 2036              		.loc 1 988 32 discriminator 3 view .LVU639
 988:Drivers/STM32F4xx_HAL_Driver/Src/stm32f4xx_ll_usb.c ****     {
 2037              		.loc 1 988 33 is_stmt 0 discriminator 3 view .LVU640
 2038 001e 0134     		adds	r4, r4, #1
 2039              	.LVL160:
 988:Drivers/STM32F4xx_HAL_Driver/Src/stm32f4xx_ll_usb.c ****     {
 2040              		.loc 1 988 33 discriminator 3 view .LVU641
 2041 0020 F4E7     		b	.L138
 2042              	.LVL161:
 2043              	.L137:
 998:Drivers/STM32F4xx_HAL_Driver/Src/stm32f4xx_ll_usb.c **** }
 2044              		.loc 1 998 3 is_stmt 1 view .LVU642
 999:Drivers/STM32F4xx_HAL_Driver/Src/stm32f4xx_ll_usb.c **** 
 2045              		.loc 1 999 1 is_stmt 0 view .LVU643
 2046 0022 0020     		movs	r0, #0
 2047              	.LVL162:
 999:Drivers/STM32F4xx_HAL_Driver/Src/stm32f4xx_ll_usb.c **** 
 2048              		.loc 1 999 1 view .LVU644
 2049 0024 70BC     		pop	{r4, r5, r6}
 2050              	.LCFI30:
 2051              		.cfi_restore 6
 2052              		.cfi_restore 5
 2053              		.cfi_restore 4
 2054              		.cfi_def_cfa_offset 0
 2055              	.LVL163:
 999:Drivers/STM32F4xx_HAL_Driver/Src/stm32f4xx_ll_usb.c **** 
 2056              		.loc 1 999 1 view .LVU645
 2057 0026 7047     		bx	lr
 2058              		.cfi_endproc
 2059              	.LFE146:
 2061              		.section	.text.USB_EPStartXfer,"ax",%progbits
 2062              		.align	1
 2063              		.global	USB_EPStartXfer
 2064              		.syntax unified
 2065              		.thumb
 2066              		.thumb_func
ARM GAS  /tmp/ccSVR7EX.s 			page 72


 2067              		.fpu fpv4-sp-d16
 2069              	USB_EPStartXfer:
 2070              	.LVL164:
 2071              	.LFB144:
 734:Drivers/STM32F4xx_HAL_Driver/Src/stm32f4xx_ll_usb.c ****   uint32_t USBx_BASE = (uint32_t)USBx;
 2072              		.loc 1 734 1 is_stmt 1 view -0
 2073              		.cfi_startproc
 2074              		@ args = 0, pretend = 0, frame = 0
 2075              		@ frame_needed = 0, uses_anonymous_args = 0
 734:Drivers/STM32F4xx_HAL_Driver/Src/stm32f4xx_ll_usb.c ****   uint32_t USBx_BASE = (uint32_t)USBx;
 2076              		.loc 1 734 1 is_stmt 0 view .LVU647
 2077 0000 F0B5     		push	{r4, r5, r6, r7, lr}
 2078              	.LCFI31:
 2079              		.cfi_def_cfa_offset 20
 2080              		.cfi_offset 4, -20
 2081              		.cfi_offset 5, -16
 2082              		.cfi_offset 6, -12
 2083              		.cfi_offset 7, -8
 2084              		.cfi_offset 14, -4
 2085 0002 83B0     		sub	sp, sp, #12
 2086              	.LCFI32:
 2087              		.cfi_def_cfa_offset 32
 735:Drivers/STM32F4xx_HAL_Driver/Src/stm32f4xx_ll_usb.c ****   uint32_t epnum = (uint32_t)ep->num;
 2088              		.loc 1 735 3 is_stmt 1 view .LVU648
 2089              	.LVL165:
 736:Drivers/STM32F4xx_HAL_Driver/Src/stm32f4xx_ll_usb.c ****   uint16_t pktcnt;
 2090              		.loc 1 736 3 view .LVU649
 736:Drivers/STM32F4xx_HAL_Driver/Src/stm32f4xx_ll_usb.c ****   uint16_t pktcnt;
 2091              		.loc 1 736 32 is_stmt 0 view .LVU650
 2092 0004 0B78     		ldrb	r3, [r1]	@ zero_extendqisi2
 2093              	.LVL166:
 737:Drivers/STM32F4xx_HAL_Driver/Src/stm32f4xx_ll_usb.c **** 
 2094              		.loc 1 737 3 is_stmt 1 view .LVU651
 740:Drivers/STM32F4xx_HAL_Driver/Src/stm32f4xx_ll_usb.c ****   {
 2095              		.loc 1 740 3 view .LVU652
 740:Drivers/STM32F4xx_HAL_Driver/Src/stm32f4xx_ll_usb.c ****   {
 2096              		.loc 1 740 9 is_stmt 0 view .LVU653
 2097 0006 4C78     		ldrb	r4, [r1, #1]	@ zero_extendqisi2
 740:Drivers/STM32F4xx_HAL_Driver/Src/stm32f4xx_ll_usb.c ****   {
 2098              		.loc 1 740 6 view .LVU654
 2099 0008 012C     		cmp	r4, #1
 2100 000a 2BD0     		beq	.L159
 826:Drivers/STM32F4xx_HAL_Driver/Src/stm32f4xx_ll_usb.c ****     USBx_OUTEP(epnum)->DOEPTSIZ &= ~(USB_OTG_DOEPTSIZ_PKTCNT);
 2101              		.loc 1 826 5 is_stmt 1 view .LVU655
 826:Drivers/STM32F4xx_HAL_Driver/Src/stm32f4xx_ll_usb.c ****     USBx_OUTEP(epnum)->DOEPTSIZ &= ~(USB_OTG_DOEPTSIZ_PKTCNT);
 2102              		.loc 1 826 33 is_stmt 0 view .LVU656
 2103 000c 00EB4313 		add	r3, r0, r3, lsl #5
 2104              	.LVL167:
 826:Drivers/STM32F4xx_HAL_Driver/Src/stm32f4xx_ll_usb.c ****     USBx_OUTEP(epnum)->DOEPTSIZ &= ~(USB_OTG_DOEPTSIZ_PKTCNT);
 2105              		.loc 1 826 33 view .LVU657
 2106 0010 03F53064 		add	r4, r3, #2816
 2107 0014 2569     		ldr	r5, [r4, #16]
 2108 0016 ED0C     		lsrs	r5, r5, #19
 2109 0018 ED04     		lsls	r5, r5, #19
 2110 001a 2561     		str	r5, [r4, #16]
 2111              	.LVL168:
 827:Drivers/STM32F4xx_HAL_Driver/Src/stm32f4xx_ll_usb.c **** 
ARM GAS  /tmp/ccSVR7EX.s 			page 73


 2112              		.loc 1 827 5 is_stmt 1 view .LVU658
 827:Drivers/STM32F4xx_HAL_Driver/Src/stm32f4xx_ll_usb.c **** 
 2113              		.loc 1 827 33 is_stmt 0 view .LVU659
 2114 001c 2569     		ldr	r5, [r4, #16]
 2115 001e 25F0FF55 		bic	r5, r5, #534773760
 2116 0022 25F4C015 		bic	r5, r5, #1572864
 2117 0026 2561     		str	r5, [r4, #16]
 829:Drivers/STM32F4xx_HAL_Driver/Src/stm32f4xx_ll_usb.c ****     {
 2118              		.loc 1 829 5 is_stmt 1 view .LVU660
 829:Drivers/STM32F4xx_HAL_Driver/Src/stm32f4xx_ll_usb.c ****     {
 2119              		.loc 1 829 11 is_stmt 0 view .LVU661
 2120 0028 4D69     		ldr	r5, [r1, #20]
 829:Drivers/STM32F4xx_HAL_Driver/Src/stm32f4xx_ll_usb.c ****     {
 2121              		.loc 1 829 8 view .LVU662
 2122 002a 002D     		cmp	r5, #0
 2123 002c 40F0C380 		bne	.L153
 831:Drivers/STM32F4xx_HAL_Driver/Src/stm32f4xx_ll_usb.c ****       USBx_OUTEP(epnum)->DOEPTSIZ |= (USB_OTG_DOEPTSIZ_PKTCNT & (1U << 19));
 2124              		.loc 1 831 7 is_stmt 1 view .LVU663
 831:Drivers/STM32F4xx_HAL_Driver/Src/stm32f4xx_ll_usb.c ****       USBx_OUTEP(epnum)->DOEPTSIZ |= (USB_OTG_DOEPTSIZ_PKTCNT & (1U << 19));
 2125              		.loc 1 831 35 is_stmt 0 view .LVU664
 2126 0030 2569     		ldr	r5, [r4, #16]
 831:Drivers/STM32F4xx_HAL_Driver/Src/stm32f4xx_ll_usb.c ****       USBx_OUTEP(epnum)->DOEPTSIZ |= (USB_OTG_DOEPTSIZ_PKTCNT & (1U << 19));
 2127              		.loc 1 831 67 view .LVU665
 2128 0032 8E68     		ldr	r6, [r1, #8]
 831:Drivers/STM32F4xx_HAL_Driver/Src/stm32f4xx_ll_usb.c ****       USBx_OUTEP(epnum)->DOEPTSIZ |= (USB_OTG_DOEPTSIZ_PKTCNT & (1U << 19));
 2129              		.loc 1 831 63 view .LVU666
 2130 0034 C6F31206 		ubfx	r6, r6, #0, #19
 831:Drivers/STM32F4xx_HAL_Driver/Src/stm32f4xx_ll_usb.c ****       USBx_OUTEP(epnum)->DOEPTSIZ |= (USB_OTG_DOEPTSIZ_PKTCNT & (1U << 19));
 2131              		.loc 1 831 35 view .LVU667
 2132 0038 3543     		orrs	r5, r5, r6
 2133 003a 2561     		str	r5, [r4, #16]
 832:Drivers/STM32F4xx_HAL_Driver/Src/stm32f4xx_ll_usb.c ****     }
 2134              		.loc 1 832 7 is_stmt 1 view .LVU668
 832:Drivers/STM32F4xx_HAL_Driver/Src/stm32f4xx_ll_usb.c ****     }
 2135              		.loc 1 832 35 is_stmt 0 view .LVU669
 2136 003c 2569     		ldr	r5, [r4, #16]
 2137 003e 45F40025 		orr	r5, r5, #524288
 2138 0042 2561     		str	r5, [r4, #16]
 2139              	.L154:
 841:Drivers/STM32F4xx_HAL_Driver/Src/stm32f4xx_ll_usb.c ****     {
 2140              		.loc 1 841 5 is_stmt 1 view .LVU670
 841:Drivers/STM32F4xx_HAL_Driver/Src/stm32f4xx_ll_usb.c ****     {
 2141              		.loc 1 841 8 is_stmt 0 view .LVU671
 2142 0044 012A     		cmp	r2, #1
 2143 0046 00F0CB80 		beq	.L160
 2144              	.LVL169:
 2145              	.L155:
 849:Drivers/STM32F4xx_HAL_Driver/Src/stm32f4xx_ll_usb.c ****     {
 2146              		.loc 1 849 5 is_stmt 1 view .LVU672
 849:Drivers/STM32F4xx_HAL_Driver/Src/stm32f4xx_ll_usb.c ****     {
 2147              		.loc 1 849 11 is_stmt 0 view .LVU673
 2148 004a CA78     		ldrb	r2, [r1, #3]	@ zero_extendqisi2
 849:Drivers/STM32F4xx_HAL_Driver/Src/stm32f4xx_ll_usb.c ****     {
 2149              		.loc 1 849 8 view .LVU674
 2150 004c 012A     		cmp	r2, #1
 2151 004e 00F0CD80 		beq	.L161
 2152              	.L156:
ARM GAS  /tmp/ccSVR7EX.s 			page 74


 861:Drivers/STM32F4xx_HAL_Driver/Src/stm32f4xx_ll_usb.c ****   }
 2153              		.loc 1 861 5 is_stmt 1 view .LVU675
 861:Drivers/STM32F4xx_HAL_Driver/Src/stm32f4xx_ll_usb.c ****   }
 2154              		.loc 1 861 32 is_stmt 0 view .LVU676
 2155 0052 D3F8002B 		ldr	r2, [r3, #2816]
 2156 0056 42F00442 		orr	r2, r2, #-2080374784
 2157 005a C3F8002B 		str	r2, [r3, #2816]
 2158              	.LVL170:
 2159              	.L149:
 864:Drivers/STM32F4xx_HAL_Driver/Src/stm32f4xx_ll_usb.c **** }
 2160              		.loc 1 864 3 is_stmt 1 view .LVU677
 865:Drivers/STM32F4xx_HAL_Driver/Src/stm32f4xx_ll_usb.c **** 
 2161              		.loc 1 865 1 is_stmt 0 view .LVU678
 2162 005e 0020     		movs	r0, #0
 2163 0060 03B0     		add	sp, sp, #12
 2164              	.LCFI33:
 2165              		.cfi_remember_state
 2166              		.cfi_def_cfa_offset 20
 2167              		@ sp needed
 2168 0062 F0BD     		pop	{r4, r5, r6, r7, pc}
 2169              	.LVL171:
 2170              	.L159:
 2171              	.LCFI34:
 2172              		.cfi_restore_state
 743:Drivers/STM32F4xx_HAL_Driver/Src/stm32f4xx_ll_usb.c ****     {
 2173              		.loc 1 743 5 is_stmt 1 view .LVU679
 743:Drivers/STM32F4xx_HAL_Driver/Src/stm32f4xx_ll_usb.c ****     {
 2174              		.loc 1 743 11 is_stmt 0 view .LVU680
 2175 0064 4C69     		ldr	r4, [r1, #20]
 743:Drivers/STM32F4xx_HAL_Driver/Src/stm32f4xx_ll_usb.c ****     {
 2176              		.loc 1 743 8 view .LVU681
 2177 0066 84BB     		cbnz	r4, .L143
 745:Drivers/STM32F4xx_HAL_Driver/Src/stm32f4xx_ll_usb.c ****       USBx_INEP(epnum)->DIEPTSIZ |= (USB_OTG_DIEPTSIZ_PKTCNT & (1U << 19));
 2178              		.loc 1 745 7 is_stmt 1 view .LVU682
 745:Drivers/STM32F4xx_HAL_Driver/Src/stm32f4xx_ll_usb.c ****       USBx_INEP(epnum)->DIEPTSIZ |= (USB_OTG_DIEPTSIZ_PKTCNT & (1U << 19));
 2179              		.loc 1 745 34 is_stmt 0 view .LVU683
 2180 0068 00EB4314 		add	r4, r0, r3, lsl #5
 2181 006c D4F81059 		ldr	r5, [r4, #2320]
 2182 0070 25F0FF55 		bic	r5, r5, #534773760
 2183 0074 25F4C015 		bic	r5, r5, #1572864
 2184 0078 C4F81059 		str	r5, [r4, #2320]
 746:Drivers/STM32F4xx_HAL_Driver/Src/stm32f4xx_ll_usb.c ****       USBx_INEP(epnum)->DIEPTSIZ &= ~(USB_OTG_DIEPTSIZ_XFRSIZ);
 2185              		.loc 1 746 7 is_stmt 1 view .LVU684
 746:Drivers/STM32F4xx_HAL_Driver/Src/stm32f4xx_ll_usb.c ****       USBx_INEP(epnum)->DIEPTSIZ &= ~(USB_OTG_DIEPTSIZ_XFRSIZ);
 2186              		.loc 1 746 34 is_stmt 0 view .LVU685
 2187 007c D4F81059 		ldr	r5, [r4, #2320]
 2188 0080 45F40025 		orr	r5, r5, #524288
 2189 0084 C4F81059 		str	r5, [r4, #2320]
 747:Drivers/STM32F4xx_HAL_Driver/Src/stm32f4xx_ll_usb.c ****     }
 2190              		.loc 1 747 7 is_stmt 1 view .LVU686
 747:Drivers/STM32F4xx_HAL_Driver/Src/stm32f4xx_ll_usb.c ****     }
 2191              		.loc 1 747 34 is_stmt 0 view .LVU687
 2192 0088 D4F81059 		ldr	r5, [r4, #2320]
 2193 008c ED0C     		lsrs	r5, r5, #19
 2194 008e ED04     		lsls	r5, r5, #19
 2195 0090 C4F81059 		str	r5, [r4, #2320]
 2196              	.L144:
ARM GAS  /tmp/ccSVR7EX.s 			page 75


 770:Drivers/STM32F4xx_HAL_Driver/Src/stm32f4xx_ll_usb.c ****     {
 2197              		.loc 1 770 5 is_stmt 1 view .LVU688
 770:Drivers/STM32F4xx_HAL_Driver/Src/stm32f4xx_ll_usb.c ****     {
 2198              		.loc 1 770 8 is_stmt 0 view .LVU689
 2199 0094 012A     		cmp	r2, #1
 2200 0096 4CD0     		beq	.L162
 795:Drivers/STM32F4xx_HAL_Driver/Src/stm32f4xx_ll_usb.c **** 
 2201              		.loc 1 795 7 is_stmt 1 view .LVU690
 795:Drivers/STM32F4xx_HAL_Driver/Src/stm32f4xx_ll_usb.c **** 
 2202              		.loc 1 795 33 is_stmt 0 view .LVU691
 2203 0098 00EB4313 		add	r3, r0, r3, lsl #5
 2204              	.LVL172:
 795:Drivers/STM32F4xx_HAL_Driver/Src/stm32f4xx_ll_usb.c **** 
 2205              		.loc 1 795 33 view .LVU692
 2206 009c D3F80049 		ldr	r4, [r3, #2304]
 2207 00a0 44F00444 		orr	r4, r4, #-2080374784
 2208 00a4 C3F80049 		str	r4, [r3, #2304]
 797:Drivers/STM32F4xx_HAL_Driver/Src/stm32f4xx_ll_usb.c ****       {
 2209              		.loc 1 797 7 is_stmt 1 view .LVU693
 797:Drivers/STM32F4xx_HAL_Driver/Src/stm32f4xx_ll_usb.c ****       {
 2210              		.loc 1 797 13 is_stmt 0 view .LVU694
 2211 00a8 CC78     		ldrb	r4, [r1, #3]	@ zero_extendqisi2
 797:Drivers/STM32F4xx_HAL_Driver/Src/stm32f4xx_ll_usb.c ****       {
 2212              		.loc 1 797 10 view .LVU695
 2213 00aa 012C     		cmp	r4, #1
 2214 00ac 6AD0     		beq	.L150
 800:Drivers/STM32F4xx_HAL_Driver/Src/stm32f4xx_ll_usb.c ****         {
 2215              		.loc 1 800 9 is_stmt 1 view .LVU696
 800:Drivers/STM32F4xx_HAL_Driver/Src/stm32f4xx_ll_usb.c ****         {
 2216              		.loc 1 800 15 is_stmt 0 view .LVU697
 2217 00ae 4B69     		ldr	r3, [r1, #20]
 800:Drivers/STM32F4xx_HAL_Driver/Src/stm32f4xx_ll_usb.c ****         {
 2218              		.loc 1 800 12 view .LVU698
 2219 00b0 002B     		cmp	r3, #0
 2220 00b2 D4D0     		beq	.L149
 802:Drivers/STM32F4xx_HAL_Driver/Src/stm32f4xx_ll_usb.c ****         }
 2221              		.loc 1 802 11 is_stmt 1 view .LVU699
 802:Drivers/STM32F4xx_HAL_Driver/Src/stm32f4xx_ll_usb.c ****         }
 2222              		.loc 1 802 35 is_stmt 0 view .LVU700
 2223 00b4 D0F83428 		ldr	r2, [r0, #2100]
 2224              	.LVL173:
 802:Drivers/STM32F4xx_HAL_Driver/Src/stm32f4xx_ll_usb.c ****         }
 2225              		.loc 1 802 48 view .LVU701
 2226 00b8 0978     		ldrb	r1, [r1]	@ zero_extendqisi2
 2227              	.LVL174:
 802:Drivers/STM32F4xx_HAL_Driver/Src/stm32f4xx_ll_usb.c ****         }
 2228              		.loc 1 802 54 view .LVU702
 2229 00ba 01F00F04 		and	r4, r1, #15
 802:Drivers/STM32F4xx_HAL_Driver/Src/stm32f4xx_ll_usb.c ****         }
 2230              		.loc 1 802 42 view .LVU703
 2231 00be 0121     		movs	r1, #1
 2232 00c0 A140     		lsls	r1, r1, r4
 802:Drivers/STM32F4xx_HAL_Driver/Src/stm32f4xx_ll_usb.c ****         }
 2233              		.loc 1 802 35 view .LVU704
 2234 00c2 0A43     		orrs	r2, r2, r1
 2235 00c4 C0F83428 		str	r2, [r0, #2100]
 2236 00c8 C9E7     		b	.L149
ARM GAS  /tmp/ccSVR7EX.s 			page 76


 2237              	.LVL175:
 2238              	.L143:
 756:Drivers/STM32F4xx_HAL_Driver/Src/stm32f4xx_ll_usb.c ****       USBx_INEP(epnum)->DIEPTSIZ &= ~(USB_OTG_DIEPTSIZ_PKTCNT);
 2239              		.loc 1 756 7 is_stmt 1 view .LVU705
 756:Drivers/STM32F4xx_HAL_Driver/Src/stm32f4xx_ll_usb.c ****       USBx_INEP(epnum)->DIEPTSIZ &= ~(USB_OTG_DIEPTSIZ_PKTCNT);
 2240              		.loc 1 756 34 is_stmt 0 view .LVU706
 2241 00ca 00EB4314 		add	r4, r0, r3, lsl #5
 2242 00ce D4F81059 		ldr	r5, [r4, #2320]
 2243 00d2 ED0C     		lsrs	r5, r5, #19
 2244 00d4 ED04     		lsls	r5, r5, #19
 2245 00d6 C4F81059 		str	r5, [r4, #2320]
 757:Drivers/STM32F4xx_HAL_Driver/Src/stm32f4xx_ll_usb.c ****       USBx_INEP(epnum)->DIEPTSIZ |= (USB_OTG_DIEPTSIZ_PKTCNT &
 2246              		.loc 1 757 7 is_stmt 1 view .LVU707
 757:Drivers/STM32F4xx_HAL_Driver/Src/stm32f4xx_ll_usb.c ****       USBx_INEP(epnum)->DIEPTSIZ |= (USB_OTG_DIEPTSIZ_PKTCNT &
 2247              		.loc 1 757 34 is_stmt 0 view .LVU708
 2248 00da D4F81059 		ldr	r5, [r4, #2320]
 2249 00de 25F0FF55 		bic	r5, r5, #534773760
 2250 00e2 25F4C015 		bic	r5, r5, #1572864
 2251 00e6 C4F81059 		str	r5, [r4, #2320]
 758:Drivers/STM32F4xx_HAL_Driver/Src/stm32f4xx_ll_usb.c ****                                      (((ep->xfer_len + ep->maxpacket - 1U) / ep->maxpacket) << 19))
 2252              		.loc 1 758 7 is_stmt 1 view .LVU709
 758:Drivers/STM32F4xx_HAL_Driver/Src/stm32f4xx_ll_usb.c ****                                      (((ep->xfer_len + ep->maxpacket - 1U) / ep->maxpacket) << 19))
 2253              		.loc 1 758 34 is_stmt 0 view .LVU710
 2254 00ea D4F81069 		ldr	r6, [r4, #2320]
 759:Drivers/STM32F4xx_HAL_Driver/Src/stm32f4xx_ll_usb.c **** 
 2255              		.loc 1 759 43 view .LVU711
 2256 00ee 4D69     		ldr	r5, [r1, #20]
 759:Drivers/STM32F4xx_HAL_Driver/Src/stm32f4xx_ll_usb.c **** 
 2257              		.loc 1 759 58 view .LVU712
 2258 00f0 8F68     		ldr	r7, [r1, #8]
 759:Drivers/STM32F4xx_HAL_Driver/Src/stm32f4xx_ll_usb.c **** 
 2259              		.loc 1 759 54 view .LVU713
 2260 00f2 3D44     		add	r5, r5, r7
 759:Drivers/STM32F4xx_HAL_Driver/Src/stm32f4xx_ll_usb.c **** 
 2261              		.loc 1 759 70 view .LVU714
 2262 00f4 013D     		subs	r5, r5, #1
 759:Drivers/STM32F4xx_HAL_Driver/Src/stm32f4xx_ll_usb.c **** 
 2263              		.loc 1 759 76 view .LVU715
 2264 00f6 B5FBF7F5 		udiv	r5, r5, r7
 758:Drivers/STM32F4xx_HAL_Driver/Src/stm32f4xx_ll_usb.c ****                                      (((ep->xfer_len + ep->maxpacket - 1U) / ep->maxpacket) << 19))
 2265              		.loc 1 758 62 view .LVU716
 2266 00fa 464F     		ldr	r7, .L164
 2267 00fc 07EAC545 		and	r5, r7, r5, lsl #19
 758:Drivers/STM32F4xx_HAL_Driver/Src/stm32f4xx_ll_usb.c ****                                      (((ep->xfer_len + ep->maxpacket - 1U) / ep->maxpacket) << 19))
 2268              		.loc 1 758 34 view .LVU717
 2269 0100 3543     		orrs	r5, r5, r6
 2270 0102 C4F81059 		str	r5, [r4, #2320]
 761:Drivers/STM32F4xx_HAL_Driver/Src/stm32f4xx_ll_usb.c **** 
 2271              		.loc 1 761 7 is_stmt 1 view .LVU718
 761:Drivers/STM32F4xx_HAL_Driver/Src/stm32f4xx_ll_usb.c **** 
 2272              		.loc 1 761 34 is_stmt 0 view .LVU719
 2273 0106 D4F81059 		ldr	r5, [r4, #2320]
 761:Drivers/STM32F4xx_HAL_Driver/Src/stm32f4xx_ll_usb.c **** 
 2274              		.loc 1 761 66 view .LVU720
 2275 010a 4E69     		ldr	r6, [r1, #20]
 761:Drivers/STM32F4xx_HAL_Driver/Src/stm32f4xx_ll_usb.c **** 
 2276              		.loc 1 761 62 view .LVU721
ARM GAS  /tmp/ccSVR7EX.s 			page 77


 2277 010c C6F31206 		ubfx	r6, r6, #0, #19
 761:Drivers/STM32F4xx_HAL_Driver/Src/stm32f4xx_ll_usb.c **** 
 2278              		.loc 1 761 34 view .LVU722
 2279 0110 3543     		orrs	r5, r5, r6
 2280 0112 C4F81059 		str	r5, [r4, #2320]
 756:Drivers/STM32F4xx_HAL_Driver/Src/stm32f4xx_ll_usb.c ****       USBx_INEP(epnum)->DIEPTSIZ &= ~(USB_OTG_DIEPTSIZ_PKTCNT);
 2281              		.loc 1 756 34 view .LVU723
 2282 0116 04F51064 		add	r4, r4, #2304
 763:Drivers/STM32F4xx_HAL_Driver/Src/stm32f4xx_ll_usb.c ****       {
 2283              		.loc 1 763 7 is_stmt 1 view .LVU724
 763:Drivers/STM32F4xx_HAL_Driver/Src/stm32f4xx_ll_usb.c ****       {
 2284              		.loc 1 763 13 is_stmt 0 view .LVU725
 2285 011a CD78     		ldrb	r5, [r1, #3]	@ zero_extendqisi2
 763:Drivers/STM32F4xx_HAL_Driver/Src/stm32f4xx_ll_usb.c ****       {
 2286              		.loc 1 763 10 view .LVU726
 2287 011c 012D     		cmp	r5, #1
 2288 011e B9D1     		bne	.L144
 765:Drivers/STM32F4xx_HAL_Driver/Src/stm32f4xx_ll_usb.c ****         USBx_INEP(epnum)->DIEPTSIZ |= (USB_OTG_DIEPTSIZ_MULCNT & (1U << 29));
 2289              		.loc 1 765 9 is_stmt 1 view .LVU727
 765:Drivers/STM32F4xx_HAL_Driver/Src/stm32f4xx_ll_usb.c ****         USBx_INEP(epnum)->DIEPTSIZ |= (USB_OTG_DIEPTSIZ_MULCNT & (1U << 29));
 2290              		.loc 1 765 36 is_stmt 0 view .LVU728
 2291 0120 2569     		ldr	r5, [r4, #16]
 2292 0122 25F0C045 		bic	r5, r5, #1610612736
 2293 0126 2561     		str	r5, [r4, #16]
 766:Drivers/STM32F4xx_HAL_Driver/Src/stm32f4xx_ll_usb.c ****       }
 2294              		.loc 1 766 9 is_stmt 1 view .LVU729
 766:Drivers/STM32F4xx_HAL_Driver/Src/stm32f4xx_ll_usb.c ****       }
 2295              		.loc 1 766 36 is_stmt 0 view .LVU730
 2296 0128 2569     		ldr	r5, [r4, #16]
 2297 012a 45F00055 		orr	r5, r5, #536870912
 2298 012e 2561     		str	r5, [r4, #16]
 2299 0130 B0E7     		b	.L144
 2300              	.L162:
 772:Drivers/STM32F4xx_HAL_Driver/Src/stm32f4xx_ll_usb.c ****       {
 2301              		.loc 1 772 7 is_stmt 1 view .LVU731
 772:Drivers/STM32F4xx_HAL_Driver/Src/stm32f4xx_ll_usb.c ****       {
 2302              		.loc 1 772 23 is_stmt 0 view .LVU732
 2303 0132 0A69     		ldr	r2, [r1, #16]
 2304              	.LVL176:
 772:Drivers/STM32F4xx_HAL_Driver/Src/stm32f4xx_ll_usb.c ****       {
 2305              		.loc 1 772 10 view .LVU733
 2306 0134 1AB1     		cbz	r2, .L146
 774:Drivers/STM32F4xx_HAL_Driver/Src/stm32f4xx_ll_usb.c ****       }
 2307              		.loc 1 774 9 is_stmt 1 view .LVU734
 2308 0136 00EB4314 		add	r4, r0, r3, lsl #5
 774:Drivers/STM32F4xx_HAL_Driver/Src/stm32f4xx_ll_usb.c ****       }
 2309              		.loc 1 774 35 is_stmt 0 view .LVU735
 2310 013a C4F81429 		str	r2, [r4, #2324]
 2311              	.L146:
 777:Drivers/STM32F4xx_HAL_Driver/Src/stm32f4xx_ll_usb.c ****       {
 2312              		.loc 1 777 7 is_stmt 1 view .LVU736
 777:Drivers/STM32F4xx_HAL_Driver/Src/stm32f4xx_ll_usb.c ****       {
 2313              		.loc 1 777 13 is_stmt 0 view .LVU737
 2314 013e CA78     		ldrb	r2, [r1, #3]	@ zero_extendqisi2
 777:Drivers/STM32F4xx_HAL_Driver/Src/stm32f4xx_ll_usb.c ****       {
 2315              		.loc 1 777 10 view .LVU738
 2316 0140 012A     		cmp	r2, #1
ARM GAS  /tmp/ccSVR7EX.s 			page 78


 2317 0142 08D0     		beq	.L163
 2318              	.LVL177:
 2319              	.L147:
 790:Drivers/STM32F4xx_HAL_Driver/Src/stm32f4xx_ll_usb.c ****     }
 2320              		.loc 1 790 7 is_stmt 1 view .LVU739
 790:Drivers/STM32F4xx_HAL_Driver/Src/stm32f4xx_ll_usb.c ****     }
 2321              		.loc 1 790 33 is_stmt 0 view .LVU740
 2322 0144 00EB4313 		add	r3, r0, r3, lsl #5
 2323              	.LVL178:
 790:Drivers/STM32F4xx_HAL_Driver/Src/stm32f4xx_ll_usb.c ****     }
 2324              		.loc 1 790 33 view .LVU741
 2325 0148 D3F80029 		ldr	r2, [r3, #2304]
 2326 014c 42F00442 		orr	r2, r2, #-2080374784
 2327 0150 C3F80029 		str	r2, [r3, #2304]
 2328 0154 83E7     		b	.L149
 2329              	.LVL179:
 2330              	.L163:
 779:Drivers/STM32F4xx_HAL_Driver/Src/stm32f4xx_ll_usb.c ****         {
 2331              		.loc 1 779 9 is_stmt 1 view .LVU742
 779:Drivers/STM32F4xx_HAL_Driver/Src/stm32f4xx_ll_usb.c ****         {
 2332              		.loc 1 779 25 is_stmt 0 view .LVU743
 2333 0156 D0F80828 		ldr	r2, [r0, #2056]
 779:Drivers/STM32F4xx_HAL_Driver/Src/stm32f4xx_ll_usb.c ****         {
 2334              		.loc 1 779 12 view .LVU744
 2335 015a 12F4807F 		tst	r2, #256
 2336 015e 08D1     		bne	.L148
 781:Drivers/STM32F4xx_HAL_Driver/Src/stm32f4xx_ll_usb.c ****         }
 2337              		.loc 1 781 11 is_stmt 1 view .LVU745
 781:Drivers/STM32F4xx_HAL_Driver/Src/stm32f4xx_ll_usb.c ****         }
 2338              		.loc 1 781 37 is_stmt 0 view .LVU746
 2339 0160 00EB4311 		add	r1, r0, r3, lsl #5
 2340              	.LVL180:
 781:Drivers/STM32F4xx_HAL_Driver/Src/stm32f4xx_ll_usb.c ****         }
 2341              		.loc 1 781 37 view .LVU747
 2342 0164 D1F80029 		ldr	r2, [r1, #2304]
 2343 0168 42F00052 		orr	r2, r2, #536870912
 2344 016c C1F80029 		str	r2, [r1, #2304]
 2345 0170 E8E7     		b	.L147
 2346              	.LVL181:
 2347              	.L148:
 785:Drivers/STM32F4xx_HAL_Driver/Src/stm32f4xx_ll_usb.c ****         }
 2348              		.loc 1 785 11 is_stmt 1 view .LVU748
 785:Drivers/STM32F4xx_HAL_Driver/Src/stm32f4xx_ll_usb.c ****         }
 2349              		.loc 1 785 37 is_stmt 0 view .LVU749
 2350 0172 00EB4311 		add	r1, r0, r3, lsl #5
 2351              	.LVL182:
 785:Drivers/STM32F4xx_HAL_Driver/Src/stm32f4xx_ll_usb.c ****         }
 2352              		.loc 1 785 37 view .LVU750
 2353 0176 D1F80029 		ldr	r2, [r1, #2304]
 2354 017a 42F08052 		orr	r2, r2, #268435456
 2355 017e C1F80029 		str	r2, [r1, #2304]
 2356 0182 DFE7     		b	.L147
 2357              	.LVL183:
 2358              	.L150:
 807:Drivers/STM32F4xx_HAL_Driver/Src/stm32f4xx_ll_usb.c ****         {
 2359              		.loc 1 807 9 is_stmt 1 view .LVU751
 807:Drivers/STM32F4xx_HAL_Driver/Src/stm32f4xx_ll_usb.c ****         {
ARM GAS  /tmp/ccSVR7EX.s 			page 79


 2360              		.loc 1 807 25 is_stmt 0 view .LVU752
 2361 0184 D0F80848 		ldr	r4, [r0, #2056]
 807:Drivers/STM32F4xx_HAL_Driver/Src/stm32f4xx_ll_usb.c ****         {
 2362              		.loc 1 807 12 view .LVU753
 2363 0188 14F4807F 		tst	r4, #256
 2364 018c 0CD1     		bne	.L151
 809:Drivers/STM32F4xx_HAL_Driver/Src/stm32f4xx_ll_usb.c ****         }
 2365              		.loc 1 809 11 is_stmt 1 view .LVU754
 809:Drivers/STM32F4xx_HAL_Driver/Src/stm32f4xx_ll_usb.c ****         }
 2366              		.loc 1 809 37 is_stmt 0 view .LVU755
 2367 018e D3F80049 		ldr	r4, [r3, #2304]
 2368 0192 44F00054 		orr	r4, r4, #536870912
 2369 0196 C3F80049 		str	r4, [r3, #2304]
 2370              	.L152:
 816:Drivers/STM32F4xx_HAL_Driver/Src/stm32f4xx_ll_usb.c ****       }
 2371              		.loc 1 816 9 is_stmt 1 view .LVU756
 816:Drivers/STM32F4xx_HAL_Driver/Src/stm32f4xx_ll_usb.c ****       }
 2372              		.loc 1 816 15 is_stmt 0 view .LVU757
 2373 019a 0092     		str	r2, [sp]
 2374 019c 8B8A     		ldrh	r3, [r1, #20]
 2375 019e 0A78     		ldrb	r2, [r1]	@ zero_extendqisi2
 2376              	.LVL184:
 816:Drivers/STM32F4xx_HAL_Driver/Src/stm32f4xx_ll_usb.c ****       }
 2377              		.loc 1 816 15 view .LVU758
 2378 01a0 C968     		ldr	r1, [r1, #12]
 2379              	.LVL185:
 816:Drivers/STM32F4xx_HAL_Driver/Src/stm32f4xx_ll_usb.c ****       }
 2380              		.loc 1 816 15 view .LVU759
 2381 01a2 FFF7FEFF 		bl	USB_WritePacket
 2382              	.LVL186:
 816:Drivers/STM32F4xx_HAL_Driver/Src/stm32f4xx_ll_usb.c ****       }
 2383              		.loc 1 816 15 view .LVU760
 2384 01a6 5AE7     		b	.L149
 2385              	.LVL187:
 2386              	.L151:
 813:Drivers/STM32F4xx_HAL_Driver/Src/stm32f4xx_ll_usb.c ****         }
 2387              		.loc 1 813 11 is_stmt 1 view .LVU761
 813:Drivers/STM32F4xx_HAL_Driver/Src/stm32f4xx_ll_usb.c ****         }
 2388              		.loc 1 813 37 is_stmt 0 view .LVU762
 2389 01a8 D3F80049 		ldr	r4, [r3, #2304]
 2390 01ac 44F08054 		orr	r4, r4, #268435456
 2391 01b0 C3F80049 		str	r4, [r3, #2304]
 2392 01b4 F1E7     		b	.L152
 2393              	.L153:
 836:Drivers/STM32F4xx_HAL_Driver/Src/stm32f4xx_ll_usb.c ****       USBx_OUTEP(epnum)->DOEPTSIZ |= USB_OTG_DOEPTSIZ_PKTCNT & ((uint32_t)pktcnt << 19);
 2394              		.loc 1 836 7 is_stmt 1 view .LVU763
 836:Drivers/STM32F4xx_HAL_Driver/Src/stm32f4xx_ll_usb.c ****       USBx_OUTEP(epnum)->DOEPTSIZ |= USB_OTG_DOEPTSIZ_PKTCNT & ((uint32_t)pktcnt << 19);
 2395              		.loc 1 836 45 is_stmt 0 view .LVU764
 2396 01b6 8E68     		ldr	r6, [r1, #8]
 836:Drivers/STM32F4xx_HAL_Driver/Src/stm32f4xx_ll_usb.c ****       USBx_OUTEP(epnum)->DOEPTSIZ |= USB_OTG_DOEPTSIZ_PKTCNT & ((uint32_t)pktcnt << 19);
 2397              		.loc 1 836 41 view .LVU765
 2398 01b8 3544     		add	r5, r5, r6
 836:Drivers/STM32F4xx_HAL_Driver/Src/stm32f4xx_ll_usb.c ****       USBx_OUTEP(epnum)->DOEPTSIZ |= USB_OTG_DOEPTSIZ_PKTCNT & ((uint32_t)pktcnt << 19);
 2399              		.loc 1 836 57 view .LVU766
 2400 01ba 013D     		subs	r5, r5, #1
 836:Drivers/STM32F4xx_HAL_Driver/Src/stm32f4xx_ll_usb.c ****       USBx_OUTEP(epnum)->DOEPTSIZ |= USB_OTG_DOEPTSIZ_PKTCNT & ((uint32_t)pktcnt << 19);
 2401              		.loc 1 836 63 view .LVU767
ARM GAS  /tmp/ccSVR7EX.s 			page 80


 2402 01bc B5FBF6F5 		udiv	r5, r5, r6
 2403              	.LVL188:
 837:Drivers/STM32F4xx_HAL_Driver/Src/stm32f4xx_ll_usb.c ****       USBx_OUTEP(epnum)->DOEPTSIZ |= USB_OTG_DOEPTSIZ_XFRSIZ & (ep->maxpacket * pktcnt);
 2404              		.loc 1 837 7 is_stmt 1 view .LVU768
 837:Drivers/STM32F4xx_HAL_Driver/Src/stm32f4xx_ll_usb.c ****       USBx_OUTEP(epnum)->DOEPTSIZ |= USB_OTG_DOEPTSIZ_XFRSIZ & (ep->maxpacket * pktcnt);
 2405              		.loc 1 837 35 is_stmt 0 view .LVU769
 2406 01c0 2669     		ldr	r6, [r4, #16]
 837:Drivers/STM32F4xx_HAL_Driver/Src/stm32f4xx_ll_usb.c ****       USBx_OUTEP(epnum)->DOEPTSIZ |= USB_OTG_DOEPTSIZ_XFRSIZ & (ep->maxpacket * pktcnt);
 2407              		.loc 1 837 62 view .LVU770
 2408 01c2 144F     		ldr	r7, .L164
 2409 01c4 07EAC547 		and	r7, r7, r5, lsl #19
 837:Drivers/STM32F4xx_HAL_Driver/Src/stm32f4xx_ll_usb.c ****       USBx_OUTEP(epnum)->DOEPTSIZ |= USB_OTG_DOEPTSIZ_XFRSIZ & (ep->maxpacket * pktcnt);
 2410              		.loc 1 837 35 view .LVU771
 2411 01c8 3E43     		orrs	r6, r6, r7
 2412 01ca 2661     		str	r6, [r4, #16]
 838:Drivers/STM32F4xx_HAL_Driver/Src/stm32f4xx_ll_usb.c ****     }
 2413              		.loc 1 838 7 is_stmt 1 view .LVU772
 838:Drivers/STM32F4xx_HAL_Driver/Src/stm32f4xx_ll_usb.c ****     }
 2414              		.loc 1 838 35 is_stmt 0 view .LVU773
 2415 01cc 2769     		ldr	r7, [r4, #16]
 838:Drivers/STM32F4xx_HAL_Driver/Src/stm32f4xx_ll_usb.c ****     }
 2416              		.loc 1 838 67 view .LVU774
 2417 01ce 8E68     		ldr	r6, [r1, #8]
 838:Drivers/STM32F4xx_HAL_Driver/Src/stm32f4xx_ll_usb.c ****     }
 2418              		.loc 1 838 79 view .LVU775
 2419 01d0 ADB2     		uxth	r5, r5
 838:Drivers/STM32F4xx_HAL_Driver/Src/stm32f4xx_ll_usb.c ****     }
 2420              		.loc 1 838 79 view .LVU776
 2421 01d2 06FB05F5 		mul	r5, r6, r5
 2422              	.LVL189:
 838:Drivers/STM32F4xx_HAL_Driver/Src/stm32f4xx_ll_usb.c ****     }
 2423              		.loc 1 838 62 view .LVU777
 2424 01d6 C5F31205 		ubfx	r5, r5, #0, #19
 838:Drivers/STM32F4xx_HAL_Driver/Src/stm32f4xx_ll_usb.c ****     }
 2425              		.loc 1 838 35 view .LVU778
 2426 01da 3D43     		orrs	r5, r5, r7
 2427 01dc 2561     		str	r5, [r4, #16]
 2428 01de 31E7     		b	.L154
 2429              	.L160:
 843:Drivers/STM32F4xx_HAL_Driver/Src/stm32f4xx_ll_usb.c ****       {
 2430              		.loc 1 843 7 is_stmt 1 view .LVU779
 843:Drivers/STM32F4xx_HAL_Driver/Src/stm32f4xx_ll_usb.c ****       {
 2431              		.loc 1 843 23 is_stmt 0 view .LVU780
 2432 01e0 CA68     		ldr	r2, [r1, #12]
 2433              	.LVL190:
 843:Drivers/STM32F4xx_HAL_Driver/Src/stm32f4xx_ll_usb.c ****       {
 2434              		.loc 1 843 10 view .LVU781
 2435 01e2 002A     		cmp	r2, #0
 2436 01e4 3FF431AF 		beq	.L155
 845:Drivers/STM32F4xx_HAL_Driver/Src/stm32f4xx_ll_usb.c ****       }
 2437              		.loc 1 845 9 is_stmt 1 view .LVU782
 845:Drivers/STM32F4xx_HAL_Driver/Src/stm32f4xx_ll_usb.c ****       }
 2438              		.loc 1 845 36 is_stmt 0 view .LVU783
 2439 01e8 6261     		str	r2, [r4, #20]
 2440 01ea 2EE7     		b	.L155
 2441              	.L161:
 851:Drivers/STM32F4xx_HAL_Driver/Src/stm32f4xx_ll_usb.c ****       {
ARM GAS  /tmp/ccSVR7EX.s 			page 81


 2442              		.loc 1 851 7 is_stmt 1 view .LVU784
 851:Drivers/STM32F4xx_HAL_Driver/Src/stm32f4xx_ll_usb.c ****       {
 2443              		.loc 1 851 23 is_stmt 0 view .LVU785
 2444 01ec D0F80828 		ldr	r2, [r0, #2056]
 851:Drivers/STM32F4xx_HAL_Driver/Src/stm32f4xx_ll_usb.c ****       {
 2445              		.loc 1 851 10 view .LVU786
 2446 01f0 12F4807F 		tst	r2, #256
 2447 01f4 06D1     		bne	.L157
 853:Drivers/STM32F4xx_HAL_Driver/Src/stm32f4xx_ll_usb.c ****       }
 2448              		.loc 1 853 9 is_stmt 1 view .LVU787
 853:Drivers/STM32F4xx_HAL_Driver/Src/stm32f4xx_ll_usb.c ****       }
 2449              		.loc 1 853 36 is_stmt 0 view .LVU788
 2450 01f6 D3F8002B 		ldr	r2, [r3, #2816]
 2451 01fa 42F00052 		orr	r2, r2, #536870912
 2452 01fe C3F8002B 		str	r2, [r3, #2816]
 2453 0202 26E7     		b	.L156
 2454              	.L157:
 857:Drivers/STM32F4xx_HAL_Driver/Src/stm32f4xx_ll_usb.c ****       }
 2455              		.loc 1 857 9 is_stmt 1 view .LVU789
 857:Drivers/STM32F4xx_HAL_Driver/Src/stm32f4xx_ll_usb.c ****       }
 2456              		.loc 1 857 36 is_stmt 0 view .LVU790
 2457 0204 D3F8002B 		ldr	r2, [r3, #2816]
 2458 0208 42F08052 		orr	r2, r2, #268435456
 2459 020c C3F8002B 		str	r2, [r3, #2816]
 2460 0210 1FE7     		b	.L156
 2461              	.L165:
 2462 0212 00BF     		.align	2
 2463              	.L164:
 2464 0214 0000F81F 		.word	536346624
 2465              		.cfi_endproc
 2466              	.LFE144:
 2468              		.section	.text.USB_ReadPacket,"ax",%progbits
 2469              		.align	1
 2470              		.global	USB_ReadPacket
 2471              		.syntax unified
 2472              		.thumb
 2473              		.thumb_func
 2474              		.fpu fpv4-sp-d16
 2476              	USB_ReadPacket:
 2477              	.LVL191:
 2478              	.LFB147:
1009:Drivers/STM32F4xx_HAL_Driver/Src/stm32f4xx_ll_usb.c ****   uint32_t USBx_BASE = (uint32_t)USBx;
 2479              		.loc 1 1009 1 is_stmt 1 view -0
 2480              		.cfi_startproc
 2481              		@ args = 0, pretend = 0, frame = 8
 2482              		@ frame_needed = 0, uses_anonymous_args = 0
 2483              		@ link register save eliminated.
1009:Drivers/STM32F4xx_HAL_Driver/Src/stm32f4xx_ll_usb.c ****   uint32_t USBx_BASE = (uint32_t)USBx;
 2484              		.loc 1 1009 1 is_stmt 0 view .LVU792
 2485 0000 F0B4     		push	{r4, r5, r6, r7}
 2486              	.LCFI35:
 2487              		.cfi_def_cfa_offset 16
 2488              		.cfi_offset 4, -16
 2489              		.cfi_offset 5, -12
 2490              		.cfi_offset 6, -8
 2491              		.cfi_offset 7, -4
 2492 0002 82B0     		sub	sp, sp, #8
ARM GAS  /tmp/ccSVR7EX.s 			page 82


 2493              	.LCFI36:
 2494              		.cfi_def_cfa_offset 24
 2495 0004 0746     		mov	r7, r0
 2496 0006 0846     		mov	r0, r1
 2497              	.LVL192:
1010:Drivers/STM32F4xx_HAL_Driver/Src/stm32f4xx_ll_usb.c ****   uint8_t *pDest = dest;
 2498              		.loc 1 1010 3 is_stmt 1 view .LVU793
1010:Drivers/STM32F4xx_HAL_Driver/Src/stm32f4xx_ll_usb.c ****   uint8_t *pDest = dest;
 2499              		.loc 1 1010 12 is_stmt 0 view .LVU794
 2500 0008 3E46     		mov	r6, r7
 2501              	.LVL193:
1011:Drivers/STM32F4xx_HAL_Driver/Src/stm32f4xx_ll_usb.c ****   uint32_t pData;
 2502              		.loc 1 1011 3 is_stmt 1 view .LVU795
1012:Drivers/STM32F4xx_HAL_Driver/Src/stm32f4xx_ll_usb.c ****   uint32_t i;
 2503              		.loc 1 1012 3 view .LVU796
1013:Drivers/STM32F4xx_HAL_Driver/Src/stm32f4xx_ll_usb.c ****   uint32_t count32b = (uint32_t)len >> 2U;
 2504              		.loc 1 1013 3 view .LVU797
1014:Drivers/STM32F4xx_HAL_Driver/Src/stm32f4xx_ll_usb.c ****   uint16_t remaining_bytes = len % 4U;
 2505              		.loc 1 1014 3 view .LVU798
1014:Drivers/STM32F4xx_HAL_Driver/Src/stm32f4xx_ll_usb.c ****   uint16_t remaining_bytes = len % 4U;
 2506              		.loc 1 1014 37 is_stmt 0 view .LVU799
 2507 000a 9508     		lsrs	r5, r2, #2
 2508              	.LVL194:
1015:Drivers/STM32F4xx_HAL_Driver/Src/stm32f4xx_ll_usb.c **** 
 2509              		.loc 1 1015 3 is_stmt 1 view .LVU800
1015:Drivers/STM32F4xx_HAL_Driver/Src/stm32f4xx_ll_usb.c **** 
 2510              		.loc 1 1015 12 is_stmt 0 view .LVU801
 2511 000c 02F00302 		and	r2, r2, #3
 2512              	.LVL195:
1017:Drivers/STM32F4xx_HAL_Driver/Src/stm32f4xx_ll_usb.c ****   {
 2513              		.loc 1 1017 3 is_stmt 1 view .LVU802
1017:Drivers/STM32F4xx_HAL_Driver/Src/stm32f4xx_ll_usb.c ****   {
 2514              		.loc 1 1017 10 is_stmt 0 view .LVU803
 2515 0010 0023     		movs	r3, #0
 2516              	.LVL196:
 2517              	.L167:
1017:Drivers/STM32F4xx_HAL_Driver/Src/stm32f4xx_ll_usb.c ****   {
 2518              		.loc 1 1017 16 is_stmt 1 discriminator 1 view .LVU804
1017:Drivers/STM32F4xx_HAL_Driver/Src/stm32f4xx_ll_usb.c ****   {
 2519              		.loc 1 1017 3 is_stmt 0 discriminator 1 view .LVU805
 2520 0012 AB42     		cmp	r3, r5
 2521 0014 06D2     		bcs	.L172
1019:Drivers/STM32F4xx_HAL_Driver/Src/stm32f4xx_ll_usb.c ****     pDest++;
 2522              		.loc 1 1019 5 is_stmt 1 discriminator 3 view .LVU806
 2523 0016 06F58054 		add	r4, r6, #4096
 2524 001a 2468     		ldr	r4, [r4]
 2525 001c 40F8044B 		str	r4, [r0], #4	@ unaligned
 2526              	.LVL197:
1020:Drivers/STM32F4xx_HAL_Driver/Src/stm32f4xx_ll_usb.c ****     pDest++;
 2527              		.loc 1 1020 5 discriminator 3 view .LVU807
1021:Drivers/STM32F4xx_HAL_Driver/Src/stm32f4xx_ll_usb.c ****     pDest++;
 2528              		.loc 1 1021 5 discriminator 3 view .LVU808
1022:Drivers/STM32F4xx_HAL_Driver/Src/stm32f4xx_ll_usb.c ****     pDest++;
 2529              		.loc 1 1022 5 discriminator 3 view .LVU809
1023:Drivers/STM32F4xx_HAL_Driver/Src/stm32f4xx_ll_usb.c ****   }
 2530              		.loc 1 1023 5 discriminator 3 view .LVU810
1017:Drivers/STM32F4xx_HAL_Driver/Src/stm32f4xx_ll_usb.c ****   {
ARM GAS  /tmp/ccSVR7EX.s 			page 83


 2531              		.loc 1 1017 30 discriminator 3 view .LVU811
1017:Drivers/STM32F4xx_HAL_Driver/Src/stm32f4xx_ll_usb.c ****   {
 2532              		.loc 1 1017 31 is_stmt 0 discriminator 3 view .LVU812
 2533 0020 0133     		adds	r3, r3, #1
 2534              	.LVL198:
1017:Drivers/STM32F4xx_HAL_Driver/Src/stm32f4xx_ll_usb.c ****   {
 2535              		.loc 1 1017 31 discriminator 3 view .LVU813
 2536 0022 F6E7     		b	.L167
 2537              	.LVL199:
 2538              	.L172:
1027:Drivers/STM32F4xx_HAL_Driver/Src/stm32f4xx_ll_usb.c ****   {
 2539              		.loc 1 1027 3 is_stmt 1 view .LVU814
1027:Drivers/STM32F4xx_HAL_Driver/Src/stm32f4xx_ll_usb.c ****   {
 2540              		.loc 1 1027 6 is_stmt 0 view .LVU815
 2541 0024 7AB1     		cbz	r2, .L169
1029:Drivers/STM32F4xx_HAL_Driver/Src/stm32f4xx_ll_usb.c ****     __UNALIGNED_UINT32_WRITE(&pData, USBx_DFIFO(0U));
 2542              		.loc 1 1029 5 is_stmt 1 view .LVU816
 2543              	.LVL200:
1030:Drivers/STM32F4xx_HAL_Driver/Src/stm32f4xx_ll_usb.c **** 
 2544              		.loc 1 1030 5 view .LVU817
 2545 0026 07F58057 		add	r7, r7, #4096
 2546 002a 3B68     		ldr	r3, [r7]
 2547 002c 0193     		str	r3, [sp, #4]
1029:Drivers/STM32F4xx_HAL_Driver/Src/stm32f4xx_ll_usb.c ****     __UNALIGNED_UINT32_WRITE(&pData, USBx_DFIFO(0U));
 2548              		.loc 1 1029 7 is_stmt 0 view .LVU818
 2549 002e 0025     		movs	r5, #0
 2550              	.LVL201:
 2551              	.L170:
1032:Drivers/STM32F4xx_HAL_Driver/Src/stm32f4xx_ll_usb.c ****     {
 2552              		.loc 1 1032 5 is_stmt 1 discriminator 1 view .LVU819
1034:Drivers/STM32F4xx_HAL_Driver/Src/stm32f4xx_ll_usb.c ****       i++;
 2553              		.loc 1 1034 7 discriminator 1 view .LVU820
1034:Drivers/STM32F4xx_HAL_Driver/Src/stm32f4xx_ll_usb.c ****       i++;
 2554              		.loc 1 1034 50 is_stmt 0 discriminator 1 view .LVU821
 2555 0030 EBB2     		uxtb	r3, r5
 2556 0032 DC00     		lsls	r4, r3, #3
1034:Drivers/STM32F4xx_HAL_Driver/Src/stm32f4xx_ll_usb.c ****       i++;
 2557              		.loc 1 1034 43 discriminator 1 view .LVU822
 2558 0034 019B     		ldr	r3, [sp, #4]
 2559 0036 E340     		lsrs	r3, r3, r4
1034:Drivers/STM32F4xx_HAL_Driver/Src/stm32f4xx_ll_usb.c ****       i++;
 2560              		.loc 1 1034 25 discriminator 1 view .LVU823
 2561 0038 00F8013B 		strb	r3, [r0], #1
 2562              	.LVL202:
1035:Drivers/STM32F4xx_HAL_Driver/Src/stm32f4xx_ll_usb.c ****       pDest++;
 2563              		.loc 1 1035 7 is_stmt 1 discriminator 1 view .LVU824
1035:Drivers/STM32F4xx_HAL_Driver/Src/stm32f4xx_ll_usb.c ****       pDest++;
 2564              		.loc 1 1035 8 is_stmt 0 discriminator 1 view .LVU825
 2565 003c 0135     		adds	r5, r5, #1
 2566              	.LVL203:
1036:Drivers/STM32F4xx_HAL_Driver/Src/stm32f4xx_ll_usb.c ****       remaining_bytes--;
 2567              		.loc 1 1036 7 is_stmt 1 discriminator 1 view .LVU826
1037:Drivers/STM32F4xx_HAL_Driver/Src/stm32f4xx_ll_usb.c ****     } while (remaining_bytes != 0U);
 2568              		.loc 1 1037 7 discriminator 1 view .LVU827
1037:Drivers/STM32F4xx_HAL_Driver/Src/stm32f4xx_ll_usb.c ****     } while (remaining_bytes != 0U);
 2569              		.loc 1 1037 22 is_stmt 0 discriminator 1 view .LVU828
 2570 003e 013A     		subs	r2, r2, #1
ARM GAS  /tmp/ccSVR7EX.s 			page 84


 2571              	.LVL204:
1037:Drivers/STM32F4xx_HAL_Driver/Src/stm32f4xx_ll_usb.c ****     } while (remaining_bytes != 0U);
 2572              		.loc 1 1037 22 discriminator 1 view .LVU829
 2573 0040 92B2     		uxth	r2, r2
 2574              	.LVL205:
1038:Drivers/STM32F4xx_HAL_Driver/Src/stm32f4xx_ll_usb.c ****   }
 2575              		.loc 1 1038 13 is_stmt 1 discriminator 1 view .LVU830
1038:Drivers/STM32F4xx_HAL_Driver/Src/stm32f4xx_ll_usb.c ****   }
 2576              		.loc 1 1038 5 is_stmt 0 discriminator 1 view .LVU831
 2577 0042 002A     		cmp	r2, #0
 2578 0044 F4D1     		bne	.L170
 2579              	.LVL206:
 2580              	.L169:
1041:Drivers/STM32F4xx_HAL_Driver/Src/stm32f4xx_ll_usb.c **** }
 2581              		.loc 1 1041 3 is_stmt 1 view .LVU832
1042:Drivers/STM32F4xx_HAL_Driver/Src/stm32f4xx_ll_usb.c **** 
 2582              		.loc 1 1042 1 is_stmt 0 view .LVU833
 2583 0046 02B0     		add	sp, sp, #8
 2584              	.LCFI37:
 2585              		.cfi_def_cfa_offset 16
 2586              		@ sp needed
 2587 0048 F0BC     		pop	{r4, r5, r6, r7}
 2588              	.LCFI38:
 2589              		.cfi_restore 7
 2590              		.cfi_restore 6
 2591              		.cfi_restore 5
 2592              		.cfi_restore 4
 2593              		.cfi_def_cfa_offset 0
 2594              	.LVL207:
1042:Drivers/STM32F4xx_HAL_Driver/Src/stm32f4xx_ll_usb.c **** 
 2595              		.loc 1 1042 1 view .LVU834
 2596 004a 7047     		bx	lr
 2597              		.cfi_endproc
 2598              	.LFE147:
 2600              		.section	.text.USB_EPSetStall,"ax",%progbits
 2601              		.align	1
 2602              		.global	USB_EPSetStall
 2603              		.syntax unified
 2604              		.thumb
 2605              		.thumb_func
 2606              		.fpu fpv4-sp-d16
 2608              	USB_EPSetStall:
 2609              	.LVL208:
 2610              	.LFB148:
1051:Drivers/STM32F4xx_HAL_Driver/Src/stm32f4xx_ll_usb.c ****   uint32_t USBx_BASE = (uint32_t)USBx;
 2611              		.loc 1 1051 1 is_stmt 1 view -0
 2612              		.cfi_startproc
 2613              		@ args = 0, pretend = 0, frame = 0
 2614              		@ frame_needed = 0, uses_anonymous_args = 0
 2615              		@ link register save eliminated.
1052:Drivers/STM32F4xx_HAL_Driver/Src/stm32f4xx_ll_usb.c ****   uint32_t epnum = (uint32_t)ep->num;
 2616              		.loc 1 1052 3 view .LVU836
1053:Drivers/STM32F4xx_HAL_Driver/Src/stm32f4xx_ll_usb.c **** 
 2617              		.loc 1 1053 3 view .LVU837
1053:Drivers/STM32F4xx_HAL_Driver/Src/stm32f4xx_ll_usb.c **** 
 2618              		.loc 1 1053 32 is_stmt 0 view .LVU838
 2619 0000 0B78     		ldrb	r3, [r1]	@ zero_extendqisi2
ARM GAS  /tmp/ccSVR7EX.s 			page 85


 2620              	.LVL209:
1055:Drivers/STM32F4xx_HAL_Driver/Src/stm32f4xx_ll_usb.c ****   {
 2621              		.loc 1 1055 3 is_stmt 1 view .LVU839
1055:Drivers/STM32F4xx_HAL_Driver/Src/stm32f4xx_ll_usb.c ****   {
 2622              		.loc 1 1055 9 is_stmt 0 view .LVU840
 2623 0002 4A78     		ldrb	r2, [r1, #1]	@ zero_extendqisi2
1055:Drivers/STM32F4xx_HAL_Driver/Src/stm32f4xx_ll_usb.c ****   {
 2624              		.loc 1 1055 6 view .LVU841
 2625 0004 012A     		cmp	r2, #1
 2626 0006 14D0     		beq	.L178
1065:Drivers/STM32F4xx_HAL_Driver/Src/stm32f4xx_ll_usb.c ****     {
 2627              		.loc 1 1065 5 is_stmt 1 view .LVU842
1065:Drivers/STM32F4xx_HAL_Driver/Src/stm32f4xx_ll_usb.c ****     {
 2628              		.loc 1 1065 11 is_stmt 0 view .LVU843
 2629 0008 00EB4310 		add	r0, r0, r3, lsl #5
 2630              	.LVL210:
1065:Drivers/STM32F4xx_HAL_Driver/Src/stm32f4xx_ll_usb.c ****     {
 2631              		.loc 1 1065 28 view .LVU844
 2632 000c D0F8002B 		ldr	r2, [r0, #2816]
1065:Drivers/STM32F4xx_HAL_Driver/Src/stm32f4xx_ll_usb.c ****     {
 2633              		.loc 1 1065 8 view .LVU845
 2634 0010 002A     		cmp	r2, #0
 2635 0012 06DB     		blt	.L177
1065:Drivers/STM32F4xx_HAL_Driver/Src/stm32f4xx_ll_usb.c ****     {
 2636              		.loc 1 1065 70 discriminator 1 view .LVU846
 2637 0014 2BB1     		cbz	r3, .L177
1067:Drivers/STM32F4xx_HAL_Driver/Src/stm32f4xx_ll_usb.c ****     }
 2638              		.loc 1 1067 7 is_stmt 1 view .LVU847
1067:Drivers/STM32F4xx_HAL_Driver/Src/stm32f4xx_ll_usb.c ****     }
 2639              		.loc 1 1067 34 is_stmt 0 view .LVU848
 2640 0016 D0F8003B 		ldr	r3, [r0, #2816]
 2641              	.LVL211:
1067:Drivers/STM32F4xx_HAL_Driver/Src/stm32f4xx_ll_usb.c ****     }
 2642              		.loc 1 1067 34 view .LVU849
 2643 001a 23F08043 		bic	r3, r3, #1073741824
 2644 001e C0F8003B 		str	r3, [r0, #2816]
 2645              	.LVL212:
 2646              	.L177:
1069:Drivers/STM32F4xx_HAL_Driver/Src/stm32f4xx_ll_usb.c ****   }
 2647              		.loc 1 1069 5 is_stmt 1 view .LVU850
1069:Drivers/STM32F4xx_HAL_Driver/Src/stm32f4xx_ll_usb.c ****   }
 2648              		.loc 1 1069 32 is_stmt 0 view .LVU851
 2649 0022 D0F8003B 		ldr	r3, [r0, #2816]
 2650 0026 43F40013 		orr	r3, r3, #2097152
 2651 002a C0F8003B 		str	r3, [r0, #2816]
 2652              	.L176:
1072:Drivers/STM32F4xx_HAL_Driver/Src/stm32f4xx_ll_usb.c **** }
 2653              		.loc 1 1072 3 is_stmt 1 view .LVU852
1073:Drivers/STM32F4xx_HAL_Driver/Src/stm32f4xx_ll_usb.c **** 
 2654              		.loc 1 1073 1 is_stmt 0 view .LVU853
 2655 002e 0020     		movs	r0, #0
 2656 0030 7047     		bx	lr
 2657              	.LVL213:
 2658              	.L178:
1057:Drivers/STM32F4xx_HAL_Driver/Src/stm32f4xx_ll_usb.c ****     {
 2659              		.loc 1 1057 5 is_stmt 1 view .LVU854
1057:Drivers/STM32F4xx_HAL_Driver/Src/stm32f4xx_ll_usb.c ****     {
ARM GAS  /tmp/ccSVR7EX.s 			page 86


 2660              		.loc 1 1057 11 is_stmt 0 view .LVU855
 2661 0032 00EB4310 		add	r0, r0, r3, lsl #5
 2662              	.LVL214:
1057:Drivers/STM32F4xx_HAL_Driver/Src/stm32f4xx_ll_usb.c ****     {
 2663              		.loc 1 1057 27 view .LVU856
 2664 0036 D0F80029 		ldr	r2, [r0, #2304]
1057:Drivers/STM32F4xx_HAL_Driver/Src/stm32f4xx_ll_usb.c ****     {
 2665              		.loc 1 1057 8 view .LVU857
 2666 003a 002A     		cmp	r2, #0
 2667 003c 06DB     		blt	.L175
1057:Drivers/STM32F4xx_HAL_Driver/Src/stm32f4xx_ll_usb.c ****     {
 2668              		.loc 1 1057 69 discriminator 1 view .LVU858
 2669 003e 2BB1     		cbz	r3, .L175
1059:Drivers/STM32F4xx_HAL_Driver/Src/stm32f4xx_ll_usb.c ****     }
 2670              		.loc 1 1059 7 is_stmt 1 view .LVU859
1059:Drivers/STM32F4xx_HAL_Driver/Src/stm32f4xx_ll_usb.c ****     }
 2671              		.loc 1 1059 33 is_stmt 0 view .LVU860
 2672 0040 D0F80039 		ldr	r3, [r0, #2304]
 2673              	.LVL215:
1059:Drivers/STM32F4xx_HAL_Driver/Src/stm32f4xx_ll_usb.c ****     }
 2674              		.loc 1 1059 33 view .LVU861
 2675 0044 23F08043 		bic	r3, r3, #1073741824
 2676 0048 C0F80039 		str	r3, [r0, #2304]
 2677              	.LVL216:
 2678              	.L175:
1061:Drivers/STM32F4xx_HAL_Driver/Src/stm32f4xx_ll_usb.c ****   }
 2679              		.loc 1 1061 5 is_stmt 1 view .LVU862
1061:Drivers/STM32F4xx_HAL_Driver/Src/stm32f4xx_ll_usb.c ****   }
 2680              		.loc 1 1061 31 is_stmt 0 view .LVU863
 2681 004c D0F80039 		ldr	r3, [r0, #2304]
 2682 0050 43F40013 		orr	r3, r3, #2097152
 2683 0054 C0F80039 		str	r3, [r0, #2304]
 2684 0058 E9E7     		b	.L176
 2685              		.cfi_endproc
 2686              	.LFE148:
 2688              		.section	.text.USB_EPClearStall,"ax",%progbits
 2689              		.align	1
 2690              		.global	USB_EPClearStall
 2691              		.syntax unified
 2692              		.thumb
 2693              		.thumb_func
 2694              		.fpu fpv4-sp-d16
 2696              	USB_EPClearStall:
 2697              	.LVL217:
 2698              	.LFB149:
1082:Drivers/STM32F4xx_HAL_Driver/Src/stm32f4xx_ll_usb.c ****   uint32_t USBx_BASE = (uint32_t)USBx;
 2699              		.loc 1 1082 1 is_stmt 1 view -0
 2700              		.cfi_startproc
 2701              		@ args = 0, pretend = 0, frame = 0
 2702              		@ frame_needed = 0, uses_anonymous_args = 0
 2703              		@ link register save eliminated.
1083:Drivers/STM32F4xx_HAL_Driver/Src/stm32f4xx_ll_usb.c ****   uint32_t epnum = (uint32_t)ep->num;
 2704              		.loc 1 1083 3 view .LVU865
1084:Drivers/STM32F4xx_HAL_Driver/Src/stm32f4xx_ll_usb.c **** 
 2705              		.loc 1 1084 3 view .LVU866
1084:Drivers/STM32F4xx_HAL_Driver/Src/stm32f4xx_ll_usb.c **** 
 2706              		.loc 1 1084 32 is_stmt 0 view .LVU867
ARM GAS  /tmp/ccSVR7EX.s 			page 87


 2707 0000 0B78     		ldrb	r3, [r1]	@ zero_extendqisi2
 2708              	.LVL218:
1086:Drivers/STM32F4xx_HAL_Driver/Src/stm32f4xx_ll_usb.c ****   {
 2709              		.loc 1 1086 3 is_stmt 1 view .LVU868
1086:Drivers/STM32F4xx_HAL_Driver/Src/stm32f4xx_ll_usb.c ****   {
 2710              		.loc 1 1086 9 is_stmt 0 view .LVU869
 2711 0002 4A78     		ldrb	r2, [r1, #1]	@ zero_extendqisi2
1086:Drivers/STM32F4xx_HAL_Driver/Src/stm32f4xx_ll_usb.c ****   {
 2712              		.loc 1 1086 6 view .LVU870
 2713 0004 012A     		cmp	r2, #1
 2714 0006 0ED0     		beq	.L182
1096:Drivers/STM32F4xx_HAL_Driver/Src/stm32f4xx_ll_usb.c ****     if ((ep->type == EP_TYPE_INTR) || (ep->type == EP_TYPE_BULK))
 2715              		.loc 1 1096 5 is_stmt 1 view .LVU871
1096:Drivers/STM32F4xx_HAL_Driver/Src/stm32f4xx_ll_usb.c ****     if ((ep->type == EP_TYPE_INTR) || (ep->type == EP_TYPE_BULK))
 2716              		.loc 1 1096 32 is_stmt 0 view .LVU872
 2717 0008 00EB4310 		add	r0, r0, r3, lsl #5
 2718              	.LVL219:
1096:Drivers/STM32F4xx_HAL_Driver/Src/stm32f4xx_ll_usb.c ****     if ((ep->type == EP_TYPE_INTR) || (ep->type == EP_TYPE_BULK))
 2719              		.loc 1 1096 32 view .LVU873
 2720 000c D0F8003B 		ldr	r3, [r0, #2816]
 2721              	.LVL220:
1096:Drivers/STM32F4xx_HAL_Driver/Src/stm32f4xx_ll_usb.c ****     if ((ep->type == EP_TYPE_INTR) || (ep->type == EP_TYPE_BULK))
 2722              		.loc 1 1096 32 view .LVU874
 2723 0010 23F40013 		bic	r3, r3, #2097152
 2724 0014 C0F8003B 		str	r3, [r0, #2816]
 2725              	.LVL221:
1097:Drivers/STM32F4xx_HAL_Driver/Src/stm32f4xx_ll_usb.c ****     {
 2726              		.loc 1 1097 5 is_stmt 1 view .LVU875
1097:Drivers/STM32F4xx_HAL_Driver/Src/stm32f4xx_ll_usb.c ****     {
 2727              		.loc 1 1097 12 is_stmt 0 view .LVU876
 2728 0018 CB78     		ldrb	r3, [r1, #3]	@ zero_extendqisi2
1097:Drivers/STM32F4xx_HAL_Driver/Src/stm32f4xx_ll_usb.c ****     {
 2729              		.loc 1 1097 36 view .LVU877
 2730 001a 023B     		subs	r3, r3, #2
 2731 001c DBB2     		uxtb	r3, r3
1097:Drivers/STM32F4xx_HAL_Driver/Src/stm32f4xx_ll_usb.c ****     {
 2732              		.loc 1 1097 8 view .LVU878
 2733 001e 012B     		cmp	r3, #1
 2734 0020 15D9     		bls	.L183
 2735              	.L181:
1102:Drivers/STM32F4xx_HAL_Driver/Src/stm32f4xx_ll_usb.c **** }
 2736              		.loc 1 1102 3 is_stmt 1 view .LVU879
1103:Drivers/STM32F4xx_HAL_Driver/Src/stm32f4xx_ll_usb.c **** 
 2737              		.loc 1 1103 1 is_stmt 0 view .LVU880
 2738 0022 0020     		movs	r0, #0
 2739 0024 7047     		bx	lr
 2740              	.LVL222:
 2741              	.L182:
1088:Drivers/STM32F4xx_HAL_Driver/Src/stm32f4xx_ll_usb.c ****     if ((ep->type == EP_TYPE_INTR) || (ep->type == EP_TYPE_BULK))
 2742              		.loc 1 1088 5 is_stmt 1 view .LVU881
1088:Drivers/STM32F4xx_HAL_Driver/Src/stm32f4xx_ll_usb.c ****     if ((ep->type == EP_TYPE_INTR) || (ep->type == EP_TYPE_BULK))
 2743              		.loc 1 1088 31 is_stmt 0 view .LVU882
 2744 0026 00EB4310 		add	r0, r0, r3, lsl #5
 2745              	.LVL223:
1088:Drivers/STM32F4xx_HAL_Driver/Src/stm32f4xx_ll_usb.c ****     if ((ep->type == EP_TYPE_INTR) || (ep->type == EP_TYPE_BULK))
 2746              		.loc 1 1088 31 view .LVU883
 2747 002a D0F80039 		ldr	r3, [r0, #2304]
ARM GAS  /tmp/ccSVR7EX.s 			page 88


 2748              	.LVL224:
1088:Drivers/STM32F4xx_HAL_Driver/Src/stm32f4xx_ll_usb.c ****     if ((ep->type == EP_TYPE_INTR) || (ep->type == EP_TYPE_BULK))
 2749              		.loc 1 1088 31 view .LVU884
 2750 002e 23F40013 		bic	r3, r3, #2097152
 2751 0032 C0F80039 		str	r3, [r0, #2304]
 2752              	.LVL225:
1089:Drivers/STM32F4xx_HAL_Driver/Src/stm32f4xx_ll_usb.c ****     {
 2753              		.loc 1 1089 5 is_stmt 1 view .LVU885
1089:Drivers/STM32F4xx_HAL_Driver/Src/stm32f4xx_ll_usb.c ****     {
 2754              		.loc 1 1089 12 is_stmt 0 view .LVU886
 2755 0036 CB78     		ldrb	r3, [r1, #3]	@ zero_extendqisi2
1089:Drivers/STM32F4xx_HAL_Driver/Src/stm32f4xx_ll_usb.c ****     {
 2756              		.loc 1 1089 36 view .LVU887
 2757 0038 023B     		subs	r3, r3, #2
 2758 003a DBB2     		uxtb	r3, r3
1089:Drivers/STM32F4xx_HAL_Driver/Src/stm32f4xx_ll_usb.c ****     {
 2759              		.loc 1 1089 8 view .LVU888
 2760 003c 012B     		cmp	r3, #1
 2761 003e F0D8     		bhi	.L181
1091:Drivers/STM32F4xx_HAL_Driver/Src/stm32f4xx_ll_usb.c ****     }
 2762              		.loc 1 1091 7 is_stmt 1 view .LVU889
1091:Drivers/STM32F4xx_HAL_Driver/Src/stm32f4xx_ll_usb.c ****     }
 2763              		.loc 1 1091 33 is_stmt 0 view .LVU890
 2764 0040 D0F80039 		ldr	r3, [r0, #2304]
 2765 0044 43F08053 		orr	r3, r3, #268435456
 2766 0048 C0F80039 		str	r3, [r0, #2304]
 2767 004c E9E7     		b	.L181
 2768              	.L183:
1099:Drivers/STM32F4xx_HAL_Driver/Src/stm32f4xx_ll_usb.c ****     }
 2769              		.loc 1 1099 7 is_stmt 1 view .LVU891
1099:Drivers/STM32F4xx_HAL_Driver/Src/stm32f4xx_ll_usb.c ****     }
 2770              		.loc 1 1099 34 is_stmt 0 view .LVU892
 2771 004e D0F8003B 		ldr	r3, [r0, #2816]
 2772 0052 43F08053 		orr	r3, r3, #268435456
 2773 0056 C0F8003B 		str	r3, [r0, #2816]
 2774 005a E2E7     		b	.L181
 2775              		.cfi_endproc
 2776              	.LFE149:
 2778              		.section	.text.USB_StopDevice,"ax",%progbits
 2779              		.align	1
 2780              		.global	USB_StopDevice
 2781              		.syntax unified
 2782              		.thumb
 2783              		.thumb_func
 2784              		.fpu fpv4-sp-d16
 2786              	USB_StopDevice:
 2787              	.LVL226:
 2788              	.LFB150:
1111:Drivers/STM32F4xx_HAL_Driver/Src/stm32f4xx_ll_usb.c ****   HAL_StatusTypeDef ret;
 2789              		.loc 1 1111 1 is_stmt 1 view -0
 2790              		.cfi_startproc
 2791              		@ args = 0, pretend = 0, frame = 0
 2792              		@ frame_needed = 0, uses_anonymous_args = 0
1111:Drivers/STM32F4xx_HAL_Driver/Src/stm32f4xx_ll_usb.c ****   HAL_StatusTypeDef ret;
 2793              		.loc 1 1111 1 is_stmt 0 view .LVU894
 2794 0000 70B5     		push	{r4, r5, r6, lr}
 2795              	.LCFI39:
ARM GAS  /tmp/ccSVR7EX.s 			page 89


 2796              		.cfi_def_cfa_offset 16
 2797              		.cfi_offset 4, -16
 2798              		.cfi_offset 5, -12
 2799              		.cfi_offset 6, -8
 2800              		.cfi_offset 14, -4
 2801 0002 0646     		mov	r6, r0
1112:Drivers/STM32F4xx_HAL_Driver/Src/stm32f4xx_ll_usb.c ****   uint32_t USBx_BASE = (uint32_t)USBx;
 2802              		.loc 1 1112 3 is_stmt 1 view .LVU895
1113:Drivers/STM32F4xx_HAL_Driver/Src/stm32f4xx_ll_usb.c ****   uint32_t i;
 2803              		.loc 1 1113 3 view .LVU896
1113:Drivers/STM32F4xx_HAL_Driver/Src/stm32f4xx_ll_usb.c ****   uint32_t i;
 2804              		.loc 1 1113 12 is_stmt 0 view .LVU897
 2805 0004 0546     		mov	r5, r0
 2806              	.LVL227:
1114:Drivers/STM32F4xx_HAL_Driver/Src/stm32f4xx_ll_usb.c **** 
 2807              		.loc 1 1114 3 is_stmt 1 view .LVU898
1117:Drivers/STM32F4xx_HAL_Driver/Src/stm32f4xx_ll_usb.c ****   {
 2808              		.loc 1 1117 3 view .LVU899
1117:Drivers/STM32F4xx_HAL_Driver/Src/stm32f4xx_ll_usb.c ****   {
 2809              		.loc 1 1117 10 is_stmt 0 view .LVU900
 2810 0006 0022     		movs	r2, #0
1117:Drivers/STM32F4xx_HAL_Driver/Src/stm32f4xx_ll_usb.c ****   {
 2811              		.loc 1 1117 3 view .LVU901
 2812 0008 08E0     		b	.L185
 2813              	.LVL228:
 2814              	.L186:
1119:Drivers/STM32F4xx_HAL_Driver/Src/stm32f4xx_ll_usb.c ****     USBx_OUTEP(i)->DOEPINT = 0xFB7FU;
 2815              		.loc 1 1119 5 is_stmt 1 discriminator 3 view .LVU902
 2816 000a 05EB4213 		add	r3, r5, r2, lsl #5
1119:Drivers/STM32F4xx_HAL_Driver/Src/stm32f4xx_ll_usb.c ****     USBx_OUTEP(i)->DOEPINT = 0xFB7FU;
 2817              		.loc 1 1119 27 is_stmt 0 discriminator 3 view .LVU903
 2818 000e 4FF67F31 		movw	r1, #64383
 2819 0012 C3F80819 		str	r1, [r3, #2312]
1120:Drivers/STM32F4xx_HAL_Driver/Src/stm32f4xx_ll_usb.c ****   }
 2820              		.loc 1 1120 5 is_stmt 1 discriminator 3 view .LVU904
1120:Drivers/STM32F4xx_HAL_Driver/Src/stm32f4xx_ll_usb.c ****   }
 2821              		.loc 1 1120 28 is_stmt 0 discriminator 3 view .LVU905
 2822 0016 C3F8081B 		str	r1, [r3, #2824]
1117:Drivers/STM32F4xx_HAL_Driver/Src/stm32f4xx_ll_usb.c ****   {
 2823              		.loc 1 1117 25 is_stmt 1 discriminator 3 view .LVU906
1117:Drivers/STM32F4xx_HAL_Driver/Src/stm32f4xx_ll_usb.c ****   {
 2824              		.loc 1 1117 26 is_stmt 0 discriminator 3 view .LVU907
 2825 001a 0132     		adds	r2, r2, #1
 2826              	.LVL229:
 2827              	.L185:
1117:Drivers/STM32F4xx_HAL_Driver/Src/stm32f4xx_ll_usb.c ****   {
 2828              		.loc 1 1117 16 is_stmt 1 discriminator 1 view .LVU908
1117:Drivers/STM32F4xx_HAL_Driver/Src/stm32f4xx_ll_usb.c ****   {
 2829              		.loc 1 1117 3 is_stmt 0 discriminator 1 view .LVU909
 2830 001c 0E2A     		cmp	r2, #14
 2831 001e F4D9     		bls	.L186
1124:Drivers/STM32F4xx_HAL_Driver/Src/stm32f4xx_ll_usb.c ****   USBx_DEVICE->DOEPMSK  = 0U;
 2832              		.loc 1 1124 3 is_stmt 1 view .LVU910
1124:Drivers/STM32F4xx_HAL_Driver/Src/stm32f4xx_ll_usb.c ****   USBx_DEVICE->DOEPMSK  = 0U;
 2833              		.loc 1 1124 25 is_stmt 0 view .LVU911
 2834 0020 0022     		movs	r2, #0
 2835              	.LVL230:
ARM GAS  /tmp/ccSVR7EX.s 			page 90


1124:Drivers/STM32F4xx_HAL_Driver/Src/stm32f4xx_ll_usb.c ****   USBx_DEVICE->DOEPMSK  = 0U;
 2836              		.loc 1 1124 25 view .LVU912
 2837 0022 C6F81028 		str	r2, [r6, #2064]
1125:Drivers/STM32F4xx_HAL_Driver/Src/stm32f4xx_ll_usb.c ****   USBx_DEVICE->DAINTMSK = 0U;
 2838              		.loc 1 1125 3 is_stmt 1 view .LVU913
1125:Drivers/STM32F4xx_HAL_Driver/Src/stm32f4xx_ll_usb.c ****   USBx_DEVICE->DAINTMSK = 0U;
 2839              		.loc 1 1125 25 is_stmt 0 view .LVU914
 2840 0026 C6F81428 		str	r2, [r6, #2068]
1126:Drivers/STM32F4xx_HAL_Driver/Src/stm32f4xx_ll_usb.c **** 
 2841              		.loc 1 1126 3 is_stmt 1 view .LVU915
1126:Drivers/STM32F4xx_HAL_Driver/Src/stm32f4xx_ll_usb.c **** 
 2842              		.loc 1 1126 25 is_stmt 0 view .LVU916
 2843 002a C6F81C28 		str	r2, [r6, #2076]
1129:Drivers/STM32F4xx_HAL_Driver/Src/stm32f4xx_ll_usb.c ****   if (ret != HAL_OK)
 2844              		.loc 1 1129 3 is_stmt 1 view .LVU917
1129:Drivers/STM32F4xx_HAL_Driver/Src/stm32f4xx_ll_usb.c ****   if (ret != HAL_OK)
 2845              		.loc 1 1129 9 is_stmt 0 view .LVU918
 2846 002e 3046     		mov	r0, r6
 2847              	.LVL231:
1129:Drivers/STM32F4xx_HAL_Driver/Src/stm32f4xx_ll_usb.c ****   if (ret != HAL_OK)
 2848              		.loc 1 1129 9 view .LVU919
 2849 0030 FFF7FEFF 		bl	USB_FlushRxFifo
 2850              	.LVL232:
1130:Drivers/STM32F4xx_HAL_Driver/Src/stm32f4xx_ll_usb.c ****   {
 2851              		.loc 1 1130 3 is_stmt 1 view .LVU920
1130:Drivers/STM32F4xx_HAL_Driver/Src/stm32f4xx_ll_usb.c ****   {
 2852              		.loc 1 1130 6 is_stmt 0 view .LVU921
 2853 0034 00B1     		cbz	r0, .L189
 2854              	.L187:
1142:Drivers/STM32F4xx_HAL_Driver/Src/stm32f4xx_ll_usb.c **** 
 2855              		.loc 1 1142 1 view .LVU922
 2856 0036 70BD     		pop	{r4, r5, r6, pc}
 2857              	.LVL233:
 2858              	.L189:
1135:Drivers/STM32F4xx_HAL_Driver/Src/stm32f4xx_ll_usb.c ****   if (ret != HAL_OK)
 2859              		.loc 1 1135 3 is_stmt 1 view .LVU923
1135:Drivers/STM32F4xx_HAL_Driver/Src/stm32f4xx_ll_usb.c ****   if (ret != HAL_OK)
 2860              		.loc 1 1135 9 is_stmt 0 view .LVU924
 2861 0038 1021     		movs	r1, #16
 2862 003a 3046     		mov	r0, r6
 2863              	.LVL234:
1135:Drivers/STM32F4xx_HAL_Driver/Src/stm32f4xx_ll_usb.c ****   if (ret != HAL_OK)
 2864              		.loc 1 1135 9 view .LVU925
 2865 003c FFF7FEFF 		bl	USB_FlushTxFifo
 2866              	.LVL235:
1136:Drivers/STM32F4xx_HAL_Driver/Src/stm32f4xx_ll_usb.c ****   {
 2867              		.loc 1 1136 3 is_stmt 1 view .LVU926
 2868 0040 F9E7     		b	.L187
 2869              		.cfi_endproc
 2870              	.LFE150:
 2872              		.section	.text.USB_SetDevAddress,"ax",%progbits
 2873              		.align	1
 2874              		.global	USB_SetDevAddress
 2875              		.syntax unified
 2876              		.thumb
 2877              		.thumb_func
 2878              		.fpu fpv4-sp-d16
ARM GAS  /tmp/ccSVR7EX.s 			page 91


 2880              	USB_SetDevAddress:
 2881              	.LVL236:
 2882              	.LFB151:
1152:Drivers/STM32F4xx_HAL_Driver/Src/stm32f4xx_ll_usb.c ****   uint32_t USBx_BASE = (uint32_t)USBx;
 2883              		.loc 1 1152 1 view -0
 2884              		.cfi_startproc
 2885              		@ args = 0, pretend = 0, frame = 0
 2886              		@ frame_needed = 0, uses_anonymous_args = 0
 2887              		@ link register save eliminated.
1153:Drivers/STM32F4xx_HAL_Driver/Src/stm32f4xx_ll_usb.c **** 
 2888              		.loc 1 1153 3 view .LVU928
1155:Drivers/STM32F4xx_HAL_Driver/Src/stm32f4xx_ll_usb.c ****   USBx_DEVICE->DCFG |= ((uint32_t)address << 4) & USB_OTG_DCFG_DAD;
 2889              		.loc 1 1155 3 view .LVU929
1155:Drivers/STM32F4xx_HAL_Driver/Src/stm32f4xx_ll_usb.c ****   USBx_DEVICE->DCFG |= ((uint32_t)address << 4) & USB_OTG_DCFG_DAD;
 2890              		.loc 1 1155 21 is_stmt 0 view .LVU930
 2891 0000 D0F80038 		ldr	r3, [r0, #2048]
 2892 0004 23F4FE63 		bic	r3, r3, #2032
 2893 0008 C0F80038 		str	r3, [r0, #2048]
1156:Drivers/STM32F4xx_HAL_Driver/Src/stm32f4xx_ll_usb.c **** 
 2894              		.loc 1 1156 3 is_stmt 1 view .LVU931
1156:Drivers/STM32F4xx_HAL_Driver/Src/stm32f4xx_ll_usb.c **** 
 2895              		.loc 1 1156 21 is_stmt 0 view .LVU932
 2896 000c D0F80038 		ldr	r3, [r0, #2048]
1156:Drivers/STM32F4xx_HAL_Driver/Src/stm32f4xx_ll_usb.c **** 
 2897              		.loc 1 1156 43 view .LVU933
 2898 0010 0901     		lsls	r1, r1, #4
 2899              	.LVL237:
1156:Drivers/STM32F4xx_HAL_Driver/Src/stm32f4xx_ll_usb.c **** 
 2900              		.loc 1 1156 49 view .LVU934
 2901 0012 01F4FE61 		and	r1, r1, #2032
1156:Drivers/STM32F4xx_HAL_Driver/Src/stm32f4xx_ll_usb.c **** 
 2902              		.loc 1 1156 21 view .LVU935
 2903 0016 1943     		orrs	r1, r1, r3
 2904 0018 C0F80018 		str	r1, [r0, #2048]
1158:Drivers/STM32F4xx_HAL_Driver/Src/stm32f4xx_ll_usb.c **** }
 2905              		.loc 1 1158 3 is_stmt 1 view .LVU936
1159:Drivers/STM32F4xx_HAL_Driver/Src/stm32f4xx_ll_usb.c **** 
 2906              		.loc 1 1159 1 is_stmt 0 view .LVU937
 2907 001c 0020     		movs	r0, #0
 2908              	.LVL238:
1159:Drivers/STM32F4xx_HAL_Driver/Src/stm32f4xx_ll_usb.c **** 
 2909              		.loc 1 1159 1 view .LVU938
 2910 001e 7047     		bx	lr
 2911              		.cfi_endproc
 2912              	.LFE151:
 2914              		.section	.text.USB_DevConnect,"ax",%progbits
 2915              		.align	1
 2916              		.global	USB_DevConnect
 2917              		.syntax unified
 2918              		.thumb
 2919              		.thumb_func
 2920              		.fpu fpv4-sp-d16
 2922              	USB_DevConnect:
 2923              	.LVL239:
 2924              	.LFB152:
1167:Drivers/STM32F4xx_HAL_Driver/Src/stm32f4xx_ll_usb.c ****   uint32_t USBx_BASE = (uint32_t)USBx;
 2925              		.loc 1 1167 1 is_stmt 1 view -0
ARM GAS  /tmp/ccSVR7EX.s 			page 92


 2926              		.cfi_startproc
 2927              		@ args = 0, pretend = 0, frame = 0
 2928              		@ frame_needed = 0, uses_anonymous_args = 0
 2929              		@ link register save eliminated.
1168:Drivers/STM32F4xx_HAL_Driver/Src/stm32f4xx_ll_usb.c **** 
 2930              		.loc 1 1168 3 view .LVU940
1171:Drivers/STM32F4xx_HAL_Driver/Src/stm32f4xx_ll_usb.c **** 
 2931              		.loc 1 1171 3 view .LVU941
1171:Drivers/STM32F4xx_HAL_Driver/Src/stm32f4xx_ll_usb.c **** 
 2932              		.loc 1 1171 16 is_stmt 0 view .LVU942
 2933 0000 D0F8003E 		ldr	r3, [r0, #3584]
 2934 0004 23F00303 		bic	r3, r3, #3
 2935 0008 C0F8003E 		str	r3, [r0, #3584]
1173:Drivers/STM32F4xx_HAL_Driver/Src/stm32f4xx_ll_usb.c **** 
 2936              		.loc 1 1173 3 is_stmt 1 view .LVU943
1173:Drivers/STM32F4xx_HAL_Driver/Src/stm32f4xx_ll_usb.c **** 
 2937              		.loc 1 1173 21 is_stmt 0 view .LVU944
 2938 000c D0F80438 		ldr	r3, [r0, #2052]
 2939 0010 23F00203 		bic	r3, r3, #2
 2940 0014 C0F80438 		str	r3, [r0, #2052]
1175:Drivers/STM32F4xx_HAL_Driver/Src/stm32f4xx_ll_usb.c **** }
 2941              		.loc 1 1175 3 is_stmt 1 view .LVU945
1176:Drivers/STM32F4xx_HAL_Driver/Src/stm32f4xx_ll_usb.c **** 
 2942              		.loc 1 1176 1 is_stmt 0 view .LVU946
 2943 0018 0020     		movs	r0, #0
 2944              	.LVL240:
1176:Drivers/STM32F4xx_HAL_Driver/Src/stm32f4xx_ll_usb.c **** 
 2945              		.loc 1 1176 1 view .LVU947
 2946 001a 7047     		bx	lr
 2947              		.cfi_endproc
 2948              	.LFE152:
 2950              		.section	.text.USB_DevDisconnect,"ax",%progbits
 2951              		.align	1
 2952              		.global	USB_DevDisconnect
 2953              		.syntax unified
 2954              		.thumb
 2955              		.thumb_func
 2956              		.fpu fpv4-sp-d16
 2958              	USB_DevDisconnect:
 2959              	.LVL241:
 2960              	.LFB153:
1184:Drivers/STM32F4xx_HAL_Driver/Src/stm32f4xx_ll_usb.c ****   uint32_t USBx_BASE = (uint32_t)USBx;
 2961              		.loc 1 1184 1 is_stmt 1 view -0
 2962              		.cfi_startproc
 2963              		@ args = 0, pretend = 0, frame = 0
 2964              		@ frame_needed = 0, uses_anonymous_args = 0
 2965              		@ link register save eliminated.
1185:Drivers/STM32F4xx_HAL_Driver/Src/stm32f4xx_ll_usb.c **** 
 2966              		.loc 1 1185 3 view .LVU949
1188:Drivers/STM32F4xx_HAL_Driver/Src/stm32f4xx_ll_usb.c **** 
 2967              		.loc 1 1188 3 view .LVU950
1188:Drivers/STM32F4xx_HAL_Driver/Src/stm32f4xx_ll_usb.c **** 
 2968              		.loc 1 1188 16 is_stmt 0 view .LVU951
 2969 0000 D0F8003E 		ldr	r3, [r0, #3584]
 2970 0004 23F00303 		bic	r3, r3, #3
 2971 0008 C0F8003E 		str	r3, [r0, #3584]
1190:Drivers/STM32F4xx_HAL_Driver/Src/stm32f4xx_ll_usb.c **** 
ARM GAS  /tmp/ccSVR7EX.s 			page 93


 2972              		.loc 1 1190 3 is_stmt 1 view .LVU952
1190:Drivers/STM32F4xx_HAL_Driver/Src/stm32f4xx_ll_usb.c **** 
 2973              		.loc 1 1190 21 is_stmt 0 view .LVU953
 2974 000c D0F80438 		ldr	r3, [r0, #2052]
 2975 0010 43F00203 		orr	r3, r3, #2
 2976 0014 C0F80438 		str	r3, [r0, #2052]
1192:Drivers/STM32F4xx_HAL_Driver/Src/stm32f4xx_ll_usb.c **** }
 2977              		.loc 1 1192 3 is_stmt 1 view .LVU954
1193:Drivers/STM32F4xx_HAL_Driver/Src/stm32f4xx_ll_usb.c **** 
 2978              		.loc 1 1193 1 is_stmt 0 view .LVU955
 2979 0018 0020     		movs	r0, #0
 2980              	.LVL242:
1193:Drivers/STM32F4xx_HAL_Driver/Src/stm32f4xx_ll_usb.c **** 
 2981              		.loc 1 1193 1 view .LVU956
 2982 001a 7047     		bx	lr
 2983              		.cfi_endproc
 2984              	.LFE153:
 2986              		.section	.text.USB_ReadInterrupts,"ax",%progbits
 2987              		.align	1
 2988              		.global	USB_ReadInterrupts
 2989              		.syntax unified
 2990              		.thumb
 2991              		.thumb_func
 2992              		.fpu fpv4-sp-d16
 2994              	USB_ReadInterrupts:
 2995              	.LVL243:
 2996              	.LFB154:
1201:Drivers/STM32F4xx_HAL_Driver/Src/stm32f4xx_ll_usb.c ****   uint32_t tmpreg;
 2997              		.loc 1 1201 1 is_stmt 1 view -0
 2998              		.cfi_startproc
 2999              		@ args = 0, pretend = 0, frame = 0
 3000              		@ frame_needed = 0, uses_anonymous_args = 0
 3001              		@ link register save eliminated.
1202:Drivers/STM32F4xx_HAL_Driver/Src/stm32f4xx_ll_usb.c **** 
 3002              		.loc 1 1202 3 view .LVU958
1204:Drivers/STM32F4xx_HAL_Driver/Src/stm32f4xx_ll_usb.c ****   tmpreg &= USBx->GINTMSK;
 3003              		.loc 1 1204 3 view .LVU959
1204:Drivers/STM32F4xx_HAL_Driver/Src/stm32f4xx_ll_usb.c ****   tmpreg &= USBx->GINTMSK;
 3004              		.loc 1 1204 10 is_stmt 0 view .LVU960
 3005 0000 4269     		ldr	r2, [r0, #20]
 3006              	.LVL244:
1205:Drivers/STM32F4xx_HAL_Driver/Src/stm32f4xx_ll_usb.c **** 
 3007              		.loc 1 1205 3 is_stmt 1 view .LVU961
1205:Drivers/STM32F4xx_HAL_Driver/Src/stm32f4xx_ll_usb.c **** 
 3008              		.loc 1 1205 17 is_stmt 0 view .LVU962
 3009 0002 8069     		ldr	r0, [r0, #24]
 3010              	.LVL245:
1207:Drivers/STM32F4xx_HAL_Driver/Src/stm32f4xx_ll_usb.c **** }
 3011              		.loc 1 1207 3 is_stmt 1 view .LVU963
1208:Drivers/STM32F4xx_HAL_Driver/Src/stm32f4xx_ll_usb.c **** 
 3012              		.loc 1 1208 1 is_stmt 0 view .LVU964
 3013 0004 1040     		ands	r0, r0, r2
 3014              	.LVL246:
1208:Drivers/STM32F4xx_HAL_Driver/Src/stm32f4xx_ll_usb.c **** 
 3015              		.loc 1 1208 1 view .LVU965
 3016 0006 7047     		bx	lr
 3017              		.cfi_endproc
ARM GAS  /tmp/ccSVR7EX.s 			page 94


 3018              	.LFE154:
 3020              		.section	.text.USB_ReadDevAllOutEpInterrupt,"ax",%progbits
 3021              		.align	1
 3022              		.global	USB_ReadDevAllOutEpInterrupt
 3023              		.syntax unified
 3024              		.thumb
 3025              		.thumb_func
 3026              		.fpu fpv4-sp-d16
 3028              	USB_ReadDevAllOutEpInterrupt:
 3029              	.LVL247:
 3030              	.LFB155:
1216:Drivers/STM32F4xx_HAL_Driver/Src/stm32f4xx_ll_usb.c ****   uint32_t USBx_BASE = (uint32_t)USBx;
 3031              		.loc 1 1216 1 is_stmt 1 view -0
 3032              		.cfi_startproc
 3033              		@ args = 0, pretend = 0, frame = 0
 3034              		@ frame_needed = 0, uses_anonymous_args = 0
 3035              		@ link register save eliminated.
1217:Drivers/STM32F4xx_HAL_Driver/Src/stm32f4xx_ll_usb.c ****   uint32_t tmpreg;
 3036              		.loc 1 1217 3 view .LVU967
1218:Drivers/STM32F4xx_HAL_Driver/Src/stm32f4xx_ll_usb.c **** 
 3037              		.loc 1 1218 3 view .LVU968
1220:Drivers/STM32F4xx_HAL_Driver/Src/stm32f4xx_ll_usb.c ****   tmpreg &= USBx_DEVICE->DAINTMSK;
 3038              		.loc 1 1220 3 view .LVU969
1220:Drivers/STM32F4xx_HAL_Driver/Src/stm32f4xx_ll_usb.c ****   tmpreg &= USBx_DEVICE->DAINTMSK;
 3039              		.loc 1 1220 11 is_stmt 0 view .LVU970
 3040 0000 D0F81838 		ldr	r3, [r0, #2072]
1220:Drivers/STM32F4xx_HAL_Driver/Src/stm32f4xx_ll_usb.c ****   tmpreg &= USBx_DEVICE->DAINTMSK;
 3041              		.loc 1 1220 13 view .LVU971
 3042 0004 00F50060 		add	r0, r0, #2048
 3043              	.LVL248:
1221:Drivers/STM32F4xx_HAL_Driver/Src/stm32f4xx_ll_usb.c **** 
 3044              		.loc 1 1221 3 is_stmt 1 view .LVU972
1221:Drivers/STM32F4xx_HAL_Driver/Src/stm32f4xx_ll_usb.c **** 
 3045              		.loc 1 1221 24 is_stmt 0 view .LVU973
 3046 0008 C069     		ldr	r0, [r0, #28]
 3047              	.LVL249:
1221:Drivers/STM32F4xx_HAL_Driver/Src/stm32f4xx_ll_usb.c **** 
 3048              		.loc 1 1221 10 view .LVU974
 3049 000a 1840     		ands	r0, r0, r3
 3050              	.LVL250:
1223:Drivers/STM32F4xx_HAL_Driver/Src/stm32f4xx_ll_usb.c **** }
 3051              		.loc 1 1223 3 is_stmt 1 view .LVU975
1224:Drivers/STM32F4xx_HAL_Driver/Src/stm32f4xx_ll_usb.c **** 
 3052              		.loc 1 1224 1 is_stmt 0 view .LVU976
 3053 000c 000C     		lsrs	r0, r0, #16
 3054              	.LVL251:
1224:Drivers/STM32F4xx_HAL_Driver/Src/stm32f4xx_ll_usb.c **** 
 3055              		.loc 1 1224 1 view .LVU977
 3056 000e 7047     		bx	lr
 3057              		.cfi_endproc
 3058              	.LFE155:
 3060              		.section	.text.USB_ReadDevAllInEpInterrupt,"ax",%progbits
 3061              		.align	1
 3062              		.global	USB_ReadDevAllInEpInterrupt
 3063              		.syntax unified
 3064              		.thumb
 3065              		.thumb_func
ARM GAS  /tmp/ccSVR7EX.s 			page 95


 3066              		.fpu fpv4-sp-d16
 3068              	USB_ReadDevAllInEpInterrupt:
 3069              	.LVL252:
 3070              	.LFB156:
1232:Drivers/STM32F4xx_HAL_Driver/Src/stm32f4xx_ll_usb.c ****   uint32_t USBx_BASE = (uint32_t)USBx;
 3071              		.loc 1 1232 1 is_stmt 1 view -0
 3072              		.cfi_startproc
 3073              		@ args = 0, pretend = 0, frame = 0
 3074              		@ frame_needed = 0, uses_anonymous_args = 0
 3075              		@ link register save eliminated.
1233:Drivers/STM32F4xx_HAL_Driver/Src/stm32f4xx_ll_usb.c ****   uint32_t tmpreg;
 3076              		.loc 1 1233 3 view .LVU979
1234:Drivers/STM32F4xx_HAL_Driver/Src/stm32f4xx_ll_usb.c **** 
 3077              		.loc 1 1234 3 view .LVU980
1236:Drivers/STM32F4xx_HAL_Driver/Src/stm32f4xx_ll_usb.c ****   tmpreg &= USBx_DEVICE->DAINTMSK;
 3078              		.loc 1 1236 3 view .LVU981
1236:Drivers/STM32F4xx_HAL_Driver/Src/stm32f4xx_ll_usb.c ****   tmpreg &= USBx_DEVICE->DAINTMSK;
 3079              		.loc 1 1236 11 is_stmt 0 view .LVU982
 3080 0000 D0F81838 		ldr	r3, [r0, #2072]
1236:Drivers/STM32F4xx_HAL_Driver/Src/stm32f4xx_ll_usb.c ****   tmpreg &= USBx_DEVICE->DAINTMSK;
 3081              		.loc 1 1236 13 view .LVU983
 3082 0004 00F50060 		add	r0, r0, #2048
 3083              	.LVL253:
1237:Drivers/STM32F4xx_HAL_Driver/Src/stm32f4xx_ll_usb.c **** 
 3084              		.loc 1 1237 3 is_stmt 1 view .LVU984
1237:Drivers/STM32F4xx_HAL_Driver/Src/stm32f4xx_ll_usb.c **** 
 3085              		.loc 1 1237 24 is_stmt 0 view .LVU985
 3086 0008 C069     		ldr	r0, [r0, #28]
 3087              	.LVL254:
1237:Drivers/STM32F4xx_HAL_Driver/Src/stm32f4xx_ll_usb.c **** 
 3088              		.loc 1 1237 10 view .LVU986
 3089 000a 1840     		ands	r0, r0, r3
 3090              	.LVL255:
1239:Drivers/STM32F4xx_HAL_Driver/Src/stm32f4xx_ll_usb.c **** }
 3091              		.loc 1 1239 3 is_stmt 1 view .LVU987
1240:Drivers/STM32F4xx_HAL_Driver/Src/stm32f4xx_ll_usb.c **** 
 3092              		.loc 1 1240 1 is_stmt 0 view .LVU988
 3093 000c 80B2     		uxth	r0, r0
 3094              	.LVL256:
1240:Drivers/STM32F4xx_HAL_Driver/Src/stm32f4xx_ll_usb.c **** 
 3095              		.loc 1 1240 1 view .LVU989
 3096 000e 7047     		bx	lr
 3097              		.cfi_endproc
 3098              	.LFE156:
 3100              		.section	.text.USB_ReadDevOutEPInterrupt,"ax",%progbits
 3101              		.align	1
 3102              		.global	USB_ReadDevOutEPInterrupt
 3103              		.syntax unified
 3104              		.thumb
 3105              		.thumb_func
 3106              		.fpu fpv4-sp-d16
 3108              	USB_ReadDevOutEPInterrupt:
 3109              	.LVL257:
 3110              	.LFB157:
1250:Drivers/STM32F4xx_HAL_Driver/Src/stm32f4xx_ll_usb.c ****   uint32_t USBx_BASE = (uint32_t)USBx;
 3111              		.loc 1 1250 1 is_stmt 1 view -0
 3112              		.cfi_startproc
ARM GAS  /tmp/ccSVR7EX.s 			page 96


 3113              		@ args = 0, pretend = 0, frame = 0
 3114              		@ frame_needed = 0, uses_anonymous_args = 0
 3115              		@ link register save eliminated.
1251:Drivers/STM32F4xx_HAL_Driver/Src/stm32f4xx_ll_usb.c ****   uint32_t tmpreg;
 3116              		.loc 1 1251 3 view .LVU991
1252:Drivers/STM32F4xx_HAL_Driver/Src/stm32f4xx_ll_usb.c **** 
 3117              		.loc 1 1252 3 view .LVU992
1254:Drivers/STM32F4xx_HAL_Driver/Src/stm32f4xx_ll_usb.c ****   tmpreg &= USBx_DEVICE->DOEPMSK;
 3118              		.loc 1 1254 3 view .LVU993
1254:Drivers/STM32F4xx_HAL_Driver/Src/stm32f4xx_ll_usb.c ****   tmpreg &= USBx_DEVICE->DOEPMSK;
 3119              		.loc 1 1254 13 is_stmt 0 view .LVU994
 3120 0000 00EB4111 		add	r1, r0, r1, lsl #5
 3121              	.LVL258:
1254:Drivers/STM32F4xx_HAL_Driver/Src/stm32f4xx_ll_usb.c ****   tmpreg &= USBx_DEVICE->DOEPMSK;
 3122              		.loc 1 1254 11 view .LVU995
 3123 0004 D1F8082B 		ldr	r2, [r1, #2824]
 3124              	.LVL259:
1255:Drivers/STM32F4xx_HAL_Driver/Src/stm32f4xx_ll_usb.c **** 
 3125              		.loc 1 1255 3 is_stmt 1 view .LVU996
1255:Drivers/STM32F4xx_HAL_Driver/Src/stm32f4xx_ll_usb.c **** 
 3126              		.loc 1 1255 13 is_stmt 0 view .LVU997
 3127 0008 00F50060 		add	r0, r0, #2048
 3128              	.LVL260:
1255:Drivers/STM32F4xx_HAL_Driver/Src/stm32f4xx_ll_usb.c **** 
 3129              		.loc 1 1255 24 view .LVU998
 3130 000c 4069     		ldr	r0, [r0, #20]
 3131              	.LVL261:
1257:Drivers/STM32F4xx_HAL_Driver/Src/stm32f4xx_ll_usb.c **** }
 3132              		.loc 1 1257 3 is_stmt 1 view .LVU999
1258:Drivers/STM32F4xx_HAL_Driver/Src/stm32f4xx_ll_usb.c **** 
 3133              		.loc 1 1258 1 is_stmt 0 view .LVU1000
 3134 000e 1040     		ands	r0, r0, r2
 3135              	.LVL262:
1258:Drivers/STM32F4xx_HAL_Driver/Src/stm32f4xx_ll_usb.c **** 
 3136              		.loc 1 1258 1 view .LVU1001
 3137 0010 7047     		bx	lr
 3138              		.cfi_endproc
 3139              	.LFE157:
 3141              		.section	.text.USB_ReadDevInEPInterrupt,"ax",%progbits
 3142              		.align	1
 3143              		.global	USB_ReadDevInEPInterrupt
 3144              		.syntax unified
 3145              		.thumb
 3146              		.thumb_func
 3147              		.fpu fpv4-sp-d16
 3149              	USB_ReadDevInEPInterrupt:
 3150              	.LVL263:
 3151              	.LFB158:
1268:Drivers/STM32F4xx_HAL_Driver/Src/stm32f4xx_ll_usb.c ****   uint32_t USBx_BASE = (uint32_t)USBx;
 3152              		.loc 1 1268 1 is_stmt 1 view -0
 3153              		.cfi_startproc
 3154              		@ args = 0, pretend = 0, frame = 0
 3155              		@ frame_needed = 0, uses_anonymous_args = 0
 3156              		@ link register save eliminated.
1268:Drivers/STM32F4xx_HAL_Driver/Src/stm32f4xx_ll_usb.c ****   uint32_t USBx_BASE = (uint32_t)USBx;
 3157              		.loc 1 1268 1 is_stmt 0 view .LVU1003
 3158 0000 10B4     		push	{r4}
ARM GAS  /tmp/ccSVR7EX.s 			page 97


 3159              	.LCFI40:
 3160              		.cfi_def_cfa_offset 4
 3161              		.cfi_offset 4, -4
1269:Drivers/STM32F4xx_HAL_Driver/Src/stm32f4xx_ll_usb.c ****   uint32_t tmpreg;
 3162              		.loc 1 1269 3 is_stmt 1 view .LVU1004
 3163              	.LVL264:
1270:Drivers/STM32F4xx_HAL_Driver/Src/stm32f4xx_ll_usb.c ****   uint32_t msk;
 3164              		.loc 1 1270 3 view .LVU1005
1271:Drivers/STM32F4xx_HAL_Driver/Src/stm32f4xx_ll_usb.c ****   uint32_t emp;
 3165              		.loc 1 1271 3 view .LVU1006
1272:Drivers/STM32F4xx_HAL_Driver/Src/stm32f4xx_ll_usb.c **** 
 3166              		.loc 1 1272 3 view .LVU1007
1274:Drivers/STM32F4xx_HAL_Driver/Src/stm32f4xx_ll_usb.c ****   emp = USBx_DEVICE->DIEPEMPMSK;
 3167              		.loc 1 1274 3 view .LVU1008
1274:Drivers/STM32F4xx_HAL_Driver/Src/stm32f4xx_ll_usb.c ****   emp = USBx_DEVICE->DIEPEMPMSK;
 3168              		.loc 1 1274 7 is_stmt 0 view .LVU1009
 3169 0002 D0F81048 		ldr	r4, [r0, #2064]
 3170              	.LVL265:
1275:Drivers/STM32F4xx_HAL_Driver/Src/stm32f4xx_ll_usb.c ****   msk |= ((emp >> (epnum & EP_ADDR_MSK)) & 0x1U) << 7;
 3171              		.loc 1 1275 3 is_stmt 1 view .LVU1010
1275:Drivers/STM32F4xx_HAL_Driver/Src/stm32f4xx_ll_usb.c ****   msk |= ((emp >> (epnum & EP_ADDR_MSK)) & 0x1U) << 7;
 3172              		.loc 1 1275 7 is_stmt 0 view .LVU1011
 3173 0006 D0F83438 		ldr	r3, [r0, #2100]
 3174              	.LVL266:
1276:Drivers/STM32F4xx_HAL_Driver/Src/stm32f4xx_ll_usb.c ****   tmpreg = USBx_INEP((uint32_t)epnum)->DIEPINT & msk;
 3175              		.loc 1 1276 3 is_stmt 1 view .LVU1012
1276:Drivers/STM32F4xx_HAL_Driver/Src/stm32f4xx_ll_usb.c ****   tmpreg = USBx_INEP((uint32_t)epnum)->DIEPINT & msk;
 3176              		.loc 1 1276 26 is_stmt 0 view .LVU1013
 3177 000a 01F00F02 		and	r2, r1, #15
1276:Drivers/STM32F4xx_HAL_Driver/Src/stm32f4xx_ll_usb.c ****   tmpreg = USBx_INEP((uint32_t)epnum)->DIEPINT & msk;
 3178              		.loc 1 1276 16 view .LVU1014
 3179 000e D340     		lsrs	r3, r3, r2
 3180              	.LVL267:
1276:Drivers/STM32F4xx_HAL_Driver/Src/stm32f4xx_ll_usb.c ****   tmpreg = USBx_INEP((uint32_t)epnum)->DIEPINT & msk;
 3181              		.loc 1 1276 50 view .LVU1015
 3182 0010 DB01     		lsls	r3, r3, #7
 3183 0012 DBB2     		uxtb	r3, r3
1276:Drivers/STM32F4xx_HAL_Driver/Src/stm32f4xx_ll_usb.c ****   tmpreg = USBx_INEP((uint32_t)epnum)->DIEPINT & msk;
 3184              		.loc 1 1276 7 view .LVU1016
 3185 0014 2343     		orrs	r3, r3, r4
 3186              	.LVL268:
1277:Drivers/STM32F4xx_HAL_Driver/Src/stm32f4xx_ll_usb.c **** 
 3187              		.loc 1 1277 3 is_stmt 1 view .LVU1017
1277:Drivers/STM32F4xx_HAL_Driver/Src/stm32f4xx_ll_usb.c **** 
 3188              		.loc 1 1277 12 is_stmt 0 view .LVU1018
 3189 0016 00EB4110 		add	r0, r0, r1, lsl #5
 3190              	.LVL269:
1277:Drivers/STM32F4xx_HAL_Driver/Src/stm32f4xx_ll_usb.c **** 
 3191              		.loc 1 1277 12 view .LVU1019
 3192 001a 00F51060 		add	r0, r0, #2304
1277:Drivers/STM32F4xx_HAL_Driver/Src/stm32f4xx_ll_usb.c **** 
 3193              		.loc 1 1277 38 view .LVU1020
 3194 001e 8068     		ldr	r0, [r0, #8]
 3195              	.LVL270:
1279:Drivers/STM32F4xx_HAL_Driver/Src/stm32f4xx_ll_usb.c **** }
 3196              		.loc 1 1279 3 is_stmt 1 view .LVU1021
1280:Drivers/STM32F4xx_HAL_Driver/Src/stm32f4xx_ll_usb.c **** 
ARM GAS  /tmp/ccSVR7EX.s 			page 98


 3197              		.loc 1 1280 1 is_stmt 0 view .LVU1022
 3198 0020 1840     		ands	r0, r0, r3
 3199              	.LVL271:
1280:Drivers/STM32F4xx_HAL_Driver/Src/stm32f4xx_ll_usb.c **** 
 3200              		.loc 1 1280 1 view .LVU1023
 3201 0022 5DF8044B 		ldr	r4, [sp], #4
 3202              	.LCFI41:
 3203              		.cfi_restore 4
 3204              		.cfi_def_cfa_offset 0
 3205 0026 7047     		bx	lr
 3206              		.cfi_endproc
 3207              	.LFE158:
 3209              		.section	.text.USB_ClearInterrupts,"ax",%progbits
 3210              		.align	1
 3211              		.global	USB_ClearInterrupts
 3212              		.syntax unified
 3213              		.thumb
 3214              		.thumb_func
 3215              		.fpu fpv4-sp-d16
 3217              	USB_ClearInterrupts:
 3218              	.LVL272:
 3219              	.LFB159:
1289:Drivers/STM32F4xx_HAL_Driver/Src/stm32f4xx_ll_usb.c ****   USBx->GINTSTS |= interrupt;
 3220              		.loc 1 1289 1 is_stmt 1 view -0
 3221              		.cfi_startproc
 3222              		@ args = 0, pretend = 0, frame = 0
 3223              		@ frame_needed = 0, uses_anonymous_args = 0
 3224              		@ link register save eliminated.
1290:Drivers/STM32F4xx_HAL_Driver/Src/stm32f4xx_ll_usb.c **** }
 3225              		.loc 1 1290 3 view .LVU1025
1290:Drivers/STM32F4xx_HAL_Driver/Src/stm32f4xx_ll_usb.c **** }
 3226              		.loc 1 1290 17 is_stmt 0 view .LVU1026
 3227 0000 4369     		ldr	r3, [r0, #20]
 3228 0002 0B43     		orrs	r3, r3, r1
 3229 0004 4361     		str	r3, [r0, #20]
1291:Drivers/STM32F4xx_HAL_Driver/Src/stm32f4xx_ll_usb.c **** 
 3230              		.loc 1 1291 1 view .LVU1027
 3231 0006 7047     		bx	lr
 3232              		.cfi_endproc
 3233              	.LFE159:
 3235              		.section	.text.USB_GetMode,"ax",%progbits
 3236              		.align	1
 3237              		.global	USB_GetMode
 3238              		.syntax unified
 3239              		.thumb
 3240              		.thumb_func
 3241              		.fpu fpv4-sp-d16
 3243              	USB_GetMode:
 3244              	.LVL273:
 3245              	.LFB160:
1302:Drivers/STM32F4xx_HAL_Driver/Src/stm32f4xx_ll_usb.c ****   return ((USBx->GINTSTS) & 0x1U);
 3246              		.loc 1 1302 1 is_stmt 1 view -0
 3247              		.cfi_startproc
 3248              		@ args = 0, pretend = 0, frame = 0
 3249              		@ frame_needed = 0, uses_anonymous_args = 0
 3250              		@ link register save eliminated.
1303:Drivers/STM32F4xx_HAL_Driver/Src/stm32f4xx_ll_usb.c **** }
ARM GAS  /tmp/ccSVR7EX.s 			page 99


 3251              		.loc 1 1303 3 view .LVU1029
1303:Drivers/STM32F4xx_HAL_Driver/Src/stm32f4xx_ll_usb.c **** }
 3252              		.loc 1 1303 16 is_stmt 0 view .LVU1030
 3253 0000 4069     		ldr	r0, [r0, #20]
 3254              	.LVL274:
1304:Drivers/STM32F4xx_HAL_Driver/Src/stm32f4xx_ll_usb.c **** 
 3255              		.loc 1 1304 1 view .LVU1031
 3256 0002 00F00100 		and	r0, r0, #1
 3257 0006 7047     		bx	lr
 3258              		.cfi_endproc
 3259              	.LFE160:
 3261              		.section	.text.USB_SetCurrentMode,"ax",%progbits
 3262              		.align	1
 3263              		.global	USB_SetCurrentMode
 3264              		.syntax unified
 3265              		.thumb
 3266              		.thumb_func
 3267              		.fpu fpv4-sp-d16
 3269              	USB_SetCurrentMode:
 3270              	.LVL275:
 3271              	.LFB134:
 250:Drivers/STM32F4xx_HAL_Driver/Src/stm32f4xx_ll_usb.c ****   uint32_t ms = 0U;
 3272              		.loc 1 250 1 is_stmt 1 view -0
 3273              		.cfi_startproc
 3274              		@ args = 0, pretend = 0, frame = 0
 3275              		@ frame_needed = 0, uses_anonymous_args = 0
 250:Drivers/STM32F4xx_HAL_Driver/Src/stm32f4xx_ll_usb.c ****   uint32_t ms = 0U;
 3276              		.loc 1 250 1 is_stmt 0 view .LVU1033
 3277 0000 38B5     		push	{r3, r4, r5, lr}
 3278              	.LCFI42:
 3279              		.cfi_def_cfa_offset 16
 3280              		.cfi_offset 3, -16
 3281              		.cfi_offset 4, -12
 3282              		.cfi_offset 5, -8
 3283              		.cfi_offset 14, -4
 3284 0002 0546     		mov	r5, r0
 251:Drivers/STM32F4xx_HAL_Driver/Src/stm32f4xx_ll_usb.c **** 
 3285              		.loc 1 251 3 is_stmt 1 view .LVU1034
 3286              	.LVL276:
 253:Drivers/STM32F4xx_HAL_Driver/Src/stm32f4xx_ll_usb.c **** 
 3287              		.loc 1 253 3 view .LVU1035
 253:Drivers/STM32F4xx_HAL_Driver/Src/stm32f4xx_ll_usb.c **** 
 3288              		.loc 1 253 17 is_stmt 0 view .LVU1036
 3289 0004 C368     		ldr	r3, [r0, #12]
 3290 0006 23F0C043 		bic	r3, r3, #1610612736
 3291 000a C360     		str	r3, [r0, #12]
 255:Drivers/STM32F4xx_HAL_Driver/Src/stm32f4xx_ll_usb.c ****   {
 3292              		.loc 1 255 3 is_stmt 1 view .LVU1037
 255:Drivers/STM32F4xx_HAL_Driver/Src/stm32f4xx_ll_usb.c ****   {
 3293              		.loc 1 255 6 is_stmt 0 view .LVU1038
 3294 000c 0129     		cmp	r1, #1
 3295 000e 13D0     		beq	.L210
 265:Drivers/STM32F4xx_HAL_Driver/Src/stm32f4xx_ll_usb.c ****   {
 3296              		.loc 1 265 8 is_stmt 1 view .LVU1039
 265:Drivers/STM32F4xx_HAL_Driver/Src/stm32f4xx_ll_usb.c ****   {
 3297              		.loc 1 265 11 is_stmt 0 view .LVU1040
 3298 0010 19BB     		cbnz	r1, .L207
ARM GAS  /tmp/ccSVR7EX.s 			page 100


 267:Drivers/STM32F4xx_HAL_Driver/Src/stm32f4xx_ll_usb.c **** 
 3299              		.loc 1 267 5 is_stmt 1 view .LVU1041
 267:Drivers/STM32F4xx_HAL_Driver/Src/stm32f4xx_ll_usb.c **** 
 3300              		.loc 1 267 19 is_stmt 0 view .LVU1042
 3301 0012 C368     		ldr	r3, [r0, #12]
 3302 0014 43F08043 		orr	r3, r3, #1073741824
 3303 0018 C360     		str	r3, [r0, #12]
 251:Drivers/STM32F4xx_HAL_Driver/Src/stm32f4xx_ll_usb.c **** 
 3304              		.loc 1 251 12 view .LVU1043
 3305 001a 0024     		movs	r4, #0
 3306              	.LVL277:
 3307              	.L206:
 269:Drivers/STM32F4xx_HAL_Driver/Src/stm32f4xx_ll_usb.c ****     {
 3308              		.loc 1 269 5 is_stmt 1 discriminator 2 view .LVU1044
 271:Drivers/STM32F4xx_HAL_Driver/Src/stm32f4xx_ll_usb.c ****       ms++;
 3309              		.loc 1 271 7 discriminator 2 view .LVU1045
 3310 001c 0120     		movs	r0, #1
 3311 001e FFF7FEFF 		bl	HAL_Delay
 3312              	.LVL278:
 272:Drivers/STM32F4xx_HAL_Driver/Src/stm32f4xx_ll_usb.c ****     } while ((USB_GetMode(USBx) != (uint32_t)USB_DEVICE_MODE) && (ms < 50U));
 3313              		.loc 1 272 7 discriminator 2 view .LVU1046
 272:Drivers/STM32F4xx_HAL_Driver/Src/stm32f4xx_ll_usb.c ****     } while ((USB_GetMode(USBx) != (uint32_t)USB_DEVICE_MODE) && (ms < 50U));
 3314              		.loc 1 272 9 is_stmt 0 discriminator 2 view .LVU1047
 3315 0022 0134     		adds	r4, r4, #1
 3316              	.LVL279:
 273:Drivers/STM32F4xx_HAL_Driver/Src/stm32f4xx_ll_usb.c ****   }
 3317              		.loc 1 273 13 is_stmt 1 discriminator 2 view .LVU1048
 273:Drivers/STM32F4xx_HAL_Driver/Src/stm32f4xx_ll_usb.c ****   }
 3318              		.loc 1 273 15 is_stmt 0 discriminator 2 view .LVU1049
 3319 0024 2846     		mov	r0, r5
 3320 0026 FFF7FEFF 		bl	USB_GetMode
 3321              	.LVL280:
 273:Drivers/STM32F4xx_HAL_Driver/Src/stm32f4xx_ll_usb.c ****   }
 3322              		.loc 1 273 5 discriminator 2 view .LVU1050
 3323 002a 08B1     		cbz	r0, .L203
 273:Drivers/STM32F4xx_HAL_Driver/Src/stm32f4xx_ll_usb.c ****   }
 3324              		.loc 1 273 63 discriminator 1 view .LVU1051
 3325 002c 312C     		cmp	r4, #49
 3326 002e F5D9     		bls	.L206
 3327              	.L203:
 280:Drivers/STM32F4xx_HAL_Driver/Src/stm32f4xx_ll_usb.c ****   {
 3328              		.loc 1 280 3 is_stmt 1 view .LVU1052
 280:Drivers/STM32F4xx_HAL_Driver/Src/stm32f4xx_ll_usb.c ****   {
 3329              		.loc 1 280 6 is_stmt 0 view .LVU1053
 3330 0030 322C     		cmp	r4, #50
 3331 0032 14D0     		beq	.L208
 285:Drivers/STM32F4xx_HAL_Driver/Src/stm32f4xx_ll_usb.c **** }
 3332              		.loc 1 285 10 view .LVU1054
 3333 0034 0020     		movs	r0, #0
 3334              	.LVL281:
 3335              	.L205:
 286:Drivers/STM32F4xx_HAL_Driver/Src/stm32f4xx_ll_usb.c **** 
 3336              		.loc 1 286 1 view .LVU1055
 3337 0036 38BD     		pop	{r3, r4, r5, pc}
 3338              	.LVL282:
 3339              	.L210:
 257:Drivers/STM32F4xx_HAL_Driver/Src/stm32f4xx_ll_usb.c **** 
ARM GAS  /tmp/ccSVR7EX.s 			page 101


 3340              		.loc 1 257 5 is_stmt 1 view .LVU1056
 257:Drivers/STM32F4xx_HAL_Driver/Src/stm32f4xx_ll_usb.c **** 
 3341              		.loc 1 257 19 is_stmt 0 view .LVU1057
 3342 0038 C368     		ldr	r3, [r0, #12]
 3343 003a 43F00053 		orr	r3, r3, #536870912
 3344 003e C360     		str	r3, [r0, #12]
 251:Drivers/STM32F4xx_HAL_Driver/Src/stm32f4xx_ll_usb.c **** 
 3345              		.loc 1 251 12 view .LVU1058
 3346 0040 0024     		movs	r4, #0
 3347              	.LVL283:
 3348              	.L204:
 259:Drivers/STM32F4xx_HAL_Driver/Src/stm32f4xx_ll_usb.c ****     {
 3349              		.loc 1 259 5 is_stmt 1 discriminator 2 view .LVU1059
 261:Drivers/STM32F4xx_HAL_Driver/Src/stm32f4xx_ll_usb.c ****       ms++;
 3350              		.loc 1 261 7 discriminator 2 view .LVU1060
 3351 0042 0120     		movs	r0, #1
 3352 0044 FFF7FEFF 		bl	HAL_Delay
 3353              	.LVL284:
 262:Drivers/STM32F4xx_HAL_Driver/Src/stm32f4xx_ll_usb.c ****     } while ((USB_GetMode(USBx) != (uint32_t)USB_HOST_MODE) && (ms < 50U));
 3354              		.loc 1 262 7 discriminator 2 view .LVU1061
 262:Drivers/STM32F4xx_HAL_Driver/Src/stm32f4xx_ll_usb.c ****     } while ((USB_GetMode(USBx) != (uint32_t)USB_HOST_MODE) && (ms < 50U));
 3355              		.loc 1 262 9 is_stmt 0 discriminator 2 view .LVU1062
 3356 0048 0134     		adds	r4, r4, #1
 3357              	.LVL285:
 263:Drivers/STM32F4xx_HAL_Driver/Src/stm32f4xx_ll_usb.c ****   }
 3358              		.loc 1 263 13 is_stmt 1 discriminator 2 view .LVU1063
 263:Drivers/STM32F4xx_HAL_Driver/Src/stm32f4xx_ll_usb.c ****   }
 3359              		.loc 1 263 15 is_stmt 0 discriminator 2 view .LVU1064
 3360 004a 2846     		mov	r0, r5
 3361 004c FFF7FEFF 		bl	USB_GetMode
 3362              	.LVL286:
 263:Drivers/STM32F4xx_HAL_Driver/Src/stm32f4xx_ll_usb.c ****   }
 3363              		.loc 1 263 5 discriminator 2 view .LVU1065
 3364 0050 0128     		cmp	r0, #1
 3365 0052 EDD0     		beq	.L203
 263:Drivers/STM32F4xx_HAL_Driver/Src/stm32f4xx_ll_usb.c ****   }
 3366              		.loc 1 263 61 discriminator 1 view .LVU1066
 3367 0054 312C     		cmp	r4, #49
 3368 0056 F4D9     		bls	.L204
 3369 0058 EAE7     		b	.L203
 3370              	.LVL287:
 3371              	.L207:
 277:Drivers/STM32F4xx_HAL_Driver/Src/stm32f4xx_ll_usb.c ****   }
 3372              		.loc 1 277 12 view .LVU1067
 3373 005a 0120     		movs	r0, #1
 3374              	.LVL288:
 277:Drivers/STM32F4xx_HAL_Driver/Src/stm32f4xx_ll_usb.c ****   }
 3375              		.loc 1 277 12 view .LVU1068
 3376 005c EBE7     		b	.L205
 3377              	.LVL289:
 3378              	.L208:
 282:Drivers/STM32F4xx_HAL_Driver/Src/stm32f4xx_ll_usb.c ****   }
 3379              		.loc 1 282 12 view .LVU1069
 3380 005e 0120     		movs	r0, #1
 3381 0060 E9E7     		b	.L205
 3382              		.cfi_endproc
 3383              	.LFE134:
ARM GAS  /tmp/ccSVR7EX.s 			page 102


 3385              		.section	.text.USB_ActivateSetup,"ax",%progbits
 3386              		.align	1
 3387              		.global	USB_ActivateSetup
 3388              		.syntax unified
 3389              		.thumb
 3390              		.thumb_func
 3391              		.fpu fpv4-sp-d16
 3393              	USB_ActivateSetup:
 3394              	.LVL290:
 3395              	.LFB161:
1312:Drivers/STM32F4xx_HAL_Driver/Src/stm32f4xx_ll_usb.c ****   uint32_t USBx_BASE = (uint32_t)USBx;
 3396              		.loc 1 1312 1 is_stmt 1 view -0
 3397              		.cfi_startproc
 3398              		@ args = 0, pretend = 0, frame = 0
 3399              		@ frame_needed = 0, uses_anonymous_args = 0
 3400              		@ link register save eliminated.
1313:Drivers/STM32F4xx_HAL_Driver/Src/stm32f4xx_ll_usb.c **** 
 3401              		.loc 1 1313 3 view .LVU1071
1316:Drivers/STM32F4xx_HAL_Driver/Src/stm32f4xx_ll_usb.c **** 
 3402              		.loc 1 1316 3 view .LVU1072
1316:Drivers/STM32F4xx_HAL_Driver/Src/stm32f4xx_ll_usb.c **** 
 3403              		.loc 1 1316 26 is_stmt 0 view .LVU1073
 3404 0000 D0F80039 		ldr	r3, [r0, #2304]
 3405 0004 23F4FF63 		bic	r3, r3, #2040
 3406 0008 23F00703 		bic	r3, r3, #7
 3407 000c C0F80039 		str	r3, [r0, #2304]
1318:Drivers/STM32F4xx_HAL_Driver/Src/stm32f4xx_ll_usb.c **** 
 3408              		.loc 1 1318 3 is_stmt 1 view .LVU1074
1318:Drivers/STM32F4xx_HAL_Driver/Src/stm32f4xx_ll_usb.c **** 
 3409              		.loc 1 1318 21 is_stmt 0 view .LVU1075
 3410 0010 D0F80438 		ldr	r3, [r0, #2052]
 3411 0014 43F48073 		orr	r3, r3, #256
 3412 0018 C0F80438 		str	r3, [r0, #2052]
1320:Drivers/STM32F4xx_HAL_Driver/Src/stm32f4xx_ll_usb.c **** }
 3413              		.loc 1 1320 3 is_stmt 1 view .LVU1076
1321:Drivers/STM32F4xx_HAL_Driver/Src/stm32f4xx_ll_usb.c **** 
 3414              		.loc 1 1321 1 is_stmt 0 view .LVU1077
 3415 001c 0020     		movs	r0, #0
 3416              	.LVL291:
1321:Drivers/STM32F4xx_HAL_Driver/Src/stm32f4xx_ll_usb.c **** 
 3417              		.loc 1 1321 1 view .LVU1078
 3418 001e 7047     		bx	lr
 3419              		.cfi_endproc
 3420              	.LFE161:
 3422              		.section	.text.USB_EP0_OutStart,"ax",%progbits
 3423              		.align	1
 3424              		.global	USB_EP0_OutStart
 3425              		.syntax unified
 3426              		.thumb
 3427              		.thumb_func
 3428              		.fpu fpv4-sp-d16
 3430              	USB_EP0_OutStart:
 3431              	.LVL292:
 3432              	.LFB162:
1334:Drivers/STM32F4xx_HAL_Driver/Src/stm32f4xx_ll_usb.c ****   uint32_t USBx_BASE = (uint32_t)USBx;
 3433              		.loc 1 1334 1 is_stmt 1 view -0
 3434              		.cfi_startproc
ARM GAS  /tmp/ccSVR7EX.s 			page 103


 3435              		@ args = 0, pretend = 0, frame = 0
 3436              		@ frame_needed = 0, uses_anonymous_args = 0
 3437              		@ link register save eliminated.
1334:Drivers/STM32F4xx_HAL_Driver/Src/stm32f4xx_ll_usb.c ****   uint32_t USBx_BASE = (uint32_t)USBx;
 3438              		.loc 1 1334 1 is_stmt 0 view .LVU1080
 3439 0000 10B4     		push	{r4}
 3440              	.LCFI43:
 3441              		.cfi_def_cfa_offset 4
 3442              		.cfi_offset 4, -4
1335:Drivers/STM32F4xx_HAL_Driver/Src/stm32f4xx_ll_usb.c ****   uint32_t gSNPSiD = *(__IO uint32_t *)(&USBx->CID + 0x1U);
 3443              		.loc 1 1335 3 is_stmt 1 view .LVU1081
 3444              	.LVL293:
1336:Drivers/STM32F4xx_HAL_Driver/Src/stm32f4xx_ll_usb.c **** 
 3445              		.loc 1 1336 3 view .LVU1082
1336:Drivers/STM32F4xx_HAL_Driver/Src/stm32f4xx_ll_usb.c **** 
 3446              		.loc 1 1336 12 is_stmt 0 view .LVU1083
 3447 0002 046C     		ldr	r4, [r0, #64]
 3448              	.LVL294:
1338:Drivers/STM32F4xx_HAL_Driver/Src/stm32f4xx_ll_usb.c ****   {
 3449              		.loc 1 1338 3 is_stmt 1 view .LVU1084
1338:Drivers/STM32F4xx_HAL_Driver/Src/stm32f4xx_ll_usb.c ****   {
 3450              		.loc 1 1338 6 is_stmt 0 view .LVU1085
 3451 0004 154B     		ldr	r3, .L217
 3452 0006 9C42     		cmp	r4, r3
 3453 0008 03D9     		bls	.L213
1340:Drivers/STM32F4xx_HAL_Driver/Src/stm32f4xx_ll_usb.c ****     {
 3454              		.loc 1 1340 5 is_stmt 1 view .LVU1086
1340:Drivers/STM32F4xx_HAL_Driver/Src/stm32f4xx_ll_usb.c ****     {
 3455              		.loc 1 1340 24 is_stmt 0 view .LVU1087
 3456 000a D0F8003B 		ldr	r3, [r0, #2816]
1340:Drivers/STM32F4xx_HAL_Driver/Src/stm32f4xx_ll_usb.c ****     {
 3457              		.loc 1 1340 8 view .LVU1088
 3458 000e 002B     		cmp	r3, #0
 3459 0010 16DB     		blt	.L214
 3460              	.L213:
1346:Drivers/STM32F4xx_HAL_Driver/Src/stm32f4xx_ll_usb.c ****   USBx_OUTEP(0U)->DOEPTSIZ |= (USB_OTG_DOEPTSIZ_PKTCNT & (1U << 19));
 3461              		.loc 1 1346 3 is_stmt 1 view .LVU1089
1346:Drivers/STM32F4xx_HAL_Driver/Src/stm32f4xx_ll_usb.c ****   USBx_OUTEP(0U)->DOEPTSIZ |= (USB_OTG_DOEPTSIZ_PKTCNT & (1U << 19));
 3462              		.loc 1 1346 28 is_stmt 0 view .LVU1090
 3463 0012 0024     		movs	r4, #0
 3464              	.LVL295:
1346:Drivers/STM32F4xx_HAL_Driver/Src/stm32f4xx_ll_usb.c ****   USBx_OUTEP(0U)->DOEPTSIZ |= (USB_OTG_DOEPTSIZ_PKTCNT & (1U << 19));
 3465              		.loc 1 1346 28 view .LVU1091
 3466 0014 C0F8104B 		str	r4, [r0, #2832]
1347:Drivers/STM32F4xx_HAL_Driver/Src/stm32f4xx_ll_usb.c ****   USBx_OUTEP(0U)->DOEPTSIZ |= (3U * 8U);
 3467              		.loc 1 1347 3 is_stmt 1 view .LVU1092
1347:Drivers/STM32F4xx_HAL_Driver/Src/stm32f4xx_ll_usb.c ****   USBx_OUTEP(0U)->DOEPTSIZ |= (3U * 8U);
 3468              		.loc 1 1347 28 is_stmt 0 view .LVU1093
 3469 0018 D0F8104B 		ldr	r4, [r0, #2832]
 3470 001c 44F40024 		orr	r4, r4, #524288
 3471 0020 C0F8104B 		str	r4, [r0, #2832]
1348:Drivers/STM32F4xx_HAL_Driver/Src/stm32f4xx_ll_usb.c ****   USBx_OUTEP(0U)->DOEPTSIZ |=  USB_OTG_DOEPTSIZ_STUPCNT;
 3472              		.loc 1 1348 3 is_stmt 1 view .LVU1094
1348:Drivers/STM32F4xx_HAL_Driver/Src/stm32f4xx_ll_usb.c ****   USBx_OUTEP(0U)->DOEPTSIZ |=  USB_OTG_DOEPTSIZ_STUPCNT;
 3473              		.loc 1 1348 28 is_stmt 0 view .LVU1095
 3474 0024 D0F8104B 		ldr	r4, [r0, #2832]
 3475 0028 44F01804 		orr	r4, r4, #24
ARM GAS  /tmp/ccSVR7EX.s 			page 104


 3476 002c C0F8104B 		str	r4, [r0, #2832]
1349:Drivers/STM32F4xx_HAL_Driver/Src/stm32f4xx_ll_usb.c **** 
 3477              		.loc 1 1349 3 is_stmt 1 view .LVU1096
1349:Drivers/STM32F4xx_HAL_Driver/Src/stm32f4xx_ll_usb.c **** 
 3478              		.loc 1 1349 28 is_stmt 0 view .LVU1097
 3479 0030 D0F8104B 		ldr	r4, [r0, #2832]
 3480 0034 44F0C044 		orr	r4, r4, #1610612736
 3481 0038 C0F8104B 		str	r4, [r0, #2832]
1351:Drivers/STM32F4xx_HAL_Driver/Src/stm32f4xx_ll_usb.c ****   {
 3482              		.loc 1 1351 3 is_stmt 1 view .LVU1098
1351:Drivers/STM32F4xx_HAL_Driver/Src/stm32f4xx_ll_usb.c ****   {
 3483              		.loc 1 1351 6 is_stmt 0 view .LVU1099
 3484 003c 0129     		cmp	r1, #1
 3485 003e 03D0     		beq	.L216
 3486              	.L214:
1359:Drivers/STM32F4xx_HAL_Driver/Src/stm32f4xx_ll_usb.c **** 
 3487              		.loc 1 1359 1 view .LVU1100
 3488 0040 0020     		movs	r0, #0
 3489              	.LVL296:
1359:Drivers/STM32F4xx_HAL_Driver/Src/stm32f4xx_ll_usb.c **** 
 3490              		.loc 1 1359 1 view .LVU1101
 3491 0042 5DF8044B 		ldr	r4, [sp], #4
 3492              	.LCFI44:
 3493              		.cfi_remember_state
 3494              		.cfi_restore 4
 3495              		.cfi_def_cfa_offset 0
 3496 0046 7047     		bx	lr
 3497              	.LVL297:
 3498              	.L216:
 3499              	.LCFI45:
 3500              		.cfi_restore_state
1353:Drivers/STM32F4xx_HAL_Driver/Src/stm32f4xx_ll_usb.c ****     /* EP enable */
 3501              		.loc 1 1353 5 is_stmt 1 view .LVU1102
1353:Drivers/STM32F4xx_HAL_Driver/Src/stm32f4xx_ll_usb.c ****     /* EP enable */
 3502              		.loc 1 1353 29 is_stmt 0 view .LVU1103
 3503 0048 C0F8142B 		str	r2, [r0, #2836]
1355:Drivers/STM32F4xx_HAL_Driver/Src/stm32f4xx_ll_usb.c ****   }
 3504              		.loc 1 1355 5 is_stmt 1 view .LVU1104
1355:Drivers/STM32F4xx_HAL_Driver/Src/stm32f4xx_ll_usb.c ****   }
 3505              		.loc 1 1355 29 is_stmt 0 view .LVU1105
 3506 004c D0F8003B 		ldr	r3, [r0, #2816]
 3507 0050 43F08023 		orr	r3, r3, #-2147450880
 3508 0054 C0F8003B 		str	r3, [r0, #2816]
 3509 0058 F2E7     		b	.L214
 3510              	.L218:
 3511 005a 00BF     		.align	2
 3512              	.L217:
 3513 005c 0A30544F 		.word	1330917386
 3514              		.cfi_endproc
 3515              	.LFE162:
 3517              		.section	.text.USB_HostInit,"ax",%progbits
 3518              		.align	1
 3519              		.global	USB_HostInit
 3520              		.syntax unified
 3521              		.thumb
 3522              		.thumb_func
 3523              		.fpu fpv4-sp-d16
ARM GAS  /tmp/ccSVR7EX.s 			page 105


 3525              	USB_HostInit:
 3526              	.LVL298:
 3527              	.LFB164:
1393:Drivers/STM32F4xx_HAL_Driver/Src/stm32f4xx_ll_usb.c **** 
1394:Drivers/STM32F4xx_HAL_Driver/Src/stm32f4xx_ll_usb.c **** /**
1395:Drivers/STM32F4xx_HAL_Driver/Src/stm32f4xx_ll_usb.c ****   * @brief  USB_HostInit : Initializes the USB OTG controller registers
1396:Drivers/STM32F4xx_HAL_Driver/Src/stm32f4xx_ll_usb.c ****   *         for Host mode
1397:Drivers/STM32F4xx_HAL_Driver/Src/stm32f4xx_ll_usb.c ****   * @param  USBx  Selected device
1398:Drivers/STM32F4xx_HAL_Driver/Src/stm32f4xx_ll_usb.c ****   * @param  cfg   pointer to a USB_OTG_CfgTypeDef structure that contains
1399:Drivers/STM32F4xx_HAL_Driver/Src/stm32f4xx_ll_usb.c ****   *         the configuration information for the specified USBx peripheral.
1400:Drivers/STM32F4xx_HAL_Driver/Src/stm32f4xx_ll_usb.c ****   * @retval HAL status
1401:Drivers/STM32F4xx_HAL_Driver/Src/stm32f4xx_ll_usb.c ****   */
1402:Drivers/STM32F4xx_HAL_Driver/Src/stm32f4xx_ll_usb.c **** HAL_StatusTypeDef USB_HostInit(USB_OTG_GlobalTypeDef *USBx, USB_OTG_CfgTypeDef cfg)
1403:Drivers/STM32F4xx_HAL_Driver/Src/stm32f4xx_ll_usb.c **** {
 3528              		.loc 1 1403 1 is_stmt 1 view -0
 3529              		.cfi_startproc
 3530              		@ args = 56, pretend = 16, frame = 0
 3531              		@ frame_needed = 0, uses_anonymous_args = 0
 3532              		.loc 1 1403 1 is_stmt 0 view .LVU1107
 3533 0000 84B0     		sub	sp, sp, #16
 3534              	.LCFI46:
 3535              		.cfi_def_cfa_offset 16
 3536 0002 38B5     		push	{r3, r4, r5, lr}
 3537              	.LCFI47:
 3538              		.cfi_def_cfa_offset 32
 3539              		.cfi_offset 3, -32
 3540              		.cfi_offset 4, -28
 3541              		.cfi_offset 5, -24
 3542              		.cfi_offset 14, -20
 3543 0004 0446     		mov	r4, r0
 3544 0006 05A8     		add	r0, sp, #20
 3545              	.LVL299:
 3546              		.loc 1 1403 1 view .LVU1108
 3547 0008 80E80E00 		stm	r0, {r1, r2, r3}
1404:Drivers/STM32F4xx_HAL_Driver/Src/stm32f4xx_ll_usb.c ****   uint32_t USBx_BASE = (uint32_t)USBx;
 3548              		.loc 1 1404 3 is_stmt 1 view .LVU1109
 3549              		.loc 1 1404 12 is_stmt 0 view .LVU1110
 3550 000c 2546     		mov	r5, r4
 3551              	.LVL300:
1405:Drivers/STM32F4xx_HAL_Driver/Src/stm32f4xx_ll_usb.c ****   uint32_t i;
 3552              		.loc 1 1405 3 is_stmt 1 view .LVU1111
1406:Drivers/STM32F4xx_HAL_Driver/Src/stm32f4xx_ll_usb.c **** 
1407:Drivers/STM32F4xx_HAL_Driver/Src/stm32f4xx_ll_usb.c ****   /* Restart the Phy Clock */
1408:Drivers/STM32F4xx_HAL_Driver/Src/stm32f4xx_ll_usb.c ****   USBx_PCGCCTL = 0U;
 3553              		.loc 1 1408 3 view .LVU1112
 3554              		.loc 1 1408 16 is_stmt 0 view .LVU1113
 3555 000e 0023     		movs	r3, #0
 3556 0010 C4F8003E 		str	r3, [r4, #3584]
1409:Drivers/STM32F4xx_HAL_Driver/Src/stm32f4xx_ll_usb.c **** 
1410:Drivers/STM32F4xx_HAL_Driver/Src/stm32f4xx_ll_usb.c **** #if defined(STM32F446xx) || defined(STM32F469xx) || defined(STM32F479xx) || defined(STM32F412Zx) ||
1411:Drivers/STM32F4xx_HAL_Driver/Src/stm32f4xx_ll_usb.c ****   /* Disable HW VBUS sensing */
1412:Drivers/STM32F4xx_HAL_Driver/Src/stm32f4xx_ll_usb.c ****   USBx->GCCFG &= ~(USB_OTG_GCCFG_VBDEN);
1413:Drivers/STM32F4xx_HAL_Driver/Src/stm32f4xx_ll_usb.c **** #else
1414:Drivers/STM32F4xx_HAL_Driver/Src/stm32f4xx_ll_usb.c ****   /*
1415:Drivers/STM32F4xx_HAL_Driver/Src/stm32f4xx_ll_usb.c ****   * Disable HW VBUS sensing. VBUS is internally considered to be always
1416:Drivers/STM32F4xx_HAL_Driver/Src/stm32f4xx_ll_usb.c ****   * at VBUS-Valid level (5V).
1417:Drivers/STM32F4xx_HAL_Driver/Src/stm32f4xx_ll_usb.c ****   */
ARM GAS  /tmp/ccSVR7EX.s 			page 106


1418:Drivers/STM32F4xx_HAL_Driver/Src/stm32f4xx_ll_usb.c ****   USBx->GCCFG |= USB_OTG_GCCFG_NOVBUSSENS;
 3557              		.loc 1 1418 3 is_stmt 1 view .LVU1114
 3558              		.loc 1 1418 15 is_stmt 0 view .LVU1115
 3559 0014 A36B     		ldr	r3, [r4, #56]
 3560 0016 43F40013 		orr	r3, r3, #2097152
 3561 001a A363     		str	r3, [r4, #56]
1419:Drivers/STM32F4xx_HAL_Driver/Src/stm32f4xx_ll_usb.c ****   USBx->GCCFG &= ~USB_OTG_GCCFG_VBUSBSEN;
 3562              		.loc 1 1419 3 is_stmt 1 view .LVU1116
 3563              		.loc 1 1419 15 is_stmt 0 view .LVU1117
 3564 001c A36B     		ldr	r3, [r4, #56]
 3565 001e 23F40023 		bic	r3, r3, #524288
 3566 0022 A363     		str	r3, [r4, #56]
1420:Drivers/STM32F4xx_HAL_Driver/Src/stm32f4xx_ll_usb.c ****   USBx->GCCFG &= ~USB_OTG_GCCFG_VBUSASEN;
 3567              		.loc 1 1420 3 is_stmt 1 view .LVU1118
 3568              		.loc 1 1420 15 is_stmt 0 view .LVU1119
 3569 0024 A36B     		ldr	r3, [r4, #56]
 3570 0026 23F48023 		bic	r3, r3, #262144
 3571 002a A363     		str	r3, [r4, #56]
1421:Drivers/STM32F4xx_HAL_Driver/Src/stm32f4xx_ll_usb.c **** #endif /* defined(STM32F446xx) || defined(STM32F469xx) || defined(STM32F479xx) || defined(STM32F412
1422:Drivers/STM32F4xx_HAL_Driver/Src/stm32f4xx_ll_usb.c **** #if defined(STM32F412Zx) || defined(STM32F412Vx) || defined(STM32F412Rx) || defined(STM32F412Cx) ||
1423:Drivers/STM32F4xx_HAL_Driver/Src/stm32f4xx_ll_usb.c ****   /* Disable Battery chargin detector */
1424:Drivers/STM32F4xx_HAL_Driver/Src/stm32f4xx_ll_usb.c ****   USBx->GCCFG &= ~(USB_OTG_GCCFG_BCDEN);
1425:Drivers/STM32F4xx_HAL_Driver/Src/stm32f4xx_ll_usb.c **** #endif /* defined(STM32F412Zx) || defined(STM32F412Vx) || defined(STM32F412Rx) || defined(STM32F412
1426:Drivers/STM32F4xx_HAL_Driver/Src/stm32f4xx_ll_usb.c **** 
1427:Drivers/STM32F4xx_HAL_Driver/Src/stm32f4xx_ll_usb.c ****   if ((USBx->CID & (0x1U << 8)) != 0U)
 3572              		.loc 1 1427 3 is_stmt 1 view .LVU1120
 3573              		.loc 1 1427 12 is_stmt 0 view .LVU1121
 3574 002c E36B     		ldr	r3, [r4, #60]
 3575              		.loc 1 1427 6 view .LVU1122
 3576 002e 13F4807F 		tst	r3, #256
 3577 0032 10D0     		beq	.L220
1428:Drivers/STM32F4xx_HAL_Driver/Src/stm32f4xx_ll_usb.c ****   {
1429:Drivers/STM32F4xx_HAL_Driver/Src/stm32f4xx_ll_usb.c ****     if (cfg.speed == USBH_FSLS_SPEED)
 3578              		.loc 1 1429 5 is_stmt 1 view .LVU1123
 3579              		.loc 1 1429 12 is_stmt 0 view .LVU1124
 3580 0034 079B     		ldr	r3, [sp, #28]
 3581              		.loc 1 1429 8 view .LVU1125
 3582 0036 012B     		cmp	r3, #1
 3583 0038 06D0     		beq	.L229
1430:Drivers/STM32F4xx_HAL_Driver/Src/stm32f4xx_ll_usb.c ****     {
1431:Drivers/STM32F4xx_HAL_Driver/Src/stm32f4xx_ll_usb.c ****       /* Force Device Enumeration to FS/LS mode only */
1432:Drivers/STM32F4xx_HAL_Driver/Src/stm32f4xx_ll_usb.c ****       USBx_HOST->HCFG |= USB_OTG_HCFG_FSLSS;
1433:Drivers/STM32F4xx_HAL_Driver/Src/stm32f4xx_ll_usb.c ****     }
1434:Drivers/STM32F4xx_HAL_Driver/Src/stm32f4xx_ll_usb.c ****     else
1435:Drivers/STM32F4xx_HAL_Driver/Src/stm32f4xx_ll_usb.c ****     {
1436:Drivers/STM32F4xx_HAL_Driver/Src/stm32f4xx_ll_usb.c ****       /* Set default Max speed support */
1437:Drivers/STM32F4xx_HAL_Driver/Src/stm32f4xx_ll_usb.c ****       USBx_HOST->HCFG &= ~(USB_OTG_HCFG_FSLSS);
 3584              		.loc 1 1437 7 is_stmt 1 view .LVU1126
 3585              		.loc 1 1437 23 is_stmt 0 view .LVU1127
 3586 003a D4F80034 		ldr	r3, [r4, #1024]
 3587 003e 23F00403 		bic	r3, r3, #4
 3588 0042 C4F80034 		str	r3, [r4, #1024]
 3589 0046 0CE0     		b	.L222
 3590              	.L229:
1432:Drivers/STM32F4xx_HAL_Driver/Src/stm32f4xx_ll_usb.c ****     }
 3591              		.loc 1 1432 7 is_stmt 1 view .LVU1128
1432:Drivers/STM32F4xx_HAL_Driver/Src/stm32f4xx_ll_usb.c ****     }
ARM GAS  /tmp/ccSVR7EX.s 			page 107


 3592              		.loc 1 1432 23 is_stmt 0 view .LVU1129
 3593 0048 D4F80034 		ldr	r3, [r4, #1024]
 3594 004c 43F00403 		orr	r3, r3, #4
 3595 0050 C4F80034 		str	r3, [r4, #1024]
 3596 0054 05E0     		b	.L222
 3597              	.L220:
1438:Drivers/STM32F4xx_HAL_Driver/Src/stm32f4xx_ll_usb.c ****     }
1439:Drivers/STM32F4xx_HAL_Driver/Src/stm32f4xx_ll_usb.c ****   }
1440:Drivers/STM32F4xx_HAL_Driver/Src/stm32f4xx_ll_usb.c ****   else
1441:Drivers/STM32F4xx_HAL_Driver/Src/stm32f4xx_ll_usb.c ****   {
1442:Drivers/STM32F4xx_HAL_Driver/Src/stm32f4xx_ll_usb.c ****     /* Set default Max speed support */
1443:Drivers/STM32F4xx_HAL_Driver/Src/stm32f4xx_ll_usb.c ****     USBx_HOST->HCFG &= ~(USB_OTG_HCFG_FSLSS);
 3598              		.loc 1 1443 5 is_stmt 1 view .LVU1130
 3599              		.loc 1 1443 21 is_stmt 0 view .LVU1131
 3600 0056 D4F80034 		ldr	r3, [r4, #1024]
 3601 005a 23F00403 		bic	r3, r3, #4
 3602 005e C4F80034 		str	r3, [r4, #1024]
 3603              	.L222:
1444:Drivers/STM32F4xx_HAL_Driver/Src/stm32f4xx_ll_usb.c ****   }
1445:Drivers/STM32F4xx_HAL_Driver/Src/stm32f4xx_ll_usb.c **** 
1446:Drivers/STM32F4xx_HAL_Driver/Src/stm32f4xx_ll_usb.c ****   /* Make sure the FIFOs are flushed. */
1447:Drivers/STM32F4xx_HAL_Driver/Src/stm32f4xx_ll_usb.c ****   (void)USB_FlushTxFifo(USBx, 0x10U); /* all Tx FIFOs */
 3604              		.loc 1 1447 3 is_stmt 1 view .LVU1132
 3605              		.loc 1 1447 9 is_stmt 0 view .LVU1133
 3606 0062 1021     		movs	r1, #16
 3607 0064 2046     		mov	r0, r4
 3608 0066 FFF7FEFF 		bl	USB_FlushTxFifo
 3609              	.LVL301:
1448:Drivers/STM32F4xx_HAL_Driver/Src/stm32f4xx_ll_usb.c ****   (void)USB_FlushRxFifo(USBx);
 3610              		.loc 1 1448 3 is_stmt 1 view .LVU1134
 3611              		.loc 1 1448 9 is_stmt 0 view .LVU1135
 3612 006a 2046     		mov	r0, r4
 3613 006c FFF7FEFF 		bl	USB_FlushRxFifo
 3614              	.LVL302:
1449:Drivers/STM32F4xx_HAL_Driver/Src/stm32f4xx_ll_usb.c **** 
1450:Drivers/STM32F4xx_HAL_Driver/Src/stm32f4xx_ll_usb.c ****   /* Clear all pending HC Interrupts */
1451:Drivers/STM32F4xx_HAL_Driver/Src/stm32f4xx_ll_usb.c ****   for (i = 0U; i < cfg.Host_channels; i++)
 3615              		.loc 1 1451 3 is_stmt 1 view .LVU1136
 3616              		.loc 1 1451 10 is_stmt 0 view .LVU1137
 3617 0070 0022     		movs	r2, #0
 3618              	.LVL303:
 3619              	.L223:
 3620              		.loc 1 1451 16 is_stmt 1 discriminator 1 view .LVU1138
 3621              		.loc 1 1451 23 is_stmt 0 discriminator 1 view .LVU1139
 3622 0072 069B     		ldr	r3, [sp, #24]
 3623              		.loc 1 1451 3 discriminator 1 view .LVU1140
 3624 0074 9342     		cmp	r3, r2
 3625 0076 0AD9     		bls	.L230
1452:Drivers/STM32F4xx_HAL_Driver/Src/stm32f4xx_ll_usb.c ****   {
1453:Drivers/STM32F4xx_HAL_Driver/Src/stm32f4xx_ll_usb.c ****     USBx_HC(i)->HCINT = 0xFFFFFFFFU;
 3626              		.loc 1 1453 5 is_stmt 1 discriminator 3 view .LVU1141
 3627 0078 05EB4213 		add	r3, r5, r2, lsl #5
 3628              		.loc 1 1453 23 is_stmt 0 discriminator 3 view .LVU1142
 3629 007c 4FF0FF31 		mov	r1, #-1
 3630 0080 C3F80815 		str	r1, [r3, #1288]
1454:Drivers/STM32F4xx_HAL_Driver/Src/stm32f4xx_ll_usb.c ****     USBx_HC(i)->HCINTMSK = 0U;
 3631              		.loc 1 1454 5 is_stmt 1 discriminator 3 view .LVU1143
ARM GAS  /tmp/ccSVR7EX.s 			page 108


 3632              		.loc 1 1454 26 is_stmt 0 discriminator 3 view .LVU1144
 3633 0084 0021     		movs	r1, #0
 3634 0086 C3F80C15 		str	r1, [r3, #1292]
1451:Drivers/STM32F4xx_HAL_Driver/Src/stm32f4xx_ll_usb.c ****   {
 3635              		.loc 1 1451 39 is_stmt 1 discriminator 3 view .LVU1145
1451:Drivers/STM32F4xx_HAL_Driver/Src/stm32f4xx_ll_usb.c ****   {
 3636              		.loc 1 1451 40 is_stmt 0 discriminator 3 view .LVU1146
 3637 008a 0132     		adds	r2, r2, #1
 3638              	.LVL304:
1451:Drivers/STM32F4xx_HAL_Driver/Src/stm32f4xx_ll_usb.c ****   {
 3639              		.loc 1 1451 40 discriminator 3 view .LVU1147
 3640 008c F1E7     		b	.L223
 3641              	.L230:
1455:Drivers/STM32F4xx_HAL_Driver/Src/stm32f4xx_ll_usb.c ****   }
1456:Drivers/STM32F4xx_HAL_Driver/Src/stm32f4xx_ll_usb.c **** 
1457:Drivers/STM32F4xx_HAL_Driver/Src/stm32f4xx_ll_usb.c ****   /* Disable all interrupts. */
1458:Drivers/STM32F4xx_HAL_Driver/Src/stm32f4xx_ll_usb.c ****   USBx->GINTMSK = 0U;
 3642              		.loc 1 1458 3 is_stmt 1 view .LVU1148
 3643              		.loc 1 1458 17 is_stmt 0 view .LVU1149
 3644 008e 0023     		movs	r3, #0
 3645 0090 A361     		str	r3, [r4, #24]
1459:Drivers/STM32F4xx_HAL_Driver/Src/stm32f4xx_ll_usb.c **** 
1460:Drivers/STM32F4xx_HAL_Driver/Src/stm32f4xx_ll_usb.c ****   /* Clear any pending interrupts */
1461:Drivers/STM32F4xx_HAL_Driver/Src/stm32f4xx_ll_usb.c ****   USBx->GINTSTS = 0xFFFFFFFFU;
 3646              		.loc 1 1461 3 is_stmt 1 view .LVU1150
 3647              		.loc 1 1461 17 is_stmt 0 view .LVU1151
 3648 0092 4FF0FF33 		mov	r3, #-1
 3649 0096 6361     		str	r3, [r4, #20]
1462:Drivers/STM32F4xx_HAL_Driver/Src/stm32f4xx_ll_usb.c **** 
1463:Drivers/STM32F4xx_HAL_Driver/Src/stm32f4xx_ll_usb.c ****   if ((USBx->CID & (0x1U << 8)) != 0U)
 3650              		.loc 1 1463 3 is_stmt 1 view .LVU1152
 3651              		.loc 1 1463 12 is_stmt 0 view .LVU1153
 3652 0098 E36B     		ldr	r3, [r4, #60]
 3653              		.loc 1 1463 6 view .LVU1154
 3654 009a 13F4807F 		tst	r3, #256
 3655 009e 17D0     		beq	.L225
1464:Drivers/STM32F4xx_HAL_Driver/Src/stm32f4xx_ll_usb.c ****   {
1465:Drivers/STM32F4xx_HAL_Driver/Src/stm32f4xx_ll_usb.c ****     /* set Rx FIFO size */
1466:Drivers/STM32F4xx_HAL_Driver/Src/stm32f4xx_ll_usb.c ****     USBx->GRXFSIZ  = 0x200U;
 3656              		.loc 1 1466 5 is_stmt 1 view .LVU1155
 3657              		.loc 1 1466 20 is_stmt 0 view .LVU1156
 3658 00a0 4FF40073 		mov	r3, #512
 3659 00a4 6362     		str	r3, [r4, #36]
1467:Drivers/STM32F4xx_HAL_Driver/Src/stm32f4xx_ll_usb.c ****     USBx->DIEPTXF0_HNPTXFSIZ = (uint32_t)(((0x100U << 16) & USB_OTG_NPTXFD) | 0x200U);
 3660              		.loc 1 1467 5 is_stmt 1 view .LVU1157
 3661              		.loc 1 1467 30 is_stmt 0 view .LVU1158
 3662 00a6 03F18073 		add	r3, r3, #16777216
 3663 00aa A362     		str	r3, [r4, #40]
1468:Drivers/STM32F4xx_HAL_Driver/Src/stm32f4xx_ll_usb.c ****     USBx->HPTXFSIZ = (uint32_t)(((0xE0U << 16) & USB_OTG_HPTXFSIZ_PTXFD) | 0x300U);
 3664              		.loc 1 1468 5 is_stmt 1 view .LVU1159
 3665              		.loc 1 1468 20 is_stmt 0 view .LVU1160
 3666 00ac 0D4B     		ldr	r3, .L231
 3667 00ae C4F80031 		str	r3, [r4, #256]
 3668              	.L226:
1469:Drivers/STM32F4xx_HAL_Driver/Src/stm32f4xx_ll_usb.c ****   }
1470:Drivers/STM32F4xx_HAL_Driver/Src/stm32f4xx_ll_usb.c ****   else
1471:Drivers/STM32F4xx_HAL_Driver/Src/stm32f4xx_ll_usb.c ****   {
ARM GAS  /tmp/ccSVR7EX.s 			page 109


1472:Drivers/STM32F4xx_HAL_Driver/Src/stm32f4xx_ll_usb.c ****     /* set Rx FIFO size */
1473:Drivers/STM32F4xx_HAL_Driver/Src/stm32f4xx_ll_usb.c ****     USBx->GRXFSIZ  = 0x80U;
1474:Drivers/STM32F4xx_HAL_Driver/Src/stm32f4xx_ll_usb.c ****     USBx->DIEPTXF0_HNPTXFSIZ = (uint32_t)(((0x60U << 16) & USB_OTG_NPTXFD) | 0x80U);
1475:Drivers/STM32F4xx_HAL_Driver/Src/stm32f4xx_ll_usb.c ****     USBx->HPTXFSIZ = (uint32_t)(((0x40U << 16)& USB_OTG_HPTXFSIZ_PTXFD) | 0xE0U);
1476:Drivers/STM32F4xx_HAL_Driver/Src/stm32f4xx_ll_usb.c ****   }
1477:Drivers/STM32F4xx_HAL_Driver/Src/stm32f4xx_ll_usb.c **** 
1478:Drivers/STM32F4xx_HAL_Driver/Src/stm32f4xx_ll_usb.c ****   /* Enable the common interrupts */
1479:Drivers/STM32F4xx_HAL_Driver/Src/stm32f4xx_ll_usb.c ****   if (cfg.dma_enable == 0U)
 3669              		.loc 1 1479 3 is_stmt 1 view .LVU1161
 3670              		.loc 1 1479 10 is_stmt 0 view .LVU1162
 3671 00b2 089B     		ldr	r3, [sp, #32]
 3672              		.loc 1 1479 6 view .LVU1163
 3673 00b4 1BB9     		cbnz	r3, .L227
1480:Drivers/STM32F4xx_HAL_Driver/Src/stm32f4xx_ll_usb.c ****   {
1481:Drivers/STM32F4xx_HAL_Driver/Src/stm32f4xx_ll_usb.c ****     USBx->GINTMSK |= USB_OTG_GINTMSK_RXFLVLM;
 3674              		.loc 1 1481 5 is_stmt 1 view .LVU1164
 3675              		.loc 1 1481 19 is_stmt 0 view .LVU1165
 3676 00b6 A369     		ldr	r3, [r4, #24]
 3677 00b8 43F01003 		orr	r3, r3, #16
 3678 00bc A361     		str	r3, [r4, #24]
 3679              	.L227:
1482:Drivers/STM32F4xx_HAL_Driver/Src/stm32f4xx_ll_usb.c ****   }
1483:Drivers/STM32F4xx_HAL_Driver/Src/stm32f4xx_ll_usb.c **** 
1484:Drivers/STM32F4xx_HAL_Driver/Src/stm32f4xx_ll_usb.c ****   /* Enable interrupts matching to the Host mode ONLY */
1485:Drivers/STM32F4xx_HAL_Driver/Src/stm32f4xx_ll_usb.c ****   USBx->GINTMSK |= (USB_OTG_GINTMSK_PRTIM            | USB_OTG_GINTMSK_HCIM | \
 3680              		.loc 1 1485 3 is_stmt 1 view .LVU1166
 3681              		.loc 1 1485 17 is_stmt 0 view .LVU1167
 3682 00be A269     		ldr	r2, [r4, #24]
 3683              	.LVL305:
 3684              		.loc 1 1485 17 view .LVU1168
 3685 00c0 094B     		ldr	r3, .L231+4
 3686 00c2 1343     		orrs	r3, r3, r2
 3687 00c4 A361     		str	r3, [r4, #24]
1486:Drivers/STM32F4xx_HAL_Driver/Src/stm32f4xx_ll_usb.c ****                     USB_OTG_GINTMSK_SOFM             | USB_OTG_GINTSTS_DISCINT | \
1487:Drivers/STM32F4xx_HAL_Driver/Src/stm32f4xx_ll_usb.c ****                     USB_OTG_GINTMSK_PXFRM_IISOOXFRM  | USB_OTG_GINTMSK_WUIM);
1488:Drivers/STM32F4xx_HAL_Driver/Src/stm32f4xx_ll_usb.c **** 
1489:Drivers/STM32F4xx_HAL_Driver/Src/stm32f4xx_ll_usb.c ****   return HAL_OK;
 3688              		.loc 1 1489 3 is_stmt 1 view .LVU1169
1490:Drivers/STM32F4xx_HAL_Driver/Src/stm32f4xx_ll_usb.c **** }
 3689              		.loc 1 1490 1 is_stmt 0 view .LVU1170
 3690 00c6 0020     		movs	r0, #0
 3691 00c8 BDE83840 		pop	{r3, r4, r5, lr}
 3692              	.LCFI48:
 3693              		.cfi_remember_state
 3694              		.cfi_restore 14
 3695              		.cfi_restore 5
 3696              		.cfi_restore 4
 3697              		.cfi_restore 3
 3698              		.cfi_def_cfa_offset 16
 3699              	.LVL306:
 3700              		.loc 1 1490 1 view .LVU1171
 3701 00cc 04B0     		add	sp, sp, #16
 3702              	.LCFI49:
 3703              		.cfi_def_cfa_offset 0
 3704 00ce 7047     		bx	lr
 3705              	.LVL307:
 3706              	.L225:
ARM GAS  /tmp/ccSVR7EX.s 			page 110


 3707              	.LCFI50:
 3708              		.cfi_restore_state
1473:Drivers/STM32F4xx_HAL_Driver/Src/stm32f4xx_ll_usb.c ****     USBx->DIEPTXF0_HNPTXFSIZ = (uint32_t)(((0x60U << 16) & USB_OTG_NPTXFD) | 0x80U);
 3709              		.loc 1 1473 5 is_stmt 1 view .LVU1172
1473:Drivers/STM32F4xx_HAL_Driver/Src/stm32f4xx_ll_usb.c ****     USBx->DIEPTXF0_HNPTXFSIZ = (uint32_t)(((0x60U << 16) & USB_OTG_NPTXFD) | 0x80U);
 3710              		.loc 1 1473 20 is_stmt 0 view .LVU1173
 3711 00d0 8023     		movs	r3, #128
 3712 00d2 6362     		str	r3, [r4, #36]
1474:Drivers/STM32F4xx_HAL_Driver/Src/stm32f4xx_ll_usb.c ****     USBx->HPTXFSIZ = (uint32_t)(((0x40U << 16)& USB_OTG_HPTXFSIZ_PTXFD) | 0xE0U);
 3713              		.loc 1 1474 5 is_stmt 1 view .LVU1174
1474:Drivers/STM32F4xx_HAL_Driver/Src/stm32f4xx_ll_usb.c ****     USBx->HPTXFSIZ = (uint32_t)(((0x40U << 16)& USB_OTG_HPTXFSIZ_PTXFD) | 0xE0U);
 3714              		.loc 1 1474 30 is_stmt 0 view .LVU1175
 3715 00d4 03F5C003 		add	r3, r3, #6291456
 3716 00d8 A362     		str	r3, [r4, #40]
1475:Drivers/STM32F4xx_HAL_Driver/Src/stm32f4xx_ll_usb.c ****   }
 3717              		.loc 1 1475 5 is_stmt 1 view .LVU1176
1475:Drivers/STM32F4xx_HAL_Driver/Src/stm32f4xx_ll_usb.c ****   }
 3718              		.loc 1 1475 20 is_stmt 0 view .LVU1177
 3719 00da 044B     		ldr	r3, .L231+8
 3720 00dc C4F80031 		str	r3, [r4, #256]
 3721 00e0 E7E7     		b	.L226
 3722              	.L232:
 3723 00e2 00BF     		.align	2
 3724              	.L231:
 3725 00e4 0003E000 		.word	14680832
 3726 00e8 080020A3 		.word	-1558183928
 3727 00ec E0004000 		.word	4194528
 3728              		.cfi_endproc
 3729              	.LFE164:
 3731              		.section	.text.USB_InitFSLSPClkSel,"ax",%progbits
 3732              		.align	1
 3733              		.global	USB_InitFSLSPClkSel
 3734              		.syntax unified
 3735              		.thumb
 3736              		.thumb_func
 3737              		.fpu fpv4-sp-d16
 3739              	USB_InitFSLSPClkSel:
 3740              	.LVL308:
 3741              	.LFB165:
1491:Drivers/STM32F4xx_HAL_Driver/Src/stm32f4xx_ll_usb.c **** 
1492:Drivers/STM32F4xx_HAL_Driver/Src/stm32f4xx_ll_usb.c **** /**
1493:Drivers/STM32F4xx_HAL_Driver/Src/stm32f4xx_ll_usb.c ****   * @brief  USB_InitFSLSPClkSel : Initializes the FSLSPClkSel field of the
1494:Drivers/STM32F4xx_HAL_Driver/Src/stm32f4xx_ll_usb.c ****   *         HCFG register on the PHY type and set the right frame interval
1495:Drivers/STM32F4xx_HAL_Driver/Src/stm32f4xx_ll_usb.c ****   * @param  USBx  Selected device
1496:Drivers/STM32F4xx_HAL_Driver/Src/stm32f4xx_ll_usb.c ****   * @param  freq  clock frequency
1497:Drivers/STM32F4xx_HAL_Driver/Src/stm32f4xx_ll_usb.c ****   *          This parameter can be one of these values:
1498:Drivers/STM32F4xx_HAL_Driver/Src/stm32f4xx_ll_usb.c ****   *           HCFG_48_MHZ : Full Speed 48 MHz Clock
1499:Drivers/STM32F4xx_HAL_Driver/Src/stm32f4xx_ll_usb.c ****   *           HCFG_6_MHZ : Low Speed 6 MHz Clock
1500:Drivers/STM32F4xx_HAL_Driver/Src/stm32f4xx_ll_usb.c ****   * @retval HAL status
1501:Drivers/STM32F4xx_HAL_Driver/Src/stm32f4xx_ll_usb.c ****   */
1502:Drivers/STM32F4xx_HAL_Driver/Src/stm32f4xx_ll_usb.c **** HAL_StatusTypeDef USB_InitFSLSPClkSel(USB_OTG_GlobalTypeDef *USBx, uint8_t freq)
1503:Drivers/STM32F4xx_HAL_Driver/Src/stm32f4xx_ll_usb.c **** {
 3742              		.loc 1 1503 1 is_stmt 1 view -0
 3743              		.cfi_startproc
 3744              		@ args = 0, pretend = 0, frame = 0
 3745              		@ frame_needed = 0, uses_anonymous_args = 0
 3746              		@ link register save eliminated.
ARM GAS  /tmp/ccSVR7EX.s 			page 111


 3747              		.loc 1 1503 1 is_stmt 0 view .LVU1179
 3748 0000 10B4     		push	{r4}
 3749              	.LCFI51:
 3750              		.cfi_def_cfa_offset 4
 3751              		.cfi_offset 4, -4
1504:Drivers/STM32F4xx_HAL_Driver/Src/stm32f4xx_ll_usb.c ****   uint32_t USBx_BASE = (uint32_t)USBx;
 3752              		.loc 1 1504 3 is_stmt 1 view .LVU1180
 3753              	.LVL309:
1505:Drivers/STM32F4xx_HAL_Driver/Src/stm32f4xx_ll_usb.c **** 
1506:Drivers/STM32F4xx_HAL_Driver/Src/stm32f4xx_ll_usb.c ****   USBx_HOST->HCFG &= ~(USB_OTG_HCFG_FSLSPCS);
 3754              		.loc 1 1506 3 view .LVU1181
 3755              		.loc 1 1506 19 is_stmt 0 view .LVU1182
 3756 0002 00F58064 		add	r4, r0, #1024
 3757 0006 D0F80034 		ldr	r3, [r0, #1024]
 3758 000a 23F00303 		bic	r3, r3, #3
 3759 000e C0F80034 		str	r3, [r0, #1024]
1507:Drivers/STM32F4xx_HAL_Driver/Src/stm32f4xx_ll_usb.c ****   USBx_HOST->HCFG |= (uint32_t)freq & USB_OTG_HCFG_FSLSPCS;
 3760              		.loc 1 1507 3 is_stmt 1 view .LVU1183
 3761              		.loc 1 1507 19 is_stmt 0 view .LVU1184
 3762 0012 D0F80034 		ldr	r3, [r0, #1024]
 3763              		.loc 1 1507 37 view .LVU1185
 3764 0016 01F00302 		and	r2, r1, #3
 3765              		.loc 1 1507 19 view .LVU1186
 3766 001a 1343     		orrs	r3, r3, r2
 3767 001c C0F80034 		str	r3, [r0, #1024]
1508:Drivers/STM32F4xx_HAL_Driver/Src/stm32f4xx_ll_usb.c **** 
1509:Drivers/STM32F4xx_HAL_Driver/Src/stm32f4xx_ll_usb.c ****   if (freq == HCFG_48_MHZ)
 3768              		.loc 1 1509 3 is_stmt 1 view .LVU1187
 3769              		.loc 1 1509 6 is_stmt 0 view .LVU1188
 3770 0020 0129     		cmp	r1, #1
 3771 0022 05D0     		beq	.L237
1510:Drivers/STM32F4xx_HAL_Driver/Src/stm32f4xx_ll_usb.c ****   {
1511:Drivers/STM32F4xx_HAL_Driver/Src/stm32f4xx_ll_usb.c ****     USBx_HOST->HFIR = 48000U;
1512:Drivers/STM32F4xx_HAL_Driver/Src/stm32f4xx_ll_usb.c ****   }
1513:Drivers/STM32F4xx_HAL_Driver/Src/stm32f4xx_ll_usb.c ****   else if (freq == HCFG_6_MHZ)
 3772              		.loc 1 1513 8 is_stmt 1 view .LVU1189
 3773              		.loc 1 1513 11 is_stmt 0 view .LVU1190
 3774 0024 0229     		cmp	r1, #2
 3775 0026 07D0     		beq	.L238
 3776              	.L235:
1514:Drivers/STM32F4xx_HAL_Driver/Src/stm32f4xx_ll_usb.c ****   {
1515:Drivers/STM32F4xx_HAL_Driver/Src/stm32f4xx_ll_usb.c ****     USBx_HOST->HFIR = 6000U;
1516:Drivers/STM32F4xx_HAL_Driver/Src/stm32f4xx_ll_usb.c ****   }
1517:Drivers/STM32F4xx_HAL_Driver/Src/stm32f4xx_ll_usb.c ****   else
1518:Drivers/STM32F4xx_HAL_Driver/Src/stm32f4xx_ll_usb.c ****   {
1519:Drivers/STM32F4xx_HAL_Driver/Src/stm32f4xx_ll_usb.c ****     /* ... */
1520:Drivers/STM32F4xx_HAL_Driver/Src/stm32f4xx_ll_usb.c ****   }
 3777              		.loc 1 1520 3 is_stmt 1 view .LVU1191
1521:Drivers/STM32F4xx_HAL_Driver/Src/stm32f4xx_ll_usb.c **** 
1522:Drivers/STM32F4xx_HAL_Driver/Src/stm32f4xx_ll_usb.c ****   return HAL_OK;
 3778              		.loc 1 1522 3 view .LVU1192
1523:Drivers/STM32F4xx_HAL_Driver/Src/stm32f4xx_ll_usb.c **** }
 3779              		.loc 1 1523 1 is_stmt 0 view .LVU1193
 3780 0028 0020     		movs	r0, #0
 3781              	.LVL310:
 3782              		.loc 1 1523 1 view .LVU1194
 3783 002a 5DF8044B 		ldr	r4, [sp], #4
ARM GAS  /tmp/ccSVR7EX.s 			page 112


 3784              	.LCFI52:
 3785              		.cfi_remember_state
 3786              		.cfi_restore 4
 3787              		.cfi_def_cfa_offset 0
 3788              	.LVL311:
 3789              		.loc 1 1523 1 view .LVU1195
 3790 002e 7047     		bx	lr
 3791              	.LVL312:
 3792              	.L237:
 3793              	.LCFI53:
 3794              		.cfi_restore_state
1511:Drivers/STM32F4xx_HAL_Driver/Src/stm32f4xx_ll_usb.c ****   }
 3795              		.loc 1 1511 5 is_stmt 1 view .LVU1196
1511:Drivers/STM32F4xx_HAL_Driver/Src/stm32f4xx_ll_usb.c ****   }
 3796              		.loc 1 1511 21 is_stmt 0 view .LVU1197
 3797 0030 4BF68033 		movw	r3, #48000
 3798 0034 6360     		str	r3, [r4, #4]
 3799 0036 F7E7     		b	.L235
 3800              	.L238:
1515:Drivers/STM32F4xx_HAL_Driver/Src/stm32f4xx_ll_usb.c ****   }
 3801              		.loc 1 1515 5 is_stmt 1 view .LVU1198
1515:Drivers/STM32F4xx_HAL_Driver/Src/stm32f4xx_ll_usb.c ****   }
 3802              		.loc 1 1515 21 is_stmt 0 view .LVU1199
 3803 0038 41F27073 		movw	r3, #6000
 3804 003c 6360     		str	r3, [r4, #4]
 3805 003e F3E7     		b	.L235
 3806              		.cfi_endproc
 3807              	.LFE165:
 3809              		.section	.text.USB_ResetPort,"ax",%progbits
 3810              		.align	1
 3811              		.global	USB_ResetPort
 3812              		.syntax unified
 3813              		.thumb
 3814              		.thumb_func
 3815              		.fpu fpv4-sp-d16
 3817              	USB_ResetPort:
 3818              	.LVL313:
 3819              	.LFB166:
1524:Drivers/STM32F4xx_HAL_Driver/Src/stm32f4xx_ll_usb.c **** 
1525:Drivers/STM32F4xx_HAL_Driver/Src/stm32f4xx_ll_usb.c **** /**
1526:Drivers/STM32F4xx_HAL_Driver/Src/stm32f4xx_ll_usb.c ****   * @brief  USB_OTG_ResetPort : Reset Host Port
1527:Drivers/STM32F4xx_HAL_Driver/Src/stm32f4xx_ll_usb.c ****   * @param  USBx  Selected device
1528:Drivers/STM32F4xx_HAL_Driver/Src/stm32f4xx_ll_usb.c ****   * @retval HAL status
1529:Drivers/STM32F4xx_HAL_Driver/Src/stm32f4xx_ll_usb.c ****   * @note (1)The application must wait at least 10 ms
1530:Drivers/STM32F4xx_HAL_Driver/Src/stm32f4xx_ll_usb.c ****   *   before clearing the reset bit.
1531:Drivers/STM32F4xx_HAL_Driver/Src/stm32f4xx_ll_usb.c ****   */
1532:Drivers/STM32F4xx_HAL_Driver/Src/stm32f4xx_ll_usb.c **** HAL_StatusTypeDef USB_ResetPort(USB_OTG_GlobalTypeDef *USBx)
1533:Drivers/STM32F4xx_HAL_Driver/Src/stm32f4xx_ll_usb.c **** {
 3820              		.loc 1 1533 1 is_stmt 1 view -0
 3821              		.cfi_startproc
 3822              		@ args = 0, pretend = 0, frame = 8
 3823              		@ frame_needed = 0, uses_anonymous_args = 0
 3824              		.loc 1 1533 1 is_stmt 0 view .LVU1201
 3825 0000 30B5     		push	{r4, r5, lr}
 3826              	.LCFI54:
 3827              		.cfi_def_cfa_offset 12
 3828              		.cfi_offset 4, -12
ARM GAS  /tmp/ccSVR7EX.s 			page 113


 3829              		.cfi_offset 5, -8
 3830              		.cfi_offset 14, -4
 3831 0002 83B0     		sub	sp, sp, #12
 3832              	.LCFI55:
 3833              		.cfi_def_cfa_offset 24
 3834 0004 0446     		mov	r4, r0
1534:Drivers/STM32F4xx_HAL_Driver/Src/stm32f4xx_ll_usb.c ****   uint32_t USBx_BASE = (uint32_t)USBx;
 3835              		.loc 1 1534 3 is_stmt 1 view .LVU1202
 3836              	.LVL314:
1535:Drivers/STM32F4xx_HAL_Driver/Src/stm32f4xx_ll_usb.c **** 
1536:Drivers/STM32F4xx_HAL_Driver/Src/stm32f4xx_ll_usb.c ****   __IO uint32_t hprt0 = 0U;
 3837              		.loc 1 1536 3 view .LVU1203
 3838              		.loc 1 1536 17 is_stmt 0 view .LVU1204
 3839 0006 0025     		movs	r5, #0
 3840 0008 0195     		str	r5, [sp, #4]
1537:Drivers/STM32F4xx_HAL_Driver/Src/stm32f4xx_ll_usb.c **** 
1538:Drivers/STM32F4xx_HAL_Driver/Src/stm32f4xx_ll_usb.c ****   hprt0 = USBx_HPRT0;
 3841              		.loc 1 1538 3 is_stmt 1 view .LVU1205
 3842              		.loc 1 1538 11 is_stmt 0 view .LVU1206
 3843 000a D0F84034 		ldr	r3, [r0, #1088]
 3844              		.loc 1 1538 9 view .LVU1207
 3845 000e 0193     		str	r3, [sp, #4]
1539:Drivers/STM32F4xx_HAL_Driver/Src/stm32f4xx_ll_usb.c **** 
1540:Drivers/STM32F4xx_HAL_Driver/Src/stm32f4xx_ll_usb.c ****   hprt0 &= ~(USB_OTG_HPRT_PENA | USB_OTG_HPRT_PCDET |
 3846              		.loc 1 1540 3 is_stmt 1 view .LVU1208
 3847              		.loc 1 1540 9 is_stmt 0 view .LVU1209
 3848 0010 019B     		ldr	r3, [sp, #4]
 3849 0012 23F02E03 		bic	r3, r3, #46
 3850 0016 0193     		str	r3, [sp, #4]
1541:Drivers/STM32F4xx_HAL_Driver/Src/stm32f4xx_ll_usb.c ****              USB_OTG_HPRT_PENCHNG | USB_OTG_HPRT_POCCHNG);
1542:Drivers/STM32F4xx_HAL_Driver/Src/stm32f4xx_ll_usb.c **** 
1543:Drivers/STM32F4xx_HAL_Driver/Src/stm32f4xx_ll_usb.c ****   USBx_HPRT0 = (USB_OTG_HPRT_PRST | hprt0);
 3851              		.loc 1 1543 3 is_stmt 1 view .LVU1210
 3852              		.loc 1 1543 35 is_stmt 0 view .LVU1211
 3853 0018 019B     		ldr	r3, [sp, #4]
 3854 001a 43F48073 		orr	r3, r3, #256
 3855              		.loc 1 1543 14 view .LVU1212
 3856 001e C0F84034 		str	r3, [r0, #1088]
1544:Drivers/STM32F4xx_HAL_Driver/Src/stm32f4xx_ll_usb.c ****   HAL_Delay(100U);                                 /* See Note #1 */
 3857              		.loc 1 1544 3 is_stmt 1 view .LVU1213
 3858 0022 6420     		movs	r0, #100
 3859              	.LVL315:
 3860              		.loc 1 1544 3 is_stmt 0 view .LVU1214
 3861 0024 FFF7FEFF 		bl	HAL_Delay
 3862              	.LVL316:
1545:Drivers/STM32F4xx_HAL_Driver/Src/stm32f4xx_ll_usb.c ****   USBx_HPRT0 = ((~USB_OTG_HPRT_PRST) & hprt0);
 3863              		.loc 1 1545 3 is_stmt 1 view .LVU1215
 3864              		.loc 1 1545 38 is_stmt 0 view .LVU1216
 3865 0028 019B     		ldr	r3, [sp, #4]
 3866 002a 23F48073 		bic	r3, r3, #256
 3867              		.loc 1 1545 14 view .LVU1217
 3868 002e C4F84034 		str	r3, [r4, #1088]
1546:Drivers/STM32F4xx_HAL_Driver/Src/stm32f4xx_ll_usb.c ****   HAL_Delay(10U);
 3869              		.loc 1 1546 3 is_stmt 1 view .LVU1218
 3870 0032 0A20     		movs	r0, #10
 3871 0034 FFF7FEFF 		bl	HAL_Delay
 3872              	.LVL317:
ARM GAS  /tmp/ccSVR7EX.s 			page 114


1547:Drivers/STM32F4xx_HAL_Driver/Src/stm32f4xx_ll_usb.c **** 
1548:Drivers/STM32F4xx_HAL_Driver/Src/stm32f4xx_ll_usb.c ****   return HAL_OK;
 3873              		.loc 1 1548 3 view .LVU1219
1549:Drivers/STM32F4xx_HAL_Driver/Src/stm32f4xx_ll_usb.c **** }
 3874              		.loc 1 1549 1 is_stmt 0 view .LVU1220
 3875 0038 2846     		mov	r0, r5
 3876 003a 03B0     		add	sp, sp, #12
 3877              	.LCFI56:
 3878              		.cfi_def_cfa_offset 12
 3879              		@ sp needed
 3880 003c 30BD     		pop	{r4, r5, pc}
 3881              		.loc 1 1549 1 view .LVU1221
 3882              		.cfi_endproc
 3883              	.LFE166:
 3885              		.section	.text.USB_DriveVbus,"ax",%progbits
 3886              		.align	1
 3887              		.global	USB_DriveVbus
 3888              		.syntax unified
 3889              		.thumb
 3890              		.thumb_func
 3891              		.fpu fpv4-sp-d16
 3893              	USB_DriveVbus:
 3894              	.LVL318:
 3895              	.LFB167:
1550:Drivers/STM32F4xx_HAL_Driver/Src/stm32f4xx_ll_usb.c **** 
1551:Drivers/STM32F4xx_HAL_Driver/Src/stm32f4xx_ll_usb.c **** /**
1552:Drivers/STM32F4xx_HAL_Driver/Src/stm32f4xx_ll_usb.c ****   * @brief  USB_DriveVbus : activate or de-activate vbus
1553:Drivers/STM32F4xx_HAL_Driver/Src/stm32f4xx_ll_usb.c ****   * @param  state  VBUS state
1554:Drivers/STM32F4xx_HAL_Driver/Src/stm32f4xx_ll_usb.c ****   *          This parameter can be one of these values:
1555:Drivers/STM32F4xx_HAL_Driver/Src/stm32f4xx_ll_usb.c ****   *           0 : Deactivate VBUS
1556:Drivers/STM32F4xx_HAL_Driver/Src/stm32f4xx_ll_usb.c ****   *           1 : Activate VBUS
1557:Drivers/STM32F4xx_HAL_Driver/Src/stm32f4xx_ll_usb.c ****   * @retval HAL status
1558:Drivers/STM32F4xx_HAL_Driver/Src/stm32f4xx_ll_usb.c ****   */
1559:Drivers/STM32F4xx_HAL_Driver/Src/stm32f4xx_ll_usb.c **** HAL_StatusTypeDef USB_DriveVbus(USB_OTG_GlobalTypeDef *USBx, uint8_t state)
1560:Drivers/STM32F4xx_HAL_Driver/Src/stm32f4xx_ll_usb.c **** {
 3896              		.loc 1 1560 1 is_stmt 1 view -0
 3897              		.cfi_startproc
 3898              		@ args = 0, pretend = 0, frame = 8
 3899              		@ frame_needed = 0, uses_anonymous_args = 0
 3900              		@ link register save eliminated.
 3901              		.loc 1 1560 1 is_stmt 0 view .LVU1223
 3902 0000 82B0     		sub	sp, sp, #8
 3903              	.LCFI57:
 3904              		.cfi_def_cfa_offset 8
1561:Drivers/STM32F4xx_HAL_Driver/Src/stm32f4xx_ll_usb.c ****   uint32_t USBx_BASE = (uint32_t)USBx;
 3905              		.loc 1 1561 3 is_stmt 1 view .LVU1224
 3906              	.LVL319:
1562:Drivers/STM32F4xx_HAL_Driver/Src/stm32f4xx_ll_usb.c ****   __IO uint32_t hprt0 = 0U;
 3907              		.loc 1 1562 3 view .LVU1225
 3908              		.loc 1 1562 17 is_stmt 0 view .LVU1226
 3909 0002 0023     		movs	r3, #0
 3910 0004 0193     		str	r3, [sp, #4]
1563:Drivers/STM32F4xx_HAL_Driver/Src/stm32f4xx_ll_usb.c **** 
1564:Drivers/STM32F4xx_HAL_Driver/Src/stm32f4xx_ll_usb.c ****   hprt0 = USBx_HPRT0;
 3911              		.loc 1 1564 3 is_stmt 1 view .LVU1227
 3912              		.loc 1 1564 11 is_stmt 0 view .LVU1228
 3913 0006 D0F84034 		ldr	r3, [r0, #1088]
ARM GAS  /tmp/ccSVR7EX.s 			page 115


 3914              		.loc 1 1564 9 view .LVU1229
 3915 000a 0193     		str	r3, [sp, #4]
1565:Drivers/STM32F4xx_HAL_Driver/Src/stm32f4xx_ll_usb.c **** 
1566:Drivers/STM32F4xx_HAL_Driver/Src/stm32f4xx_ll_usb.c ****   hprt0 &= ~(USB_OTG_HPRT_PENA | USB_OTG_HPRT_PCDET |
 3916              		.loc 1 1566 3 is_stmt 1 view .LVU1230
 3917              		.loc 1 1566 9 is_stmt 0 view .LVU1231
 3918 000c 019B     		ldr	r3, [sp, #4]
 3919 000e 23F02E03 		bic	r3, r3, #46
 3920 0012 0193     		str	r3, [sp, #4]
1567:Drivers/STM32F4xx_HAL_Driver/Src/stm32f4xx_ll_usb.c ****              USB_OTG_HPRT_PENCHNG | USB_OTG_HPRT_POCCHNG);
1568:Drivers/STM32F4xx_HAL_Driver/Src/stm32f4xx_ll_usb.c **** 
1569:Drivers/STM32F4xx_HAL_Driver/Src/stm32f4xx_ll_usb.c ****   if (((hprt0 & USB_OTG_HPRT_PPWR) == 0U) && (state == 1U))
 3921              		.loc 1 1569 3 is_stmt 1 view .LVU1232
 3922              		.loc 1 1569 15 is_stmt 0 view .LVU1233
 3923 0014 019B     		ldr	r3, [sp, #4]
 3924              		.loc 1 1569 6 view .LVU1234
 3925 0016 13F4805F 		tst	r3, #4096
 3926 001a 01D1     		bne	.L242
 3927              		.loc 1 1569 43 discriminator 1 view .LVU1235
 3928 001c 0129     		cmp	r1, #1
 3929 001e 0CD0     		beq	.L245
 3930              	.L242:
1570:Drivers/STM32F4xx_HAL_Driver/Src/stm32f4xx_ll_usb.c ****   {
1571:Drivers/STM32F4xx_HAL_Driver/Src/stm32f4xx_ll_usb.c ****     USBx_HPRT0 = (USB_OTG_HPRT_PPWR | hprt0);
1572:Drivers/STM32F4xx_HAL_Driver/Src/stm32f4xx_ll_usb.c ****   }
1573:Drivers/STM32F4xx_HAL_Driver/Src/stm32f4xx_ll_usb.c ****   if (((hprt0 & USB_OTG_HPRT_PPWR) == USB_OTG_HPRT_PPWR) && (state == 0U))
 3931              		.loc 1 1573 3 is_stmt 1 view .LVU1236
 3932              		.loc 1 1573 15 is_stmt 0 view .LVU1237
 3933 0020 019B     		ldr	r3, [sp, #4]
 3934              		.loc 1 1573 6 view .LVU1238
 3935 0022 13F4805F 		tst	r3, #4096
 3936 0026 05D0     		beq	.L243
 3937              		.loc 1 1573 58 discriminator 1 view .LVU1239
 3938 0028 21B9     		cbnz	r1, .L243
1574:Drivers/STM32F4xx_HAL_Driver/Src/stm32f4xx_ll_usb.c ****   {
1575:Drivers/STM32F4xx_HAL_Driver/Src/stm32f4xx_ll_usb.c ****     USBx_HPRT0 = ((~USB_OTG_HPRT_PPWR) & hprt0);
 3939              		.loc 1 1575 5 is_stmt 1 view .LVU1240
 3940              		.loc 1 1575 40 is_stmt 0 view .LVU1241
 3941 002a 019B     		ldr	r3, [sp, #4]
 3942 002c 23F48053 		bic	r3, r3, #4096
 3943              		.loc 1 1575 16 view .LVU1242
 3944 0030 C0F84034 		str	r3, [r0, #1088]
 3945              	.L243:
1576:Drivers/STM32F4xx_HAL_Driver/Src/stm32f4xx_ll_usb.c ****   }
1577:Drivers/STM32F4xx_HAL_Driver/Src/stm32f4xx_ll_usb.c ****   return HAL_OK;
 3946              		.loc 1 1577 3 is_stmt 1 view .LVU1243
1578:Drivers/STM32F4xx_HAL_Driver/Src/stm32f4xx_ll_usb.c **** }
 3947              		.loc 1 1578 1 is_stmt 0 view .LVU1244
 3948 0034 0020     		movs	r0, #0
 3949              	.LVL320:
 3950              		.loc 1 1578 1 view .LVU1245
 3951 0036 02B0     		add	sp, sp, #8
 3952              	.LCFI58:
 3953              		.cfi_remember_state
 3954              		.cfi_def_cfa_offset 0
 3955              		@ sp needed
 3956 0038 7047     		bx	lr
ARM GAS  /tmp/ccSVR7EX.s 			page 116


 3957              	.LVL321:
 3958              	.L245:
 3959              	.LCFI59:
 3960              		.cfi_restore_state
1571:Drivers/STM32F4xx_HAL_Driver/Src/stm32f4xx_ll_usb.c ****   }
 3961              		.loc 1 1571 5 is_stmt 1 view .LVU1246
1571:Drivers/STM32F4xx_HAL_Driver/Src/stm32f4xx_ll_usb.c ****   }
 3962              		.loc 1 1571 37 is_stmt 0 view .LVU1247
 3963 003a 019B     		ldr	r3, [sp, #4]
 3964 003c 43F48053 		orr	r3, r3, #4096
1571:Drivers/STM32F4xx_HAL_Driver/Src/stm32f4xx_ll_usb.c ****   }
 3965              		.loc 1 1571 16 view .LVU1248
 3966 0040 C0F84034 		str	r3, [r0, #1088]
 3967 0044 ECE7     		b	.L242
 3968              		.cfi_endproc
 3969              	.LFE167:
 3971              		.section	.text.USB_GetHostSpeed,"ax",%progbits
 3972              		.align	1
 3973              		.global	USB_GetHostSpeed
 3974              		.syntax unified
 3975              		.thumb
 3976              		.thumb_func
 3977              		.fpu fpv4-sp-d16
 3979              	USB_GetHostSpeed:
 3980              	.LVL322:
 3981              	.LFB168:
1579:Drivers/STM32F4xx_HAL_Driver/Src/stm32f4xx_ll_usb.c **** 
1580:Drivers/STM32F4xx_HAL_Driver/Src/stm32f4xx_ll_usb.c **** /**
1581:Drivers/STM32F4xx_HAL_Driver/Src/stm32f4xx_ll_usb.c ****   * @brief  Return Host Core speed
1582:Drivers/STM32F4xx_HAL_Driver/Src/stm32f4xx_ll_usb.c ****   * @param  USBx  Selected device
1583:Drivers/STM32F4xx_HAL_Driver/Src/stm32f4xx_ll_usb.c ****   * @retval speed : Host speed
1584:Drivers/STM32F4xx_HAL_Driver/Src/stm32f4xx_ll_usb.c ****   *          This parameter can be one of these values:
1585:Drivers/STM32F4xx_HAL_Driver/Src/stm32f4xx_ll_usb.c ****   *            @arg HCD_SPEED_HIGH: High speed mode
1586:Drivers/STM32F4xx_HAL_Driver/Src/stm32f4xx_ll_usb.c ****   *            @arg HCD_SPEED_FULL: Full speed mode
1587:Drivers/STM32F4xx_HAL_Driver/Src/stm32f4xx_ll_usb.c ****   *            @arg HCD_SPEED_LOW: Low speed mode
1588:Drivers/STM32F4xx_HAL_Driver/Src/stm32f4xx_ll_usb.c ****   */
1589:Drivers/STM32F4xx_HAL_Driver/Src/stm32f4xx_ll_usb.c **** uint32_t USB_GetHostSpeed(USB_OTG_GlobalTypeDef *USBx)
1590:Drivers/STM32F4xx_HAL_Driver/Src/stm32f4xx_ll_usb.c **** {
 3982              		.loc 1 1590 1 is_stmt 1 view -0
 3983              		.cfi_startproc
 3984              		@ args = 0, pretend = 0, frame = 8
 3985              		@ frame_needed = 0, uses_anonymous_args = 0
 3986              		@ link register save eliminated.
 3987              		.loc 1 1590 1 is_stmt 0 view .LVU1250
 3988 0000 82B0     		sub	sp, sp, #8
 3989              	.LCFI60:
 3990              		.cfi_def_cfa_offset 8
1591:Drivers/STM32F4xx_HAL_Driver/Src/stm32f4xx_ll_usb.c ****   uint32_t USBx_BASE = (uint32_t)USBx;
 3991              		.loc 1 1591 3 is_stmt 1 view .LVU1251
 3992              	.LVL323:
1592:Drivers/STM32F4xx_HAL_Driver/Src/stm32f4xx_ll_usb.c ****   __IO uint32_t hprt0 = 0U;
 3993              		.loc 1 1592 3 view .LVU1252
 3994              		.loc 1 1592 17 is_stmt 0 view .LVU1253
 3995 0002 0023     		movs	r3, #0
 3996 0004 0193     		str	r3, [sp, #4]
1593:Drivers/STM32F4xx_HAL_Driver/Src/stm32f4xx_ll_usb.c **** 
1594:Drivers/STM32F4xx_HAL_Driver/Src/stm32f4xx_ll_usb.c ****   hprt0 = USBx_HPRT0;
ARM GAS  /tmp/ccSVR7EX.s 			page 117


 3997              		.loc 1 1594 3 is_stmt 1 view .LVU1254
 3998              		.loc 1 1594 11 is_stmt 0 view .LVU1255
 3999 0006 D0F84034 		ldr	r3, [r0, #1088]
 4000              		.loc 1 1594 9 view .LVU1256
 4001 000a 0193     		str	r3, [sp, #4]
1595:Drivers/STM32F4xx_HAL_Driver/Src/stm32f4xx_ll_usb.c ****   return ((hprt0 & USB_OTG_HPRT_PSPD) >> 17);
 4002              		.loc 1 1595 3 is_stmt 1 view .LVU1257
 4003              		.loc 1 1595 39 is_stmt 0 view .LVU1258
 4004 000c 0198     		ldr	r0, [sp, #4]
 4005              	.LVL324:
1596:Drivers/STM32F4xx_HAL_Driver/Src/stm32f4xx_ll_usb.c **** }
 4006              		.loc 1 1596 1 view .LVU1259
 4007 000e C0F34140 		ubfx	r0, r0, #17, #2
 4008 0012 02B0     		add	sp, sp, #8
 4009              	.LCFI61:
 4010              		.cfi_def_cfa_offset 0
 4011              		@ sp needed
 4012 0014 7047     		bx	lr
 4013              		.cfi_endproc
 4014              	.LFE168:
 4016              		.section	.text.USB_GetCurrentFrame,"ax",%progbits
 4017              		.align	1
 4018              		.global	USB_GetCurrentFrame
 4019              		.syntax unified
 4020              		.thumb
 4021              		.thumb_func
 4022              		.fpu fpv4-sp-d16
 4024              	USB_GetCurrentFrame:
 4025              	.LVL325:
 4026              	.LFB169:
1597:Drivers/STM32F4xx_HAL_Driver/Src/stm32f4xx_ll_usb.c **** 
1598:Drivers/STM32F4xx_HAL_Driver/Src/stm32f4xx_ll_usb.c **** /**
1599:Drivers/STM32F4xx_HAL_Driver/Src/stm32f4xx_ll_usb.c ****   * @brief  Return Host Current Frame number
1600:Drivers/STM32F4xx_HAL_Driver/Src/stm32f4xx_ll_usb.c ****   * @param  USBx  Selected device
1601:Drivers/STM32F4xx_HAL_Driver/Src/stm32f4xx_ll_usb.c ****   * @retval current frame number
1602:Drivers/STM32F4xx_HAL_Driver/Src/stm32f4xx_ll_usb.c ****   */
1603:Drivers/STM32F4xx_HAL_Driver/Src/stm32f4xx_ll_usb.c **** uint32_t USB_GetCurrentFrame(USB_OTG_GlobalTypeDef *USBx)
1604:Drivers/STM32F4xx_HAL_Driver/Src/stm32f4xx_ll_usb.c **** {
 4027              		.loc 1 1604 1 is_stmt 1 view -0
 4028              		.cfi_startproc
 4029              		@ args = 0, pretend = 0, frame = 0
 4030              		@ frame_needed = 0, uses_anonymous_args = 0
 4031              		@ link register save eliminated.
1605:Drivers/STM32F4xx_HAL_Driver/Src/stm32f4xx_ll_usb.c ****   uint32_t USBx_BASE = (uint32_t)USBx;
 4032              		.loc 1 1605 3 view .LVU1261
1606:Drivers/STM32F4xx_HAL_Driver/Src/stm32f4xx_ll_usb.c **** 
1607:Drivers/STM32F4xx_HAL_Driver/Src/stm32f4xx_ll_usb.c ****   return (USBx_HOST->HFNUM & USB_OTG_HFNUM_FRNUM);
 4033              		.loc 1 1607 3 view .LVU1262
 4034              		.loc 1 1607 11 is_stmt 0 view .LVU1263
 4035 0000 00F58060 		add	r0, r0, #1024
 4036              	.LVL326:
 4037              		.loc 1 1607 20 view .LVU1264
 4038 0004 8068     		ldr	r0, [r0, #8]
 4039              	.LVL327:
1608:Drivers/STM32F4xx_HAL_Driver/Src/stm32f4xx_ll_usb.c **** }
 4040              		.loc 1 1608 1 view .LVU1265
 4041 0006 80B2     		uxth	r0, r0
ARM GAS  /tmp/ccSVR7EX.s 			page 118


 4042 0008 7047     		bx	lr
 4043              		.cfi_endproc
 4044              	.LFE169:
 4046              		.section	.text.USB_HC_Init,"ax",%progbits
 4047              		.align	1
 4048              		.global	USB_HC_Init
 4049              		.syntax unified
 4050              		.thumb
 4051              		.thumb_func
 4052              		.fpu fpv4-sp-d16
 4054              	USB_HC_Init:
 4055              	.LVL328:
 4056              	.LFB170:
1609:Drivers/STM32F4xx_HAL_Driver/Src/stm32f4xx_ll_usb.c **** 
1610:Drivers/STM32F4xx_HAL_Driver/Src/stm32f4xx_ll_usb.c **** /**
1611:Drivers/STM32F4xx_HAL_Driver/Src/stm32f4xx_ll_usb.c ****   * @brief  Initialize a host channel
1612:Drivers/STM32F4xx_HAL_Driver/Src/stm32f4xx_ll_usb.c ****   * @param  USBx  Selected device
1613:Drivers/STM32F4xx_HAL_Driver/Src/stm32f4xx_ll_usb.c ****   * @param  ch_num  Channel number
1614:Drivers/STM32F4xx_HAL_Driver/Src/stm32f4xx_ll_usb.c ****   *         This parameter can be a value from 1 to 15
1615:Drivers/STM32F4xx_HAL_Driver/Src/stm32f4xx_ll_usb.c ****   * @param  epnum  Endpoint number
1616:Drivers/STM32F4xx_HAL_Driver/Src/stm32f4xx_ll_usb.c ****   *          This parameter can be a value from 1 to 15
1617:Drivers/STM32F4xx_HAL_Driver/Src/stm32f4xx_ll_usb.c ****   * @param  dev_address  Current device address
1618:Drivers/STM32F4xx_HAL_Driver/Src/stm32f4xx_ll_usb.c ****   *          This parameter can be a value from 0 to 255
1619:Drivers/STM32F4xx_HAL_Driver/Src/stm32f4xx_ll_usb.c ****   * @param  speed  Current device speed
1620:Drivers/STM32F4xx_HAL_Driver/Src/stm32f4xx_ll_usb.c ****   *          This parameter can be one of these values:
1621:Drivers/STM32F4xx_HAL_Driver/Src/stm32f4xx_ll_usb.c ****   *            @arg USB_OTG_SPEED_HIGH: High speed mode
1622:Drivers/STM32F4xx_HAL_Driver/Src/stm32f4xx_ll_usb.c ****   *            @arg USB_OTG_SPEED_FULL: Full speed mode
1623:Drivers/STM32F4xx_HAL_Driver/Src/stm32f4xx_ll_usb.c ****   *            @arg USB_OTG_SPEED_LOW: Low speed mode
1624:Drivers/STM32F4xx_HAL_Driver/Src/stm32f4xx_ll_usb.c ****   * @param  ep_type  Endpoint Type
1625:Drivers/STM32F4xx_HAL_Driver/Src/stm32f4xx_ll_usb.c ****   *          This parameter can be one of these values:
1626:Drivers/STM32F4xx_HAL_Driver/Src/stm32f4xx_ll_usb.c ****   *            @arg EP_TYPE_CTRL: Control type
1627:Drivers/STM32F4xx_HAL_Driver/Src/stm32f4xx_ll_usb.c ****   *            @arg EP_TYPE_ISOC: Isochronous type
1628:Drivers/STM32F4xx_HAL_Driver/Src/stm32f4xx_ll_usb.c ****   *            @arg EP_TYPE_BULK: Bulk type
1629:Drivers/STM32F4xx_HAL_Driver/Src/stm32f4xx_ll_usb.c ****   *            @arg EP_TYPE_INTR: Interrupt type
1630:Drivers/STM32F4xx_HAL_Driver/Src/stm32f4xx_ll_usb.c ****   * @param  mps  Max Packet Size
1631:Drivers/STM32F4xx_HAL_Driver/Src/stm32f4xx_ll_usb.c ****   *          This parameter can be a value from 0 to 32K
1632:Drivers/STM32F4xx_HAL_Driver/Src/stm32f4xx_ll_usb.c ****   * @retval HAL state
1633:Drivers/STM32F4xx_HAL_Driver/Src/stm32f4xx_ll_usb.c ****   */
1634:Drivers/STM32F4xx_HAL_Driver/Src/stm32f4xx_ll_usb.c **** HAL_StatusTypeDef USB_HC_Init(USB_OTG_GlobalTypeDef *USBx, uint8_t ch_num,
1635:Drivers/STM32F4xx_HAL_Driver/Src/stm32f4xx_ll_usb.c ****                               uint8_t epnum, uint8_t dev_address, uint8_t speed,
1636:Drivers/STM32F4xx_HAL_Driver/Src/stm32f4xx_ll_usb.c ****                               uint8_t ep_type, uint16_t mps)
1637:Drivers/STM32F4xx_HAL_Driver/Src/stm32f4xx_ll_usb.c **** {
 4057              		.loc 1 1637 1 is_stmt 1 view -0
 4058              		.cfi_startproc
 4059              		@ args = 12, pretend = 0, frame = 0
 4060              		@ frame_needed = 0, uses_anonymous_args = 0
 4061              		.loc 1 1637 1 is_stmt 0 view .LVU1267
 4062 0000 2DE9F843 		push	{r3, r4, r5, r6, r7, r8, r9, lr}
 4063              	.LCFI62:
 4064              		.cfi_def_cfa_offset 32
 4065              		.cfi_offset 3, -32
 4066              		.cfi_offset 4, -28
 4067              		.cfi_offset 5, -24
 4068              		.cfi_offset 6, -20
 4069              		.cfi_offset 7, -16
 4070              		.cfi_offset 8, -12
 4071              		.cfi_offset 9, -8
ARM GAS  /tmp/ccSVR7EX.s 			page 119


 4072              		.cfi_offset 14, -4
 4073 0004 9146     		mov	r9, r2
 4074 0006 1C46     		mov	r4, r3
 4075 0008 9DF82450 		ldrb	r5, [sp, #36]	@ zero_extendqisi2
1638:Drivers/STM32F4xx_HAL_Driver/Src/stm32f4xx_ll_usb.c ****   HAL_StatusTypeDef ret = HAL_OK;
 4076              		.loc 1 1638 3 is_stmt 1 view .LVU1268
 4077              	.LVL329:
1639:Drivers/STM32F4xx_HAL_Driver/Src/stm32f4xx_ll_usb.c ****   uint32_t USBx_BASE = (uint32_t)USBx;
 4078              		.loc 1 1639 3 view .LVU1269
1640:Drivers/STM32F4xx_HAL_Driver/Src/stm32f4xx_ll_usb.c ****   uint32_t HCcharEpDir;
 4079              		.loc 1 1640 3 view .LVU1270
1641:Drivers/STM32F4xx_HAL_Driver/Src/stm32f4xx_ll_usb.c ****   uint32_t HCcharLowSpeed;
 4080              		.loc 1 1641 3 view .LVU1271
1642:Drivers/STM32F4xx_HAL_Driver/Src/stm32f4xx_ll_usb.c ****   uint32_t HostCoreSpeed;
 4081              		.loc 1 1642 3 view .LVU1272
1643:Drivers/STM32F4xx_HAL_Driver/Src/stm32f4xx_ll_usb.c **** 
1644:Drivers/STM32F4xx_HAL_Driver/Src/stm32f4xx_ll_usb.c ****   /* Clear old interrupt conditions for this host channel. */
1645:Drivers/STM32F4xx_HAL_Driver/Src/stm32f4xx_ll_usb.c ****   USBx_HC((uint32_t)ch_num)->HCINT = 0xFFFFFFFFU;
 4082              		.loc 1 1645 3 view .LVU1273
 4083 000c 00EB4116 		add	r6, r0, r1, lsl #5
 4084 0010 06F5A063 		add	r3, r6, #1280
 4085              	.LVL330:
 4086              		.loc 1 1645 36 is_stmt 0 view .LVU1274
 4087 0014 4FF0FF32 		mov	r2, #-1
 4088              	.LVL331:
 4089              		.loc 1 1645 36 view .LVU1275
 4090 0018 9A60     		str	r2, [r3, #8]
1646:Drivers/STM32F4xx_HAL_Driver/Src/stm32f4xx_ll_usb.c **** 
1647:Drivers/STM32F4xx_HAL_Driver/Src/stm32f4xx_ll_usb.c ****   /* Enable channel interrupts required for this transfer. */
1648:Drivers/STM32F4xx_HAL_Driver/Src/stm32f4xx_ll_usb.c ****   switch (ep_type)
 4091              		.loc 1 1648 3 is_stmt 1 view .LVU1276
 4092 001a 032D     		cmp	r5, #3
 4093 001c 6AD8     		bhi	.L259
 4094 001e DFE805F0 		tbb	[pc, r5]
 4095              	.L252:
 4096 0022 02       		.byte	(.L253-.L252)/2
 4097 0023 5B       		.byte	(.L254-.L252)/2
 4098 0024 02       		.byte	(.L253-.L252)/2
 4099 0025 18       		.byte	(.L251-.L252)/2
 4100              		.p2align 1
 4101              	.L253:
1649:Drivers/STM32F4xx_HAL_Driver/Src/stm32f4xx_ll_usb.c ****   {
1650:Drivers/STM32F4xx_HAL_Driver/Src/stm32f4xx_ll_usb.c ****     case EP_TYPE_CTRL:
1651:Drivers/STM32F4xx_HAL_Driver/Src/stm32f4xx_ll_usb.c ****     case EP_TYPE_BULK:
1652:Drivers/STM32F4xx_HAL_Driver/Src/stm32f4xx_ll_usb.c ****       USBx_HC((uint32_t)ch_num)->HCINTMSK = USB_OTG_HCINTMSK_XFRCM  |
 4102              		.loc 1 1652 7 view .LVU1277
 4103              		.loc 1 1652 43 is_stmt 0 view .LVU1278
 4104 0026 40F29D42 		movw	r2, #1181
 4105 002a DA60     		str	r2, [r3, #12]
1653:Drivers/STM32F4xx_HAL_Driver/Src/stm32f4xx_ll_usb.c ****                                             USB_OTG_HCINTMSK_STALLM |
1654:Drivers/STM32F4xx_HAL_Driver/Src/stm32f4xx_ll_usb.c ****                                             USB_OTG_HCINTMSK_TXERRM |
1655:Drivers/STM32F4xx_HAL_Driver/Src/stm32f4xx_ll_usb.c ****                                             USB_OTG_HCINTMSK_DTERRM |
1656:Drivers/STM32F4xx_HAL_Driver/Src/stm32f4xx_ll_usb.c ****                                             USB_OTG_HCINTMSK_AHBERR |
1657:Drivers/STM32F4xx_HAL_Driver/Src/stm32f4xx_ll_usb.c ****                                             USB_OTG_HCINTMSK_NAKM;
1658:Drivers/STM32F4xx_HAL_Driver/Src/stm32f4xx_ll_usb.c **** 
1659:Drivers/STM32F4xx_HAL_Driver/Src/stm32f4xx_ll_usb.c ****       if ((epnum & 0x80U) == 0x80U)
 4106              		.loc 1 1659 7 is_stmt 1 view .LVU1279
ARM GAS  /tmp/ccSVR7EX.s 			page 120


 4107              		.loc 1 1659 10 is_stmt 0 view .LVU1280
 4108 002c 19F0800F 		tst	r9, #128
 4109 0030 09D1     		bne	.L267
1660:Drivers/STM32F4xx_HAL_Driver/Src/stm32f4xx_ll_usb.c ****       {
1661:Drivers/STM32F4xx_HAL_Driver/Src/stm32f4xx_ll_usb.c ****         USBx_HC((uint32_t)ch_num)->HCINTMSK |= USB_OTG_HCINTMSK_BBERRM;
1662:Drivers/STM32F4xx_HAL_Driver/Src/stm32f4xx_ll_usb.c ****       }
1663:Drivers/STM32F4xx_HAL_Driver/Src/stm32f4xx_ll_usb.c ****       else
1664:Drivers/STM32F4xx_HAL_Driver/Src/stm32f4xx_ll_usb.c ****       {
1665:Drivers/STM32F4xx_HAL_Driver/Src/stm32f4xx_ll_usb.c ****         if ((USBx->CID & (0x1U << 8)) != 0U)
 4110              		.loc 1 1665 9 is_stmt 1 view .LVU1281
 4111              		.loc 1 1665 18 is_stmt 0 view .LVU1282
 4112 0032 C26B     		ldr	r2, [r0, #60]
 4113              		.loc 1 1665 12 view .LVU1283
 4114 0034 12F4807F 		tst	r2, #256
 4115 0038 5ED0     		beq	.L260
1666:Drivers/STM32F4xx_HAL_Driver/Src/stm32f4xx_ll_usb.c ****         {
1667:Drivers/STM32F4xx_HAL_Driver/Src/stm32f4xx_ll_usb.c ****           USBx_HC((uint32_t)ch_num)->HCINTMSK |= USB_OTG_HCINTMSK_NYET |
 4116              		.loc 1 1667 11 is_stmt 1 view .LVU1284
 4117              		.loc 1 1667 47 is_stmt 0 view .LVU1285
 4118 003a DA68     		ldr	r2, [r3, #12]
 4119 003c 42F06002 		orr	r2, r2, #96
 4120 0040 DA60     		str	r2, [r3, #12]
1638:Drivers/STM32F4xx_HAL_Driver/Src/stm32f4xx_ll_usb.c ****   uint32_t USBx_BASE = (uint32_t)USBx;
 4121              		.loc 1 1638 21 view .LVU1286
 4122 0042 0027     		movs	r7, #0
 4123 0044 0CE0     		b	.L250
 4124              	.L267:
1661:Drivers/STM32F4xx_HAL_Driver/Src/stm32f4xx_ll_usb.c ****       }
 4125              		.loc 1 1661 9 is_stmt 1 view .LVU1287
1661:Drivers/STM32F4xx_HAL_Driver/Src/stm32f4xx_ll_usb.c ****       }
 4126              		.loc 1 1661 45 is_stmt 0 view .LVU1288
 4127 0046 DA68     		ldr	r2, [r3, #12]
 4128 0048 42F48072 		orr	r2, r2, #256
 4129 004c DA60     		str	r2, [r3, #12]
1638:Drivers/STM32F4xx_HAL_Driver/Src/stm32f4xx_ll_usb.c ****   uint32_t USBx_BASE = (uint32_t)USBx;
 4130              		.loc 1 1638 21 view .LVU1289
 4131 004e 0027     		movs	r7, #0
 4132 0050 06E0     		b	.L250
 4133              	.L251:
1668:Drivers/STM32F4xx_HAL_Driver/Src/stm32f4xx_ll_usb.c ****                                                  USB_OTG_HCINTMSK_ACKM;
1669:Drivers/STM32F4xx_HAL_Driver/Src/stm32f4xx_ll_usb.c ****         }
1670:Drivers/STM32F4xx_HAL_Driver/Src/stm32f4xx_ll_usb.c ****       }
1671:Drivers/STM32F4xx_HAL_Driver/Src/stm32f4xx_ll_usb.c ****       break;
1672:Drivers/STM32F4xx_HAL_Driver/Src/stm32f4xx_ll_usb.c **** 
1673:Drivers/STM32F4xx_HAL_Driver/Src/stm32f4xx_ll_usb.c ****     case EP_TYPE_INTR:
1674:Drivers/STM32F4xx_HAL_Driver/Src/stm32f4xx_ll_usb.c ****       USBx_HC((uint32_t)ch_num)->HCINTMSK = USB_OTG_HCINTMSK_XFRCM  |
 4134              		.loc 1 1674 7 is_stmt 1 view .LVU1290
 4135              		.loc 1 1674 43 is_stmt 0 view .LVU1291
 4136 0052 40F29D62 		movw	r2, #1693
 4137 0056 DA60     		str	r2, [r3, #12]
1675:Drivers/STM32F4xx_HAL_Driver/Src/stm32f4xx_ll_usb.c ****                                             USB_OTG_HCINTMSK_STALLM |
1676:Drivers/STM32F4xx_HAL_Driver/Src/stm32f4xx_ll_usb.c ****                                             USB_OTG_HCINTMSK_TXERRM |
1677:Drivers/STM32F4xx_HAL_Driver/Src/stm32f4xx_ll_usb.c ****                                             USB_OTG_HCINTMSK_DTERRM |
1678:Drivers/STM32F4xx_HAL_Driver/Src/stm32f4xx_ll_usb.c ****                                             USB_OTG_HCINTMSK_NAKM   |
1679:Drivers/STM32F4xx_HAL_Driver/Src/stm32f4xx_ll_usb.c ****                                             USB_OTG_HCINTMSK_AHBERR |
1680:Drivers/STM32F4xx_HAL_Driver/Src/stm32f4xx_ll_usb.c ****                                             USB_OTG_HCINTMSK_FRMORM;
1681:Drivers/STM32F4xx_HAL_Driver/Src/stm32f4xx_ll_usb.c **** 
ARM GAS  /tmp/ccSVR7EX.s 			page 121


1682:Drivers/STM32F4xx_HAL_Driver/Src/stm32f4xx_ll_usb.c ****       if ((epnum & 0x80U) == 0x80U)
 4138              		.loc 1 1682 7 is_stmt 1 view .LVU1292
 4139              		.loc 1 1682 10 is_stmt 0 view .LVU1293
 4140 0058 19F0800F 		tst	r9, #128
 4141 005c 36D1     		bne	.L268
1638:Drivers/STM32F4xx_HAL_Driver/Src/stm32f4xx_ll_usb.c ****   uint32_t USBx_BASE = (uint32_t)USBx;
 4142              		.loc 1 1638 21 view .LVU1294
 4143 005e 0027     		movs	r7, #0
 4144              	.L250:
 4145              	.LVL332:
1683:Drivers/STM32F4xx_HAL_Driver/Src/stm32f4xx_ll_usb.c ****       {
1684:Drivers/STM32F4xx_HAL_Driver/Src/stm32f4xx_ll_usb.c ****         USBx_HC((uint32_t)ch_num)->HCINTMSK |= USB_OTG_HCINTMSK_BBERRM;
1685:Drivers/STM32F4xx_HAL_Driver/Src/stm32f4xx_ll_usb.c ****       }
1686:Drivers/STM32F4xx_HAL_Driver/Src/stm32f4xx_ll_usb.c **** 
1687:Drivers/STM32F4xx_HAL_Driver/Src/stm32f4xx_ll_usb.c ****       break;
1688:Drivers/STM32F4xx_HAL_Driver/Src/stm32f4xx_ll_usb.c **** 
1689:Drivers/STM32F4xx_HAL_Driver/Src/stm32f4xx_ll_usb.c ****     case EP_TYPE_ISOC:
1690:Drivers/STM32F4xx_HAL_Driver/Src/stm32f4xx_ll_usb.c ****       USBx_HC((uint32_t)ch_num)->HCINTMSK = USB_OTG_HCINTMSK_XFRCM  |
1691:Drivers/STM32F4xx_HAL_Driver/Src/stm32f4xx_ll_usb.c ****                                             USB_OTG_HCINTMSK_ACKM   |
1692:Drivers/STM32F4xx_HAL_Driver/Src/stm32f4xx_ll_usb.c ****                                             USB_OTG_HCINTMSK_AHBERR |
1693:Drivers/STM32F4xx_HAL_Driver/Src/stm32f4xx_ll_usb.c ****                                             USB_OTG_HCINTMSK_FRMORM;
1694:Drivers/STM32F4xx_HAL_Driver/Src/stm32f4xx_ll_usb.c **** 
1695:Drivers/STM32F4xx_HAL_Driver/Src/stm32f4xx_ll_usb.c ****       if ((epnum & 0x80U) == 0x80U)
1696:Drivers/STM32F4xx_HAL_Driver/Src/stm32f4xx_ll_usb.c ****       {
1697:Drivers/STM32F4xx_HAL_Driver/Src/stm32f4xx_ll_usb.c ****         USBx_HC((uint32_t)ch_num)->HCINTMSK |= (USB_OTG_HCINTMSK_TXERRM | USB_OTG_HCINTMSK_BBERRM);
1698:Drivers/STM32F4xx_HAL_Driver/Src/stm32f4xx_ll_usb.c ****       }
1699:Drivers/STM32F4xx_HAL_Driver/Src/stm32f4xx_ll_usb.c ****       break;
1700:Drivers/STM32F4xx_HAL_Driver/Src/stm32f4xx_ll_usb.c **** 
1701:Drivers/STM32F4xx_HAL_Driver/Src/stm32f4xx_ll_usb.c ****     default:
1702:Drivers/STM32F4xx_HAL_Driver/Src/stm32f4xx_ll_usb.c ****       ret = HAL_ERROR;
1703:Drivers/STM32F4xx_HAL_Driver/Src/stm32f4xx_ll_usb.c ****       break;
1704:Drivers/STM32F4xx_HAL_Driver/Src/stm32f4xx_ll_usb.c ****   }
1705:Drivers/STM32F4xx_HAL_Driver/Src/stm32f4xx_ll_usb.c **** 
1706:Drivers/STM32F4xx_HAL_Driver/Src/stm32f4xx_ll_usb.c ****   /* Enable the top level host channel interrupt. */
1707:Drivers/STM32F4xx_HAL_Driver/Src/stm32f4xx_ll_usb.c ****   USBx_HOST->HAINTMSK |= 1UL << (ch_num & 0xFU);
 4146              		.loc 1 1707 3 is_stmt 1 view .LVU1295
 4147              		.loc 1 1707 23 is_stmt 0 view .LVU1296
 4148 0060 D0F81834 		ldr	r3, [r0, #1048]
 4149              		.loc 1 1707 41 view .LVU1297
 4150 0064 01F00F01 		and	r1, r1, #15
 4151              	.LVL333:
 4152              		.loc 1 1707 30 view .LVU1298
 4153 0068 0122     		movs	r2, #1
 4154 006a 02FA01F1 		lsl	r1, r2, r1
 4155              		.loc 1 1707 23 view .LVU1299
 4156 006e 1943     		orrs	r1, r1, r3
 4157 0070 C0F81814 		str	r1, [r0, #1048]
1708:Drivers/STM32F4xx_HAL_Driver/Src/stm32f4xx_ll_usb.c **** 
1709:Drivers/STM32F4xx_HAL_Driver/Src/stm32f4xx_ll_usb.c ****   /* Make sure host channel interrupts are enabled. */
1710:Drivers/STM32F4xx_HAL_Driver/Src/stm32f4xx_ll_usb.c ****   USBx->GINTMSK |= USB_OTG_GINTMSK_HCIM;
 4158              		.loc 1 1710 3 is_stmt 1 view .LVU1300
 4159              		.loc 1 1710 17 is_stmt 0 view .LVU1301
 4160 0074 8369     		ldr	r3, [r0, #24]
 4161 0076 43F00073 		orr	r3, r3, #33554432
 4162 007a 8361     		str	r3, [r0, #24]
1711:Drivers/STM32F4xx_HAL_Driver/Src/stm32f4xx_ll_usb.c **** 
1712:Drivers/STM32F4xx_HAL_Driver/Src/stm32f4xx_ll_usb.c ****   /* Program the HCCHAR register */
ARM GAS  /tmp/ccSVR7EX.s 			page 122


1713:Drivers/STM32F4xx_HAL_Driver/Src/stm32f4xx_ll_usb.c ****   if ((epnum & 0x80U) == 0x80U)
 4163              		.loc 1 1713 3 is_stmt 1 view .LVU1302
 4164              		.loc 1 1713 6 is_stmt 0 view .LVU1303
 4165 007c 19F0800F 		tst	r9, #128
 4166 0080 3CD1     		bne	.L269
1714:Drivers/STM32F4xx_HAL_Driver/Src/stm32f4xx_ll_usb.c ****   {
1715:Drivers/STM32F4xx_HAL_Driver/Src/stm32f4xx_ll_usb.c ****     HCcharEpDir = (0x1U << 15) & USB_OTG_HCCHAR_EPDIR;
1716:Drivers/STM32F4xx_HAL_Driver/Src/stm32f4xx_ll_usb.c ****   }
1717:Drivers/STM32F4xx_HAL_Driver/Src/stm32f4xx_ll_usb.c ****   else
1718:Drivers/STM32F4xx_HAL_Driver/Src/stm32f4xx_ll_usb.c ****   {
1719:Drivers/STM32F4xx_HAL_Driver/Src/stm32f4xx_ll_usb.c ****     HCcharEpDir = 0U;
 4167              		.loc 1 1719 17 view .LVU1304
 4168 0082 4FF00008 		mov	r8, #0
 4169              	.L256:
 4170              	.LVL334:
1720:Drivers/STM32F4xx_HAL_Driver/Src/stm32f4xx_ll_usb.c ****   }
1721:Drivers/STM32F4xx_HAL_Driver/Src/stm32f4xx_ll_usb.c **** 
1722:Drivers/STM32F4xx_HAL_Driver/Src/stm32f4xx_ll_usb.c ****   HostCoreSpeed = USB_GetHostSpeed(USBx);
 4171              		.loc 1 1722 3 is_stmt 1 view .LVU1305
 4172              		.loc 1 1722 19 is_stmt 0 view .LVU1306
 4173 0086 FFF7FEFF 		bl	USB_GetHostSpeed
 4174              	.LVL335:
1723:Drivers/STM32F4xx_HAL_Driver/Src/stm32f4xx_ll_usb.c **** 
1724:Drivers/STM32F4xx_HAL_Driver/Src/stm32f4xx_ll_usb.c ****   /* LS device plugged to HUB */
1725:Drivers/STM32F4xx_HAL_Driver/Src/stm32f4xx_ll_usb.c ****   if ((speed == HPRT0_PRTSPD_LOW_SPEED) && (HostCoreSpeed != HPRT0_PRTSPD_LOW_SPEED))
 4175              		.loc 1 1725 3 is_stmt 1 view .LVU1307
 4176              		.loc 1 1725 6 is_stmt 0 view .LVU1308
 4177 008a 9DF82030 		ldrb	r3, [sp, #32]	@ zero_extendqisi2
 4178 008e 022B     		cmp	r3, #2
 4179 0090 37D0     		beq	.L270
1726:Drivers/STM32F4xx_HAL_Driver/Src/stm32f4xx_ll_usb.c ****   {
1727:Drivers/STM32F4xx_HAL_Driver/Src/stm32f4xx_ll_usb.c ****     HCcharLowSpeed = (0x1U << 17) & USB_OTG_HCCHAR_LSDEV;
1728:Drivers/STM32F4xx_HAL_Driver/Src/stm32f4xx_ll_usb.c ****   }
1729:Drivers/STM32F4xx_HAL_Driver/Src/stm32f4xx_ll_usb.c ****   else
1730:Drivers/STM32F4xx_HAL_Driver/Src/stm32f4xx_ll_usb.c ****   {
1731:Drivers/STM32F4xx_HAL_Driver/Src/stm32f4xx_ll_usb.c ****     HCcharLowSpeed = 0U;
 4180              		.loc 1 1731 20 view .LVU1309
 4181 0092 0021     		movs	r1, #0
 4182              	.L257:
 4183              	.LVL336:
1732:Drivers/STM32F4xx_HAL_Driver/Src/stm32f4xx_ll_usb.c ****   }
1733:Drivers/STM32F4xx_HAL_Driver/Src/stm32f4xx_ll_usb.c **** 
1734:Drivers/STM32F4xx_HAL_Driver/Src/stm32f4xx_ll_usb.c ****   USBx_HC((uint32_t)ch_num)->HCCHAR = (((uint32_t)dev_address << 22) & USB_OTG_HCCHAR_DAD) |
 4184              		.loc 1 1734 3 is_stmt 1 view .LVU1310
 4185              		.loc 1 1734 63 is_stmt 0 view .LVU1311
 4186 0094 A305     		lsls	r3, r4, #22
 4187              		.loc 1 1734 70 view .LVU1312
 4188 0096 03F0FE53 		and	r3, r3, #532676608
1735:Drivers/STM32F4xx_HAL_Driver/Src/stm32f4xx_ll_usb.c ****                                       ((((uint32_t)epnum & 0x7FU) << 11) & USB_OTG_HCCHAR_EPNUM) |
 4189              		.loc 1 1735 67 view .LVU1313
 4190 009a 4FEAC929 		lsl	r9, r9, #11
 4191              		.loc 1 1735 74 view .LVU1314
 4192 009e 09F4F049 		and	r9, r9, #30720
1734:Drivers/STM32F4xx_HAL_Driver/Src/stm32f4xx_ll_usb.c ****                                       ((((uint32_t)epnum & 0x7FU) << 11) & USB_OTG_HCCHAR_EPNUM) |
 4193              		.loc 1 1734 92 view .LVU1315
 4194 00a2 43EA0903 		orr	r3, r3, r9
1736:Drivers/STM32F4xx_HAL_Driver/Src/stm32f4xx_ll_usb.c ****                                       (((uint32_t)ep_type << 18) & USB_OTG_HCCHAR_EPTYP) |
ARM GAS  /tmp/ccSVR7EX.s 			page 123


 4195              		.loc 1 1736 59 view .LVU1316
 4196 00a6 AC04     		lsls	r4, r5, #18
 4197              		.loc 1 1736 66 view .LVU1317
 4198 00a8 04F44024 		and	r4, r4, #786432
1735:Drivers/STM32F4xx_HAL_Driver/Src/stm32f4xx_ll_usb.c ****                                       ((((uint32_t)epnum & 0x7FU) << 11) & USB_OTG_HCCHAR_EPNUM) |
 4199              		.loc 1 1735 98 view .LVU1318
 4200 00ac 2343     		orrs	r3, r3, r4
1737:Drivers/STM32F4xx_HAL_Driver/Src/stm32f4xx_ll_usb.c ****                                       ((uint32_t)mps & USB_OTG_HCCHAR_MPSIZ) | HCcharEpDir | HCchar
 4201              		.loc 1 1737 54 view .LVU1319
 4202 00ae BDF82820 		ldrh	r2, [sp, #40]
 4203 00b2 C2F30A02 		ubfx	r2, r2, #0, #11
1736:Drivers/STM32F4xx_HAL_Driver/Src/stm32f4xx_ll_usb.c ****                                       (((uint32_t)ep_type << 18) & USB_OTG_HCCHAR_EPTYP) |
 4204              		.loc 1 1736 90 view .LVU1320
 4205 00b6 1343     		orrs	r3, r3, r2
 4206              		.loc 1 1737 78 view .LVU1321
 4207 00b8 43EA0803 		orr	r3, r3, r8
 4208              		.loc 1 1737 92 view .LVU1322
 4209 00bc 0B43     		orrs	r3, r3, r1
1734:Drivers/STM32F4xx_HAL_Driver/Src/stm32f4xx_ll_usb.c ****                                       ((((uint32_t)epnum & 0x7FU) << 11) & USB_OTG_HCCHAR_EPNUM) |
 4210              		.loc 1 1734 37 view .LVU1323
 4211 00be C6F80035 		str	r3, [r6, #1280]
1738:Drivers/STM32F4xx_HAL_Driver/Src/stm32f4xx_ll_usb.c **** 
1739:Drivers/STM32F4xx_HAL_Driver/Src/stm32f4xx_ll_usb.c ****   if (ep_type == EP_TYPE_INTR)
 4212              		.loc 1 1739 3 is_stmt 1 view .LVU1324
 4213              		.loc 1 1739 6 is_stmt 0 view .LVU1325
 4214 00c2 032D     		cmp	r5, #3
 4215 00c4 24D0     		beq	.L271
 4216              	.L258:
1740:Drivers/STM32F4xx_HAL_Driver/Src/stm32f4xx_ll_usb.c ****   {
1741:Drivers/STM32F4xx_HAL_Driver/Src/stm32f4xx_ll_usb.c ****     USBx_HC((uint32_t)ch_num)->HCCHAR |= USB_OTG_HCCHAR_ODDFRM ;
1742:Drivers/STM32F4xx_HAL_Driver/Src/stm32f4xx_ll_usb.c ****   }
1743:Drivers/STM32F4xx_HAL_Driver/Src/stm32f4xx_ll_usb.c **** 
1744:Drivers/STM32F4xx_HAL_Driver/Src/stm32f4xx_ll_usb.c ****   return ret;
 4217              		.loc 1 1744 3 is_stmt 1 view .LVU1326
1745:Drivers/STM32F4xx_HAL_Driver/Src/stm32f4xx_ll_usb.c **** }
 4218              		.loc 1 1745 1 is_stmt 0 view .LVU1327
 4219 00c6 3846     		mov	r0, r7
 4220              	.LVL337:
 4221              		.loc 1 1745 1 view .LVU1328
 4222 00c8 BDE8F883 		pop	{r3, r4, r5, r6, r7, r8, r9, pc}
 4223              	.LVL338:
 4224              	.L268:
1684:Drivers/STM32F4xx_HAL_Driver/Src/stm32f4xx_ll_usb.c ****       }
 4225              		.loc 1 1684 9 is_stmt 1 view .LVU1329
1684:Drivers/STM32F4xx_HAL_Driver/Src/stm32f4xx_ll_usb.c ****       }
 4226              		.loc 1 1684 45 is_stmt 0 view .LVU1330
 4227 00cc DA68     		ldr	r2, [r3, #12]
 4228 00ce 42F48072 		orr	r2, r2, #256
 4229 00d2 DA60     		str	r2, [r3, #12]
1638:Drivers/STM32F4xx_HAL_Driver/Src/stm32f4xx_ll_usb.c ****   uint32_t USBx_BASE = (uint32_t)USBx;
 4230              		.loc 1 1638 21 view .LVU1331
 4231 00d4 0027     		movs	r7, #0
 4232 00d6 C3E7     		b	.L250
 4233              	.L254:
1690:Drivers/STM32F4xx_HAL_Driver/Src/stm32f4xx_ll_usb.c ****                                             USB_OTG_HCINTMSK_ACKM   |
 4234              		.loc 1 1690 7 is_stmt 1 view .LVU1332
1690:Drivers/STM32F4xx_HAL_Driver/Src/stm32f4xx_ll_usb.c ****                                             USB_OTG_HCINTMSK_ACKM   |
ARM GAS  /tmp/ccSVR7EX.s 			page 124


 4235              		.loc 1 1690 43 is_stmt 0 view .LVU1333
 4236 00d8 40F22522 		movw	r2, #549
 4237 00dc DA60     		str	r2, [r3, #12]
1695:Drivers/STM32F4xx_HAL_Driver/Src/stm32f4xx_ll_usb.c ****       {
 4238              		.loc 1 1695 7 is_stmt 1 view .LVU1334
1695:Drivers/STM32F4xx_HAL_Driver/Src/stm32f4xx_ll_usb.c ****       {
 4239              		.loc 1 1695 10 is_stmt 0 view .LVU1335
 4240 00de 19F0800F 		tst	r9, #128
 4241 00e2 01D1     		bne	.L272
1638:Drivers/STM32F4xx_HAL_Driver/Src/stm32f4xx_ll_usb.c ****   uint32_t USBx_BASE = (uint32_t)USBx;
 4242              		.loc 1 1638 21 view .LVU1336
 4243 00e4 0027     		movs	r7, #0
 4244 00e6 BBE7     		b	.L250
 4245              	.L272:
1697:Drivers/STM32F4xx_HAL_Driver/Src/stm32f4xx_ll_usb.c ****       }
 4246              		.loc 1 1697 9 is_stmt 1 view .LVU1337
1697:Drivers/STM32F4xx_HAL_Driver/Src/stm32f4xx_ll_usb.c ****       }
 4247              		.loc 1 1697 45 is_stmt 0 view .LVU1338
 4248 00e8 DA68     		ldr	r2, [r3, #12]
 4249 00ea 42F4C072 		orr	r2, r2, #384
 4250 00ee DA60     		str	r2, [r3, #12]
1638:Drivers/STM32F4xx_HAL_Driver/Src/stm32f4xx_ll_usb.c ****   uint32_t USBx_BASE = (uint32_t)USBx;
 4251              		.loc 1 1638 21 view .LVU1339
 4252 00f0 0027     		movs	r7, #0
 4253 00f2 B5E7     		b	.L250
 4254              	.L259:
1645:Drivers/STM32F4xx_HAL_Driver/Src/stm32f4xx_ll_usb.c **** 
 4255              		.loc 1 1645 36 view .LVU1340
 4256 00f4 0127     		movs	r7, #1
 4257 00f6 B3E7     		b	.L250
 4258              	.L260:
1638:Drivers/STM32F4xx_HAL_Driver/Src/stm32f4xx_ll_usb.c ****   uint32_t USBx_BASE = (uint32_t)USBx;
 4259              		.loc 1 1638 21 view .LVU1341
 4260 00f8 0027     		movs	r7, #0
 4261 00fa B1E7     		b	.L250
 4262              	.LVL339:
 4263              	.L269:
1715:Drivers/STM32F4xx_HAL_Driver/Src/stm32f4xx_ll_usb.c ****   }
 4264              		.loc 1 1715 17 view .LVU1342
 4265 00fc 4FF40048 		mov	r8, #32768
 4266 0100 C1E7     		b	.L256
 4267              	.LVL340:
 4268              	.L270:
1725:Drivers/STM32F4xx_HAL_Driver/Src/stm32f4xx_ll_usb.c ****   {
 4269              		.loc 1 1725 41 discriminator 1 view .LVU1343
 4270 0102 0228     		cmp	r0, #2
 4271 0104 02D0     		beq	.L273
1727:Drivers/STM32F4xx_HAL_Driver/Src/stm32f4xx_ll_usb.c ****   }
 4272              		.loc 1 1727 20 view .LVU1344
 4273 0106 4FF40031 		mov	r1, #131072
 4274 010a C3E7     		b	.L257
 4275              	.L273:
1731:Drivers/STM32F4xx_HAL_Driver/Src/stm32f4xx_ll_usb.c ****   }
 4276              		.loc 1 1731 20 view .LVU1345
 4277 010c 0021     		movs	r1, #0
 4278 010e C1E7     		b	.L257
 4279              	.LVL341:
ARM GAS  /tmp/ccSVR7EX.s 			page 125


 4280              	.L271:
1741:Drivers/STM32F4xx_HAL_Driver/Src/stm32f4xx_ll_usb.c ****   }
 4281              		.loc 1 1741 5 is_stmt 1 view .LVU1346
1741:Drivers/STM32F4xx_HAL_Driver/Src/stm32f4xx_ll_usb.c ****   }
 4282              		.loc 1 1741 39 is_stmt 0 view .LVU1347
 4283 0110 D6F80035 		ldr	r3, [r6, #1280]
 4284 0114 43F00053 		orr	r3, r3, #536870912
 4285 0118 C6F80035 		str	r3, [r6, #1280]
 4286 011c D3E7     		b	.L258
 4287              		.cfi_endproc
 4288              	.LFE170:
 4290              		.section	.text.USB_HC_ReadInterrupt,"ax",%progbits
 4291              		.align	1
 4292              		.global	USB_HC_ReadInterrupt
 4293              		.syntax unified
 4294              		.thumb
 4295              		.thumb_func
 4296              		.fpu fpv4-sp-d16
 4298              	USB_HC_ReadInterrupt:
 4299              	.LVL342:
 4300              	.LFB172:
1746:Drivers/STM32F4xx_HAL_Driver/Src/stm32f4xx_ll_usb.c **** 
1747:Drivers/STM32F4xx_HAL_Driver/Src/stm32f4xx_ll_usb.c **** /**
1748:Drivers/STM32F4xx_HAL_Driver/Src/stm32f4xx_ll_usb.c ****   * @brief  Start a transfer over a host channel
1749:Drivers/STM32F4xx_HAL_Driver/Src/stm32f4xx_ll_usb.c ****   * @param  USBx  Selected device
1750:Drivers/STM32F4xx_HAL_Driver/Src/stm32f4xx_ll_usb.c ****   * @param  hc  pointer to host channel structure
1751:Drivers/STM32F4xx_HAL_Driver/Src/stm32f4xx_ll_usb.c ****   * @param  dma USB dma enabled or disabled
1752:Drivers/STM32F4xx_HAL_Driver/Src/stm32f4xx_ll_usb.c ****   *          This parameter can be one of these values:
1753:Drivers/STM32F4xx_HAL_Driver/Src/stm32f4xx_ll_usb.c ****   *           0 : DMA feature not used
1754:Drivers/STM32F4xx_HAL_Driver/Src/stm32f4xx_ll_usb.c ****   *           1 : DMA feature used
1755:Drivers/STM32F4xx_HAL_Driver/Src/stm32f4xx_ll_usb.c ****   * @retval HAL state
1756:Drivers/STM32F4xx_HAL_Driver/Src/stm32f4xx_ll_usb.c ****   */
1757:Drivers/STM32F4xx_HAL_Driver/Src/stm32f4xx_ll_usb.c **** HAL_StatusTypeDef USB_HC_StartXfer(USB_OTG_GlobalTypeDef *USBx, USB_OTG_HCTypeDef *hc, uint8_t dma)
1758:Drivers/STM32F4xx_HAL_Driver/Src/stm32f4xx_ll_usb.c **** {
1759:Drivers/STM32F4xx_HAL_Driver/Src/stm32f4xx_ll_usb.c ****   uint32_t USBx_BASE = (uint32_t)USBx;
1760:Drivers/STM32F4xx_HAL_Driver/Src/stm32f4xx_ll_usb.c ****   uint32_t ch_num = (uint32_t)hc->ch_num;
1761:Drivers/STM32F4xx_HAL_Driver/Src/stm32f4xx_ll_usb.c ****   __IO uint32_t tmpreg;
1762:Drivers/STM32F4xx_HAL_Driver/Src/stm32f4xx_ll_usb.c ****   uint8_t  is_oddframe;
1763:Drivers/STM32F4xx_HAL_Driver/Src/stm32f4xx_ll_usb.c ****   uint16_t len_words;
1764:Drivers/STM32F4xx_HAL_Driver/Src/stm32f4xx_ll_usb.c ****   uint16_t num_packets;
1765:Drivers/STM32F4xx_HAL_Driver/Src/stm32f4xx_ll_usb.c ****   uint16_t max_hc_pkt_count = 256U;
1766:Drivers/STM32F4xx_HAL_Driver/Src/stm32f4xx_ll_usb.c **** 
1767:Drivers/STM32F4xx_HAL_Driver/Src/stm32f4xx_ll_usb.c ****   if (((USBx->CID & (0x1U << 8)) != 0U) && (hc->speed == USBH_HS_SPEED))
1768:Drivers/STM32F4xx_HAL_Driver/Src/stm32f4xx_ll_usb.c ****   {
1769:Drivers/STM32F4xx_HAL_Driver/Src/stm32f4xx_ll_usb.c ****     /* in DMA mode host Core automatically issues ping  in case of NYET/NAK */
1770:Drivers/STM32F4xx_HAL_Driver/Src/stm32f4xx_ll_usb.c ****     if ((dma == 1U) && ((hc->ep_type == EP_TYPE_CTRL) || (hc->ep_type == EP_TYPE_BULK)))
1771:Drivers/STM32F4xx_HAL_Driver/Src/stm32f4xx_ll_usb.c ****     {
1772:Drivers/STM32F4xx_HAL_Driver/Src/stm32f4xx_ll_usb.c ****       USBx_HC((uint32_t)ch_num)->HCINTMSK &= ~(USB_OTG_HCINTMSK_NYET |
1773:Drivers/STM32F4xx_HAL_Driver/Src/stm32f4xx_ll_usb.c ****                                                USB_OTG_HCINTMSK_ACKM |
1774:Drivers/STM32F4xx_HAL_Driver/Src/stm32f4xx_ll_usb.c ****                                                USB_OTG_HCINTMSK_NAKM);
1775:Drivers/STM32F4xx_HAL_Driver/Src/stm32f4xx_ll_usb.c ****     }
1776:Drivers/STM32F4xx_HAL_Driver/Src/stm32f4xx_ll_usb.c **** 
1777:Drivers/STM32F4xx_HAL_Driver/Src/stm32f4xx_ll_usb.c ****     if ((dma == 0U) && (hc->do_ping == 1U))
1778:Drivers/STM32F4xx_HAL_Driver/Src/stm32f4xx_ll_usb.c ****     {
1779:Drivers/STM32F4xx_HAL_Driver/Src/stm32f4xx_ll_usb.c ****       (void)USB_DoPing(USBx, hc->ch_num);
1780:Drivers/STM32F4xx_HAL_Driver/Src/stm32f4xx_ll_usb.c ****       return HAL_OK;
1781:Drivers/STM32F4xx_HAL_Driver/Src/stm32f4xx_ll_usb.c ****     }
ARM GAS  /tmp/ccSVR7EX.s 			page 126


1782:Drivers/STM32F4xx_HAL_Driver/Src/stm32f4xx_ll_usb.c **** 
1783:Drivers/STM32F4xx_HAL_Driver/Src/stm32f4xx_ll_usb.c ****   }
1784:Drivers/STM32F4xx_HAL_Driver/Src/stm32f4xx_ll_usb.c **** 
1785:Drivers/STM32F4xx_HAL_Driver/Src/stm32f4xx_ll_usb.c ****   /* Compute the expected number of packets associated to the transfer */
1786:Drivers/STM32F4xx_HAL_Driver/Src/stm32f4xx_ll_usb.c ****   if (hc->xfer_len > 0U)
1787:Drivers/STM32F4xx_HAL_Driver/Src/stm32f4xx_ll_usb.c ****   {
1788:Drivers/STM32F4xx_HAL_Driver/Src/stm32f4xx_ll_usb.c ****     num_packets = (uint16_t)((hc->xfer_len + hc->max_packet - 1U) / hc->max_packet);
1789:Drivers/STM32F4xx_HAL_Driver/Src/stm32f4xx_ll_usb.c **** 
1790:Drivers/STM32F4xx_HAL_Driver/Src/stm32f4xx_ll_usb.c ****     if (num_packets > max_hc_pkt_count)
1791:Drivers/STM32F4xx_HAL_Driver/Src/stm32f4xx_ll_usb.c ****     {
1792:Drivers/STM32F4xx_HAL_Driver/Src/stm32f4xx_ll_usb.c ****       num_packets = max_hc_pkt_count;
1793:Drivers/STM32F4xx_HAL_Driver/Src/stm32f4xx_ll_usb.c ****       hc->XferSize = (uint32_t)num_packets * hc->max_packet;
1794:Drivers/STM32F4xx_HAL_Driver/Src/stm32f4xx_ll_usb.c ****     }
1795:Drivers/STM32F4xx_HAL_Driver/Src/stm32f4xx_ll_usb.c ****   }
1796:Drivers/STM32F4xx_HAL_Driver/Src/stm32f4xx_ll_usb.c ****   else
1797:Drivers/STM32F4xx_HAL_Driver/Src/stm32f4xx_ll_usb.c ****   {
1798:Drivers/STM32F4xx_HAL_Driver/Src/stm32f4xx_ll_usb.c ****     num_packets = 1U;
1799:Drivers/STM32F4xx_HAL_Driver/Src/stm32f4xx_ll_usb.c ****   }
1800:Drivers/STM32F4xx_HAL_Driver/Src/stm32f4xx_ll_usb.c **** 
1801:Drivers/STM32F4xx_HAL_Driver/Src/stm32f4xx_ll_usb.c ****   /*
1802:Drivers/STM32F4xx_HAL_Driver/Src/stm32f4xx_ll_usb.c ****    * For IN channel HCTSIZ.XferSize is expected to be an integer multiple of
1803:Drivers/STM32F4xx_HAL_Driver/Src/stm32f4xx_ll_usb.c ****    * max_packet size.
1804:Drivers/STM32F4xx_HAL_Driver/Src/stm32f4xx_ll_usb.c ****    */
1805:Drivers/STM32F4xx_HAL_Driver/Src/stm32f4xx_ll_usb.c ****   if (hc->ep_is_in != 0U)
1806:Drivers/STM32F4xx_HAL_Driver/Src/stm32f4xx_ll_usb.c ****   {
1807:Drivers/STM32F4xx_HAL_Driver/Src/stm32f4xx_ll_usb.c ****     hc->XferSize = (uint32_t)num_packets * hc->max_packet;
1808:Drivers/STM32F4xx_HAL_Driver/Src/stm32f4xx_ll_usb.c ****   }
1809:Drivers/STM32F4xx_HAL_Driver/Src/stm32f4xx_ll_usb.c ****   else
1810:Drivers/STM32F4xx_HAL_Driver/Src/stm32f4xx_ll_usb.c ****   {
1811:Drivers/STM32F4xx_HAL_Driver/Src/stm32f4xx_ll_usb.c ****     hc->XferSize = hc->xfer_len;
1812:Drivers/STM32F4xx_HAL_Driver/Src/stm32f4xx_ll_usb.c ****   }
1813:Drivers/STM32F4xx_HAL_Driver/Src/stm32f4xx_ll_usb.c **** 
1814:Drivers/STM32F4xx_HAL_Driver/Src/stm32f4xx_ll_usb.c ****   /* Initialize the HCTSIZn register */
1815:Drivers/STM32F4xx_HAL_Driver/Src/stm32f4xx_ll_usb.c ****   USBx_HC(ch_num)->HCTSIZ = (hc->XferSize & USB_OTG_HCTSIZ_XFRSIZ) |
1816:Drivers/STM32F4xx_HAL_Driver/Src/stm32f4xx_ll_usb.c ****                             (((uint32_t)num_packets << 19) & USB_OTG_HCTSIZ_PKTCNT) |
1817:Drivers/STM32F4xx_HAL_Driver/Src/stm32f4xx_ll_usb.c ****                             (((uint32_t)hc->data_pid << 29) & USB_OTG_HCTSIZ_DPID);
1818:Drivers/STM32F4xx_HAL_Driver/Src/stm32f4xx_ll_usb.c **** 
1819:Drivers/STM32F4xx_HAL_Driver/Src/stm32f4xx_ll_usb.c ****   if (dma != 0U)
1820:Drivers/STM32F4xx_HAL_Driver/Src/stm32f4xx_ll_usb.c ****   {
1821:Drivers/STM32F4xx_HAL_Driver/Src/stm32f4xx_ll_usb.c ****     /* xfer_buff MUST be 32-bits aligned */
1822:Drivers/STM32F4xx_HAL_Driver/Src/stm32f4xx_ll_usb.c ****     USBx_HC(ch_num)->HCDMA = (uint32_t)hc->xfer_buff;
1823:Drivers/STM32F4xx_HAL_Driver/Src/stm32f4xx_ll_usb.c ****   }
1824:Drivers/STM32F4xx_HAL_Driver/Src/stm32f4xx_ll_usb.c **** 
1825:Drivers/STM32F4xx_HAL_Driver/Src/stm32f4xx_ll_usb.c ****   is_oddframe = (((uint32_t)USBx_HOST->HFNUM & 0x01U) != 0U) ? 0U : 1U;
1826:Drivers/STM32F4xx_HAL_Driver/Src/stm32f4xx_ll_usb.c ****   USBx_HC(ch_num)->HCCHAR &= ~USB_OTG_HCCHAR_ODDFRM;
1827:Drivers/STM32F4xx_HAL_Driver/Src/stm32f4xx_ll_usb.c ****   USBx_HC(ch_num)->HCCHAR |= (uint32_t)is_oddframe << 29;
1828:Drivers/STM32F4xx_HAL_Driver/Src/stm32f4xx_ll_usb.c **** 
1829:Drivers/STM32F4xx_HAL_Driver/Src/stm32f4xx_ll_usb.c ****   /* Set host channel enable */
1830:Drivers/STM32F4xx_HAL_Driver/Src/stm32f4xx_ll_usb.c ****   tmpreg = USBx_HC(ch_num)->HCCHAR;
1831:Drivers/STM32F4xx_HAL_Driver/Src/stm32f4xx_ll_usb.c ****   tmpreg &= ~USB_OTG_HCCHAR_CHDIS;
1832:Drivers/STM32F4xx_HAL_Driver/Src/stm32f4xx_ll_usb.c **** 
1833:Drivers/STM32F4xx_HAL_Driver/Src/stm32f4xx_ll_usb.c ****   /* make sure to set the correct ep direction */
1834:Drivers/STM32F4xx_HAL_Driver/Src/stm32f4xx_ll_usb.c ****   if (hc->ep_is_in != 0U)
1835:Drivers/STM32F4xx_HAL_Driver/Src/stm32f4xx_ll_usb.c ****   {
1836:Drivers/STM32F4xx_HAL_Driver/Src/stm32f4xx_ll_usb.c ****     tmpreg |= USB_OTG_HCCHAR_EPDIR;
1837:Drivers/STM32F4xx_HAL_Driver/Src/stm32f4xx_ll_usb.c ****   }
1838:Drivers/STM32F4xx_HAL_Driver/Src/stm32f4xx_ll_usb.c ****   else
ARM GAS  /tmp/ccSVR7EX.s 			page 127


1839:Drivers/STM32F4xx_HAL_Driver/Src/stm32f4xx_ll_usb.c ****   {
1840:Drivers/STM32F4xx_HAL_Driver/Src/stm32f4xx_ll_usb.c ****     tmpreg &= ~USB_OTG_HCCHAR_EPDIR;
1841:Drivers/STM32F4xx_HAL_Driver/Src/stm32f4xx_ll_usb.c ****   }
1842:Drivers/STM32F4xx_HAL_Driver/Src/stm32f4xx_ll_usb.c ****   tmpreg |= USB_OTG_HCCHAR_CHENA;
1843:Drivers/STM32F4xx_HAL_Driver/Src/stm32f4xx_ll_usb.c ****   USBx_HC(ch_num)->HCCHAR = tmpreg;
1844:Drivers/STM32F4xx_HAL_Driver/Src/stm32f4xx_ll_usb.c **** 
1845:Drivers/STM32F4xx_HAL_Driver/Src/stm32f4xx_ll_usb.c ****   if (dma != 0U) /* dma mode */
1846:Drivers/STM32F4xx_HAL_Driver/Src/stm32f4xx_ll_usb.c ****   {
1847:Drivers/STM32F4xx_HAL_Driver/Src/stm32f4xx_ll_usb.c ****     return HAL_OK;
1848:Drivers/STM32F4xx_HAL_Driver/Src/stm32f4xx_ll_usb.c ****   }
1849:Drivers/STM32F4xx_HAL_Driver/Src/stm32f4xx_ll_usb.c **** 
1850:Drivers/STM32F4xx_HAL_Driver/Src/stm32f4xx_ll_usb.c ****   if ((hc->ep_is_in == 0U) && (hc->xfer_len > 0U))
1851:Drivers/STM32F4xx_HAL_Driver/Src/stm32f4xx_ll_usb.c ****   {
1852:Drivers/STM32F4xx_HAL_Driver/Src/stm32f4xx_ll_usb.c ****     switch (hc->ep_type)
1853:Drivers/STM32F4xx_HAL_Driver/Src/stm32f4xx_ll_usb.c ****     {
1854:Drivers/STM32F4xx_HAL_Driver/Src/stm32f4xx_ll_usb.c ****       /* Non periodic transfer */
1855:Drivers/STM32F4xx_HAL_Driver/Src/stm32f4xx_ll_usb.c ****       case EP_TYPE_CTRL:
1856:Drivers/STM32F4xx_HAL_Driver/Src/stm32f4xx_ll_usb.c ****       case EP_TYPE_BULK:
1857:Drivers/STM32F4xx_HAL_Driver/Src/stm32f4xx_ll_usb.c **** 
1858:Drivers/STM32F4xx_HAL_Driver/Src/stm32f4xx_ll_usb.c ****         len_words = (uint16_t)((hc->xfer_len + 3U) / 4U);
1859:Drivers/STM32F4xx_HAL_Driver/Src/stm32f4xx_ll_usb.c **** 
1860:Drivers/STM32F4xx_HAL_Driver/Src/stm32f4xx_ll_usb.c ****         /* check if there is enough space in FIFO space */
1861:Drivers/STM32F4xx_HAL_Driver/Src/stm32f4xx_ll_usb.c ****         if (len_words > (USBx->HNPTXSTS & 0xFFFFU))
1862:Drivers/STM32F4xx_HAL_Driver/Src/stm32f4xx_ll_usb.c ****         {
1863:Drivers/STM32F4xx_HAL_Driver/Src/stm32f4xx_ll_usb.c ****           /* need to process data in nptxfempty interrupt */
1864:Drivers/STM32F4xx_HAL_Driver/Src/stm32f4xx_ll_usb.c ****           USBx->GINTMSK |= USB_OTG_GINTMSK_NPTXFEM;
1865:Drivers/STM32F4xx_HAL_Driver/Src/stm32f4xx_ll_usb.c ****         }
1866:Drivers/STM32F4xx_HAL_Driver/Src/stm32f4xx_ll_usb.c ****         break;
1867:Drivers/STM32F4xx_HAL_Driver/Src/stm32f4xx_ll_usb.c **** 
1868:Drivers/STM32F4xx_HAL_Driver/Src/stm32f4xx_ll_usb.c ****       /* Periodic transfer */
1869:Drivers/STM32F4xx_HAL_Driver/Src/stm32f4xx_ll_usb.c ****       case EP_TYPE_INTR:
1870:Drivers/STM32F4xx_HAL_Driver/Src/stm32f4xx_ll_usb.c ****       case EP_TYPE_ISOC:
1871:Drivers/STM32F4xx_HAL_Driver/Src/stm32f4xx_ll_usb.c ****         len_words = (uint16_t)((hc->xfer_len + 3U) / 4U);
1872:Drivers/STM32F4xx_HAL_Driver/Src/stm32f4xx_ll_usb.c ****         /* check if there is enough space in FIFO space */
1873:Drivers/STM32F4xx_HAL_Driver/Src/stm32f4xx_ll_usb.c ****         if (len_words > (USBx_HOST->HPTXSTS & 0xFFFFU)) /* split the transfer */
1874:Drivers/STM32F4xx_HAL_Driver/Src/stm32f4xx_ll_usb.c ****         {
1875:Drivers/STM32F4xx_HAL_Driver/Src/stm32f4xx_ll_usb.c ****           /* need to process data in ptxfempty interrupt */
1876:Drivers/STM32F4xx_HAL_Driver/Src/stm32f4xx_ll_usb.c ****           USBx->GINTMSK |= USB_OTG_GINTMSK_PTXFEM;
1877:Drivers/STM32F4xx_HAL_Driver/Src/stm32f4xx_ll_usb.c ****         }
1878:Drivers/STM32F4xx_HAL_Driver/Src/stm32f4xx_ll_usb.c ****         break;
1879:Drivers/STM32F4xx_HAL_Driver/Src/stm32f4xx_ll_usb.c **** 
1880:Drivers/STM32F4xx_HAL_Driver/Src/stm32f4xx_ll_usb.c ****       default:
1881:Drivers/STM32F4xx_HAL_Driver/Src/stm32f4xx_ll_usb.c ****         break;
1882:Drivers/STM32F4xx_HAL_Driver/Src/stm32f4xx_ll_usb.c ****     }
1883:Drivers/STM32F4xx_HAL_Driver/Src/stm32f4xx_ll_usb.c **** 
1884:Drivers/STM32F4xx_HAL_Driver/Src/stm32f4xx_ll_usb.c ****     /* Write packet into the Tx FIFO. */
1885:Drivers/STM32F4xx_HAL_Driver/Src/stm32f4xx_ll_usb.c ****     (void)USB_WritePacket(USBx, hc->xfer_buff, hc->ch_num, (uint16_t)hc->xfer_len, 0);
1886:Drivers/STM32F4xx_HAL_Driver/Src/stm32f4xx_ll_usb.c ****   }
1887:Drivers/STM32F4xx_HAL_Driver/Src/stm32f4xx_ll_usb.c **** 
1888:Drivers/STM32F4xx_HAL_Driver/Src/stm32f4xx_ll_usb.c ****   return HAL_OK;
1889:Drivers/STM32F4xx_HAL_Driver/Src/stm32f4xx_ll_usb.c **** }
1890:Drivers/STM32F4xx_HAL_Driver/Src/stm32f4xx_ll_usb.c **** 
1891:Drivers/STM32F4xx_HAL_Driver/Src/stm32f4xx_ll_usb.c **** /**
1892:Drivers/STM32F4xx_HAL_Driver/Src/stm32f4xx_ll_usb.c ****   * @brief Read all host channel interrupts status
1893:Drivers/STM32F4xx_HAL_Driver/Src/stm32f4xx_ll_usb.c ****   * @param  USBx  Selected device
1894:Drivers/STM32F4xx_HAL_Driver/Src/stm32f4xx_ll_usb.c ****   * @retval HAL state
1895:Drivers/STM32F4xx_HAL_Driver/Src/stm32f4xx_ll_usb.c ****   */
ARM GAS  /tmp/ccSVR7EX.s 			page 128


1896:Drivers/STM32F4xx_HAL_Driver/Src/stm32f4xx_ll_usb.c **** uint32_t USB_HC_ReadInterrupt(USB_OTG_GlobalTypeDef *USBx)
1897:Drivers/STM32F4xx_HAL_Driver/Src/stm32f4xx_ll_usb.c **** {
 4301              		.loc 1 1897 1 is_stmt 1 view -0
 4302              		.cfi_startproc
 4303              		@ args = 0, pretend = 0, frame = 0
 4304              		@ frame_needed = 0, uses_anonymous_args = 0
 4305              		@ link register save eliminated.
1898:Drivers/STM32F4xx_HAL_Driver/Src/stm32f4xx_ll_usb.c ****   uint32_t USBx_BASE = (uint32_t)USBx;
 4306              		.loc 1 1898 3 view .LVU1349
1899:Drivers/STM32F4xx_HAL_Driver/Src/stm32f4xx_ll_usb.c **** 
1900:Drivers/STM32F4xx_HAL_Driver/Src/stm32f4xx_ll_usb.c ****   return ((USBx_HOST->HAINT) & 0xFFFFU);
 4307              		.loc 1 1900 3 view .LVU1350
 4308              		.loc 1 1900 12 is_stmt 0 view .LVU1351
 4309 0000 00F58060 		add	r0, r0, #1024
 4310              	.LVL343:
 4311              		.loc 1 1900 21 view .LVU1352
 4312 0004 4069     		ldr	r0, [r0, #20]
 4313              	.LVL344:
1901:Drivers/STM32F4xx_HAL_Driver/Src/stm32f4xx_ll_usb.c **** }
 4314              		.loc 1 1901 1 view .LVU1353
 4315 0006 80B2     		uxth	r0, r0
 4316 0008 7047     		bx	lr
 4317              		.cfi_endproc
 4318              	.LFE172:
 4320              		.section	.text.USB_HC_Halt,"ax",%progbits
 4321              		.align	1
 4322              		.global	USB_HC_Halt
 4323              		.syntax unified
 4324              		.thumb
 4325              		.thumb_func
 4326              		.fpu fpv4-sp-d16
 4328              	USB_HC_Halt:
 4329              	.LVL345:
 4330              	.LFB173:
1902:Drivers/STM32F4xx_HAL_Driver/Src/stm32f4xx_ll_usb.c **** 
1903:Drivers/STM32F4xx_HAL_Driver/Src/stm32f4xx_ll_usb.c **** /**
1904:Drivers/STM32F4xx_HAL_Driver/Src/stm32f4xx_ll_usb.c ****   * @brief  Halt a host channel
1905:Drivers/STM32F4xx_HAL_Driver/Src/stm32f4xx_ll_usb.c ****   * @param  USBx  Selected device
1906:Drivers/STM32F4xx_HAL_Driver/Src/stm32f4xx_ll_usb.c ****   * @param  hc_num  Host Channel number
1907:Drivers/STM32F4xx_HAL_Driver/Src/stm32f4xx_ll_usb.c ****   *         This parameter can be a value from 1 to 15
1908:Drivers/STM32F4xx_HAL_Driver/Src/stm32f4xx_ll_usb.c ****   * @retval HAL state
1909:Drivers/STM32F4xx_HAL_Driver/Src/stm32f4xx_ll_usb.c ****   */
1910:Drivers/STM32F4xx_HAL_Driver/Src/stm32f4xx_ll_usb.c **** HAL_StatusTypeDef USB_HC_Halt(USB_OTG_GlobalTypeDef *USBx, uint8_t hc_num)
1911:Drivers/STM32F4xx_HAL_Driver/Src/stm32f4xx_ll_usb.c **** {
 4331              		.loc 1 1911 1 is_stmt 1 view -0
 4332              		.cfi_startproc
 4333              		@ args = 0, pretend = 0, frame = 0
 4334              		@ frame_needed = 0, uses_anonymous_args = 0
 4335              		@ link register save eliminated.
 4336              		.loc 1 1911 1 is_stmt 0 view .LVU1355
 4337 0000 30B4     		push	{r4, r5}
 4338              	.LCFI63:
 4339              		.cfi_def_cfa_offset 8
 4340              		.cfi_offset 4, -8
 4341              		.cfi_offset 5, -4
1912:Drivers/STM32F4xx_HAL_Driver/Src/stm32f4xx_ll_usb.c ****   uint32_t USBx_BASE = (uint32_t)USBx;
 4342              		.loc 1 1912 3 is_stmt 1 view .LVU1356
ARM GAS  /tmp/ccSVR7EX.s 			page 129


 4343              	.LVL346:
1913:Drivers/STM32F4xx_HAL_Driver/Src/stm32f4xx_ll_usb.c ****   uint32_t hcnum = (uint32_t)hc_num;
 4344              		.loc 1 1913 3 view .LVU1357
1914:Drivers/STM32F4xx_HAL_Driver/Src/stm32f4xx_ll_usb.c ****   uint32_t count = 0U;
 4345              		.loc 1 1914 3 view .LVU1358
1915:Drivers/STM32F4xx_HAL_Driver/Src/stm32f4xx_ll_usb.c ****   uint32_t HcEpType = (USBx_HC(hcnum)->HCCHAR & USB_OTG_HCCHAR_EPTYP) >> 18;
 4346              		.loc 1 1915 3 view .LVU1359
 4347              		.loc 1 1915 24 is_stmt 0 view .LVU1360
 4348 0002 00EB4111 		add	r1, r0, r1, lsl #5
 4349              	.LVL347:
 4350              		.loc 1 1915 24 view .LVU1361
 4351 0006 01F5A062 		add	r2, r1, #1280
 4352              		.loc 1 1915 38 view .LVU1362
 4353 000a D1F80035 		ldr	r3, [r1, #1280]
 4354              		.loc 1 1915 12 view .LVU1363
 4355 000e C3F38143 		ubfx	r3, r3, #18, #2
 4356              	.LVL348:
1916:Drivers/STM32F4xx_HAL_Driver/Src/stm32f4xx_ll_usb.c ****   uint32_t ChannelEna = (USBx_HC(hcnum)->HCCHAR & USB_OTG_HCCHAR_CHENA) >> 31;
 4357              		.loc 1 1916 3 is_stmt 1 view .LVU1364
 4358              		.loc 1 1916 40 is_stmt 0 view .LVU1365
 4359 0012 D1F80045 		ldr	r4, [r1, #1280]
 4360              	.LVL349:
1917:Drivers/STM32F4xx_HAL_Driver/Src/stm32f4xx_ll_usb.c **** 
1918:Drivers/STM32F4xx_HAL_Driver/Src/stm32f4xx_ll_usb.c ****   if (((USBx->GAHBCFG & USB_OTG_GAHBCFG_DMAEN) == USB_OTG_GAHBCFG_DMAEN) &&
 4361              		.loc 1 1918 3 is_stmt 1 view .LVU1366
 4362              		.loc 1 1918 13 is_stmt 0 view .LVU1367
 4363 0016 8568     		ldr	r5, [r0, #8]
 4364              		.loc 1 1918 6 view .LVU1368
 4365 0018 15F0200F 		tst	r5, #32
 4366 001c 02D0     		beq	.L276
 4367 001e E40F     		lsrs	r4, r4, #31
 4368              	.LVL350:
 4369              		.loc 1 1918 74 discriminator 1 view .LVU1369
 4370 0020 002C     		cmp	r4, #0
 4371 0022 55D0     		beq	.L277
 4372              	.LVL351:
 4373              	.L276:
1919:Drivers/STM32F4xx_HAL_Driver/Src/stm32f4xx_ll_usb.c ****       (ChannelEna == 0U))
1920:Drivers/STM32F4xx_HAL_Driver/Src/stm32f4xx_ll_usb.c ****   {
1921:Drivers/STM32F4xx_HAL_Driver/Src/stm32f4xx_ll_usb.c ****     return HAL_OK;
1922:Drivers/STM32F4xx_HAL_Driver/Src/stm32f4xx_ll_usb.c ****   }
1923:Drivers/STM32F4xx_HAL_Driver/Src/stm32f4xx_ll_usb.c **** 
1924:Drivers/STM32F4xx_HAL_Driver/Src/stm32f4xx_ll_usb.c ****   /* Check for space in the request queue to issue the halt. */
1925:Drivers/STM32F4xx_HAL_Driver/Src/stm32f4xx_ll_usb.c ****   if ((HcEpType == HCCHAR_CTRL) || (HcEpType == HCCHAR_BULK))
 4374              		.loc 1 1925 3 is_stmt 1 view .LVU1370
 4375              		.loc 1 1925 6 is_stmt 0 view .LVU1371
 4376 0024 33B3     		cbz	r3, .L278
 4377              		.loc 1 1925 33 discriminator 1 view .LVU1372
 4378 0026 022B     		cmp	r3, #2
 4379 0028 24D0     		beq	.L278
1926:Drivers/STM32F4xx_HAL_Driver/Src/stm32f4xx_ll_usb.c ****   {
1927:Drivers/STM32F4xx_HAL_Driver/Src/stm32f4xx_ll_usb.c ****     USBx_HC(hcnum)->HCCHAR |= USB_OTG_HCCHAR_CHDIS;
1928:Drivers/STM32F4xx_HAL_Driver/Src/stm32f4xx_ll_usb.c **** 
1929:Drivers/STM32F4xx_HAL_Driver/Src/stm32f4xx_ll_usb.c ****     if ((USBx->GAHBCFG & USB_OTG_GAHBCFG_DMAEN) == 0U)
1930:Drivers/STM32F4xx_HAL_Driver/Src/stm32f4xx_ll_usb.c ****     {
1931:Drivers/STM32F4xx_HAL_Driver/Src/stm32f4xx_ll_usb.c ****       if ((USBx->HNPTXSTS & (0xFFU << 16)) == 0U)
1932:Drivers/STM32F4xx_HAL_Driver/Src/stm32f4xx_ll_usb.c ****       {
ARM GAS  /tmp/ccSVR7EX.s 			page 130


1933:Drivers/STM32F4xx_HAL_Driver/Src/stm32f4xx_ll_usb.c ****         USBx_HC(hcnum)->HCCHAR &= ~USB_OTG_HCCHAR_CHENA;
1934:Drivers/STM32F4xx_HAL_Driver/Src/stm32f4xx_ll_usb.c ****         USBx_HC(hcnum)->HCCHAR |= USB_OTG_HCCHAR_CHENA;
1935:Drivers/STM32F4xx_HAL_Driver/Src/stm32f4xx_ll_usb.c ****         USBx_HC(hcnum)->HCCHAR &= ~USB_OTG_HCCHAR_EPDIR;
1936:Drivers/STM32F4xx_HAL_Driver/Src/stm32f4xx_ll_usb.c ****         do
1937:Drivers/STM32F4xx_HAL_Driver/Src/stm32f4xx_ll_usb.c ****         {
1938:Drivers/STM32F4xx_HAL_Driver/Src/stm32f4xx_ll_usb.c ****           if (++count > 1000U)
1939:Drivers/STM32F4xx_HAL_Driver/Src/stm32f4xx_ll_usb.c ****           {
1940:Drivers/STM32F4xx_HAL_Driver/Src/stm32f4xx_ll_usb.c ****             break;
1941:Drivers/STM32F4xx_HAL_Driver/Src/stm32f4xx_ll_usb.c ****           }
1942:Drivers/STM32F4xx_HAL_Driver/Src/stm32f4xx_ll_usb.c ****         } while ((USBx_HC(hcnum)->HCCHAR & USB_OTG_HCCHAR_CHENA) == USB_OTG_HCCHAR_CHENA);
1943:Drivers/STM32F4xx_HAL_Driver/Src/stm32f4xx_ll_usb.c ****       }
1944:Drivers/STM32F4xx_HAL_Driver/Src/stm32f4xx_ll_usb.c ****       else
1945:Drivers/STM32F4xx_HAL_Driver/Src/stm32f4xx_ll_usb.c ****       {
1946:Drivers/STM32F4xx_HAL_Driver/Src/stm32f4xx_ll_usb.c ****         USBx_HC(hcnum)->HCCHAR |= USB_OTG_HCCHAR_CHENA;
1947:Drivers/STM32F4xx_HAL_Driver/Src/stm32f4xx_ll_usb.c ****       }
1948:Drivers/STM32F4xx_HAL_Driver/Src/stm32f4xx_ll_usb.c ****     }
1949:Drivers/STM32F4xx_HAL_Driver/Src/stm32f4xx_ll_usb.c ****   }
1950:Drivers/STM32F4xx_HAL_Driver/Src/stm32f4xx_ll_usb.c ****   else
1951:Drivers/STM32F4xx_HAL_Driver/Src/stm32f4xx_ll_usb.c ****   {
1952:Drivers/STM32F4xx_HAL_Driver/Src/stm32f4xx_ll_usb.c ****     USBx_HC(hcnum)->HCCHAR |= USB_OTG_HCCHAR_CHDIS;
 4380              		.loc 1 1952 5 is_stmt 1 view .LVU1373
 4381              		.loc 1 1952 28 is_stmt 0 view .LVU1374
 4382 002a D1F80035 		ldr	r3, [r1, #1280]
 4383              	.LVL352:
 4384              		.loc 1 1952 28 view .LVU1375
 4385 002e 43F08043 		orr	r3, r3, #1073741824
 4386 0032 C1F80035 		str	r3, [r1, #1280]
1953:Drivers/STM32F4xx_HAL_Driver/Src/stm32f4xx_ll_usb.c **** 
1954:Drivers/STM32F4xx_HAL_Driver/Src/stm32f4xx_ll_usb.c ****     if ((USBx_HOST->HPTXSTS & (0xFFU << 16)) == 0U)
 4387              		.loc 1 1954 5 is_stmt 1 view .LVU1376
 4388              		.loc 1 1954 19 is_stmt 0 view .LVU1377
 4389 0036 D0F81034 		ldr	r3, [r0, #1040]
 4390              		.loc 1 1954 8 view .LVU1378
 4391 003a 13F47F03 		ands	r3, r3, #16711680
 4392 003e 4AD1     		bne	.L282
1955:Drivers/STM32F4xx_HAL_Driver/Src/stm32f4xx_ll_usb.c ****     {
1956:Drivers/STM32F4xx_HAL_Driver/Src/stm32f4xx_ll_usb.c ****       USBx_HC(hcnum)->HCCHAR &= ~USB_OTG_HCCHAR_CHENA;
 4393              		.loc 1 1956 7 is_stmt 1 view .LVU1379
 4394              		.loc 1 1956 30 is_stmt 0 view .LVU1380
 4395 0040 D1F80005 		ldr	r0, [r1, #1280]
 4396              	.LVL353:
 4397              		.loc 1 1956 30 view .LVU1381
 4398 0044 20F00040 		bic	r0, r0, #-2147483648
 4399 0048 C1F80005 		str	r0, [r1, #1280]
1957:Drivers/STM32F4xx_HAL_Driver/Src/stm32f4xx_ll_usb.c ****       USBx_HC(hcnum)->HCCHAR |= USB_OTG_HCCHAR_CHENA;
 4400              		.loc 1 1957 7 is_stmt 1 view .LVU1382
 4401              		.loc 1 1957 30 is_stmt 0 view .LVU1383
 4402 004c D1F80005 		ldr	r0, [r1, #1280]
 4403 0050 40F00040 		orr	r0, r0, #-2147483648
 4404 0054 C1F80005 		str	r0, [r1, #1280]
1958:Drivers/STM32F4xx_HAL_Driver/Src/stm32f4xx_ll_usb.c ****       USBx_HC(hcnum)->HCCHAR &= ~USB_OTG_HCCHAR_EPDIR;
 4405              		.loc 1 1958 7 is_stmt 1 view .LVU1384
 4406              		.loc 1 1958 30 is_stmt 0 view .LVU1385
 4407 0058 D1F80005 		ldr	r0, [r1, #1280]
 4408 005c 20F40040 		bic	r0, r0, #32768
 4409 0060 C1F80005 		str	r0, [r1, #1280]
 4410              	.LVL354:
ARM GAS  /tmp/ccSVR7EX.s 			page 131


 4411              	.L283:
1959:Drivers/STM32F4xx_HAL_Driver/Src/stm32f4xx_ll_usb.c ****       do
 4412              		.loc 1 1959 7 is_stmt 1 view .LVU1386
1960:Drivers/STM32F4xx_HAL_Driver/Src/stm32f4xx_ll_usb.c ****       {
1961:Drivers/STM32F4xx_HAL_Driver/Src/stm32f4xx_ll_usb.c ****         if (++count > 1000U)
 4413              		.loc 1 1961 9 view .LVU1387
 4414              		.loc 1 1961 12 is_stmt 0 view .LVU1388
 4415 0064 0133     		adds	r3, r3, #1
 4416              	.LVL355:
 4417              		.loc 1 1961 12 view .LVU1389
 4418 0066 B3F57A7F 		cmp	r3, #1000
 4419 006a 31D8     		bhi	.L277
1962:Drivers/STM32F4xx_HAL_Driver/Src/stm32f4xx_ll_usb.c ****         {
1963:Drivers/STM32F4xx_HAL_Driver/Src/stm32f4xx_ll_usb.c ****           break;
1964:Drivers/STM32F4xx_HAL_Driver/Src/stm32f4xx_ll_usb.c ****         }
1965:Drivers/STM32F4xx_HAL_Driver/Src/stm32f4xx_ll_usb.c ****       } while ((USBx_HC(hcnum)->HCCHAR & USB_OTG_HCCHAR_CHENA) == USB_OTG_HCCHAR_CHENA);
 4420              		.loc 1 1965 15 is_stmt 1 view .LVU1390
 4421              		.loc 1 1965 31 is_stmt 0 view .LVU1391
 4422 006c 1168     		ldr	r1, [r2]
 4423              		.loc 1 1965 7 view .LVU1392
 4424 006e 0029     		cmp	r1, #0
 4425 0070 F8DB     		blt	.L283
 4426 0072 2DE0     		b	.L277
 4427              	.LVL356:
 4428              	.L278:
1927:Drivers/STM32F4xx_HAL_Driver/Src/stm32f4xx_ll_usb.c **** 
 4429              		.loc 1 1927 5 is_stmt 1 view .LVU1393
1927:Drivers/STM32F4xx_HAL_Driver/Src/stm32f4xx_ll_usb.c **** 
 4430              		.loc 1 1927 28 is_stmt 0 view .LVU1394
 4431 0074 D1F80035 		ldr	r3, [r1, #1280]
 4432              	.LVL357:
1927:Drivers/STM32F4xx_HAL_Driver/Src/stm32f4xx_ll_usb.c **** 
 4433              		.loc 1 1927 28 view .LVU1395
 4434 0078 43F08043 		orr	r3, r3, #1073741824
 4435 007c C1F80035 		str	r3, [r1, #1280]
1929:Drivers/STM32F4xx_HAL_Driver/Src/stm32f4xx_ll_usb.c ****     {
 4436              		.loc 1 1929 5 is_stmt 1 view .LVU1396
1929:Drivers/STM32F4xx_HAL_Driver/Src/stm32f4xx_ll_usb.c ****     {
 4437              		.loc 1 1929 14 is_stmt 0 view .LVU1397
 4438 0080 8368     		ldr	r3, [r0, #8]
1929:Drivers/STM32F4xx_HAL_Driver/Src/stm32f4xx_ll_usb.c ****     {
 4439              		.loc 1 1929 8 view .LVU1398
 4440 0082 13F0200F 		tst	r3, #32
 4441 0086 23D1     		bne	.L277
1931:Drivers/STM32F4xx_HAL_Driver/Src/stm32f4xx_ll_usb.c ****       {
 4442              		.loc 1 1931 7 is_stmt 1 view .LVU1399
1931:Drivers/STM32F4xx_HAL_Driver/Src/stm32f4xx_ll_usb.c ****       {
 4443              		.loc 1 1931 16 is_stmt 0 view .LVU1400
 4444 0088 C36A     		ldr	r3, [r0, #44]
1931:Drivers/STM32F4xx_HAL_Driver/Src/stm32f4xx_ll_usb.c ****       {
 4445              		.loc 1 1931 10 view .LVU1401
 4446 008a 13F47F03 		ands	r3, r3, #16711680
 4447 008e 19D1     		bne	.L280
1933:Drivers/STM32F4xx_HAL_Driver/Src/stm32f4xx_ll_usb.c ****         USBx_HC(hcnum)->HCCHAR |= USB_OTG_HCCHAR_CHENA;
 4448              		.loc 1 1933 9 is_stmt 1 view .LVU1402
1933:Drivers/STM32F4xx_HAL_Driver/Src/stm32f4xx_ll_usb.c ****         USBx_HC(hcnum)->HCCHAR |= USB_OTG_HCCHAR_CHENA;
 4449              		.loc 1 1933 32 is_stmt 0 view .LVU1403
ARM GAS  /tmp/ccSVR7EX.s 			page 132


 4450 0090 D1F80005 		ldr	r0, [r1, #1280]
 4451              	.LVL358:
1933:Drivers/STM32F4xx_HAL_Driver/Src/stm32f4xx_ll_usb.c ****         USBx_HC(hcnum)->HCCHAR |= USB_OTG_HCCHAR_CHENA;
 4452              		.loc 1 1933 32 view .LVU1404
 4453 0094 20F00040 		bic	r0, r0, #-2147483648
 4454 0098 C1F80005 		str	r0, [r1, #1280]
1934:Drivers/STM32F4xx_HAL_Driver/Src/stm32f4xx_ll_usb.c ****         USBx_HC(hcnum)->HCCHAR &= ~USB_OTG_HCCHAR_EPDIR;
 4455              		.loc 1 1934 9 is_stmt 1 view .LVU1405
1934:Drivers/STM32F4xx_HAL_Driver/Src/stm32f4xx_ll_usb.c ****         USBx_HC(hcnum)->HCCHAR &= ~USB_OTG_HCCHAR_EPDIR;
 4456              		.loc 1 1934 32 is_stmt 0 view .LVU1406
 4457 009c D1F80005 		ldr	r0, [r1, #1280]
 4458 00a0 40F00040 		orr	r0, r0, #-2147483648
 4459 00a4 C1F80005 		str	r0, [r1, #1280]
1935:Drivers/STM32F4xx_HAL_Driver/Src/stm32f4xx_ll_usb.c ****         do
 4460              		.loc 1 1935 9 is_stmt 1 view .LVU1407
1935:Drivers/STM32F4xx_HAL_Driver/Src/stm32f4xx_ll_usb.c ****         do
 4461              		.loc 1 1935 32 is_stmt 0 view .LVU1408
 4462 00a8 D1F80005 		ldr	r0, [r1, #1280]
 4463 00ac 20F40040 		bic	r0, r0, #32768
 4464 00b0 C1F80005 		str	r0, [r1, #1280]
 4465              	.LVL359:
 4466              	.L281:
1936:Drivers/STM32F4xx_HAL_Driver/Src/stm32f4xx_ll_usb.c ****         {
 4467              		.loc 1 1936 9 is_stmt 1 view .LVU1409
1938:Drivers/STM32F4xx_HAL_Driver/Src/stm32f4xx_ll_usb.c ****           {
 4468              		.loc 1 1938 11 view .LVU1410
1938:Drivers/STM32F4xx_HAL_Driver/Src/stm32f4xx_ll_usb.c ****           {
 4469              		.loc 1 1938 14 is_stmt 0 view .LVU1411
 4470 00b4 0133     		adds	r3, r3, #1
 4471              	.LVL360:
1938:Drivers/STM32F4xx_HAL_Driver/Src/stm32f4xx_ll_usb.c ****           {
 4472              		.loc 1 1938 14 view .LVU1412
 4473 00b6 B3F57A7F 		cmp	r3, #1000
 4474 00ba 09D8     		bhi	.L277
1942:Drivers/STM32F4xx_HAL_Driver/Src/stm32f4xx_ll_usb.c ****       }
 4475              		.loc 1 1942 17 is_stmt 1 view .LVU1413
1942:Drivers/STM32F4xx_HAL_Driver/Src/stm32f4xx_ll_usb.c ****       }
 4476              		.loc 1 1942 33 is_stmt 0 view .LVU1414
 4477 00bc 1168     		ldr	r1, [r2]
1942:Drivers/STM32F4xx_HAL_Driver/Src/stm32f4xx_ll_usb.c ****       }
 4478              		.loc 1 1942 9 view .LVU1415
 4479 00be 0029     		cmp	r1, #0
 4480 00c0 F8DB     		blt	.L281
 4481 00c2 05E0     		b	.L277
 4482              	.LVL361:
 4483              	.L280:
1946:Drivers/STM32F4xx_HAL_Driver/Src/stm32f4xx_ll_usb.c ****       }
 4484              		.loc 1 1946 9 is_stmt 1 view .LVU1416
1946:Drivers/STM32F4xx_HAL_Driver/Src/stm32f4xx_ll_usb.c ****       }
 4485              		.loc 1 1946 32 is_stmt 0 view .LVU1417
 4486 00c4 D1F80035 		ldr	r3, [r1, #1280]
 4487 00c8 43F00043 		orr	r3, r3, #-2147483648
 4488 00cc C1F80035 		str	r3, [r1, #1280]
 4489              	.LVL362:
 4490              	.L277:
1966:Drivers/STM32F4xx_HAL_Driver/Src/stm32f4xx_ll_usb.c ****     }
1967:Drivers/STM32F4xx_HAL_Driver/Src/stm32f4xx_ll_usb.c ****     else
ARM GAS  /tmp/ccSVR7EX.s 			page 133


1968:Drivers/STM32F4xx_HAL_Driver/Src/stm32f4xx_ll_usb.c ****     {
1969:Drivers/STM32F4xx_HAL_Driver/Src/stm32f4xx_ll_usb.c ****       USBx_HC(hcnum)->HCCHAR |= USB_OTG_HCCHAR_CHENA;
1970:Drivers/STM32F4xx_HAL_Driver/Src/stm32f4xx_ll_usb.c ****     }
1971:Drivers/STM32F4xx_HAL_Driver/Src/stm32f4xx_ll_usb.c ****   }
1972:Drivers/STM32F4xx_HAL_Driver/Src/stm32f4xx_ll_usb.c **** 
1973:Drivers/STM32F4xx_HAL_Driver/Src/stm32f4xx_ll_usb.c ****   return HAL_OK;
1974:Drivers/STM32F4xx_HAL_Driver/Src/stm32f4xx_ll_usb.c **** }
 4491              		.loc 1 1974 1 view .LVU1418
 4492 00d0 0020     		movs	r0, #0
 4493 00d2 30BC     		pop	{r4, r5}
 4494              	.LCFI64:
 4495              		.cfi_remember_state
 4496              		.cfi_restore 5
 4497              		.cfi_restore 4
 4498              		.cfi_def_cfa_offset 0
 4499 00d4 7047     		bx	lr
 4500              	.LVL363:
 4501              	.L282:
 4502              	.LCFI65:
 4503              		.cfi_restore_state
1969:Drivers/STM32F4xx_HAL_Driver/Src/stm32f4xx_ll_usb.c ****     }
 4504              		.loc 1 1969 7 is_stmt 1 view .LVU1419
1969:Drivers/STM32F4xx_HAL_Driver/Src/stm32f4xx_ll_usb.c ****     }
 4505              		.loc 1 1969 30 is_stmt 0 view .LVU1420
 4506 00d6 D1F80035 		ldr	r3, [r1, #1280]
 4507 00da 43F00043 		orr	r3, r3, #-2147483648
 4508 00de C1F80035 		str	r3, [r1, #1280]
 4509 00e2 F5E7     		b	.L277
 4510              		.cfi_endproc
 4511              	.LFE173:
 4513              		.section	.text.USB_DoPing,"ax",%progbits
 4514              		.align	1
 4515              		.global	USB_DoPing
 4516              		.syntax unified
 4517              		.thumb
 4518              		.thumb_func
 4519              		.fpu fpv4-sp-d16
 4521              	USB_DoPing:
 4522              	.LVL364:
 4523              	.LFB174:
1975:Drivers/STM32F4xx_HAL_Driver/Src/stm32f4xx_ll_usb.c **** 
1976:Drivers/STM32F4xx_HAL_Driver/Src/stm32f4xx_ll_usb.c **** /**
1977:Drivers/STM32F4xx_HAL_Driver/Src/stm32f4xx_ll_usb.c ****   * @brief  Initiate Do Ping protocol
1978:Drivers/STM32F4xx_HAL_Driver/Src/stm32f4xx_ll_usb.c ****   * @param  USBx  Selected device
1979:Drivers/STM32F4xx_HAL_Driver/Src/stm32f4xx_ll_usb.c ****   * @param  hc_num  Host Channel number
1980:Drivers/STM32F4xx_HAL_Driver/Src/stm32f4xx_ll_usb.c ****   *         This parameter can be a value from 1 to 15
1981:Drivers/STM32F4xx_HAL_Driver/Src/stm32f4xx_ll_usb.c ****   * @retval HAL state
1982:Drivers/STM32F4xx_HAL_Driver/Src/stm32f4xx_ll_usb.c ****   */
1983:Drivers/STM32F4xx_HAL_Driver/Src/stm32f4xx_ll_usb.c **** HAL_StatusTypeDef USB_DoPing(USB_OTG_GlobalTypeDef *USBx, uint8_t ch_num)
1984:Drivers/STM32F4xx_HAL_Driver/Src/stm32f4xx_ll_usb.c **** {
 4524              		.loc 1 1984 1 is_stmt 1 view -0
 4525              		.cfi_startproc
 4526              		@ args = 0, pretend = 0, frame = 0
 4527              		@ frame_needed = 0, uses_anonymous_args = 0
 4528              		@ link register save eliminated.
1985:Drivers/STM32F4xx_HAL_Driver/Src/stm32f4xx_ll_usb.c ****   uint32_t USBx_BASE = (uint32_t)USBx;
 4529              		.loc 1 1985 3 view .LVU1422
ARM GAS  /tmp/ccSVR7EX.s 			page 134


1986:Drivers/STM32F4xx_HAL_Driver/Src/stm32f4xx_ll_usb.c ****   uint32_t chnum = (uint32_t)ch_num;
 4530              		.loc 1 1986 3 view .LVU1423
1987:Drivers/STM32F4xx_HAL_Driver/Src/stm32f4xx_ll_usb.c ****   uint32_t num_packets = 1U;
 4531              		.loc 1 1987 3 view .LVU1424
1988:Drivers/STM32F4xx_HAL_Driver/Src/stm32f4xx_ll_usb.c ****   uint32_t tmpreg;
 4532              		.loc 1 1988 3 view .LVU1425
1989:Drivers/STM32F4xx_HAL_Driver/Src/stm32f4xx_ll_usb.c **** 
1990:Drivers/STM32F4xx_HAL_Driver/Src/stm32f4xx_ll_usb.c ****   USBx_HC(chnum)->HCTSIZ = ((num_packets << 19) & USB_OTG_HCTSIZ_PKTCNT) |
 4533              		.loc 1 1990 3 view .LVU1426
 4534 0000 00EB4111 		add	r1, r0, r1, lsl #5
 4535              	.LVL365:
 4536              		.loc 1 1990 26 is_stmt 0 view .LVU1427
 4537 0004 064A     		ldr	r2, .L286
 4538 0006 C1F81025 		str	r2, [r1, #1296]
1991:Drivers/STM32F4xx_HAL_Driver/Src/stm32f4xx_ll_usb.c ****                            USB_OTG_HCTSIZ_DOPING;
1992:Drivers/STM32F4xx_HAL_Driver/Src/stm32f4xx_ll_usb.c **** 
1993:Drivers/STM32F4xx_HAL_Driver/Src/stm32f4xx_ll_usb.c ****   /* Set host channel enable */
1994:Drivers/STM32F4xx_HAL_Driver/Src/stm32f4xx_ll_usb.c ****   tmpreg = USBx_HC(chnum)->HCCHAR;
 4539              		.loc 1 1994 3 is_stmt 1 view .LVU1428
 4540              		.loc 1 1994 10 is_stmt 0 view .LVU1429
 4541 000a D1F80035 		ldr	r3, [r1, #1280]
 4542              	.LVL366:
1995:Drivers/STM32F4xx_HAL_Driver/Src/stm32f4xx_ll_usb.c ****   tmpreg &= ~USB_OTG_HCCHAR_CHDIS;
 4543              		.loc 1 1995 3 is_stmt 1 view .LVU1430
 4544              		.loc 1 1995 10 is_stmt 0 view .LVU1431
 4545 000e 23F08043 		bic	r3, r3, #1073741824
 4546              	.LVL367:
1996:Drivers/STM32F4xx_HAL_Driver/Src/stm32f4xx_ll_usb.c ****   tmpreg |= USB_OTG_HCCHAR_CHENA;
 4547              		.loc 1 1996 3 is_stmt 1 view .LVU1432
 4548              		.loc 1 1996 10 is_stmt 0 view .LVU1433
 4549 0012 43F00043 		orr	r3, r3, #-2147483648
 4550              	.LVL368:
1997:Drivers/STM32F4xx_HAL_Driver/Src/stm32f4xx_ll_usb.c ****   USBx_HC(chnum)->HCCHAR = tmpreg;
 4551              		.loc 1 1997 3 is_stmt 1 view .LVU1434
 4552              		.loc 1 1997 26 is_stmt 0 view .LVU1435
 4553 0016 C1F80035 		str	r3, [r1, #1280]
1998:Drivers/STM32F4xx_HAL_Driver/Src/stm32f4xx_ll_usb.c **** 
1999:Drivers/STM32F4xx_HAL_Driver/Src/stm32f4xx_ll_usb.c ****   return HAL_OK;
 4554              		.loc 1 1999 3 is_stmt 1 view .LVU1436
2000:Drivers/STM32F4xx_HAL_Driver/Src/stm32f4xx_ll_usb.c **** }
 4555              		.loc 1 2000 1 is_stmt 0 view .LVU1437
 4556 001a 0020     		movs	r0, #0
 4557              	.LVL369:
 4558              		.loc 1 2000 1 view .LVU1438
 4559 001c 7047     		bx	lr
 4560              	.L287:
 4561 001e 00BF     		.align	2
 4562              	.L286:
 4563 0020 00000880 		.word	-2146959360
 4564              		.cfi_endproc
 4565              	.LFE174:
 4567              		.section	.text.USB_HC_StartXfer,"ax",%progbits
 4568              		.align	1
 4569              		.global	USB_HC_StartXfer
 4570              		.syntax unified
 4571              		.thumb
 4572              		.thumb_func
ARM GAS  /tmp/ccSVR7EX.s 			page 135


 4573              		.fpu fpv4-sp-d16
 4575              	USB_HC_StartXfer:
 4576              	.LVL370:
 4577              	.LFB171:
1758:Drivers/STM32F4xx_HAL_Driver/Src/stm32f4xx_ll_usb.c ****   uint32_t USBx_BASE = (uint32_t)USBx;
 4578              		.loc 1 1758 1 is_stmt 1 view -0
 4579              		.cfi_startproc
 4580              		@ args = 0, pretend = 0, frame = 8
 4581              		@ frame_needed = 0, uses_anonymous_args = 0
1758:Drivers/STM32F4xx_HAL_Driver/Src/stm32f4xx_ll_usb.c ****   uint32_t USBx_BASE = (uint32_t)USBx;
 4582              		.loc 1 1758 1 is_stmt 0 view .LVU1440
 4583 0000 70B5     		push	{r4, r5, r6, lr}
 4584              	.LCFI66:
 4585              		.cfi_def_cfa_offset 16
 4586              		.cfi_offset 4, -16
 4587              		.cfi_offset 5, -12
 4588              		.cfi_offset 6, -8
 4589              		.cfi_offset 14, -4
 4590 0002 84B0     		sub	sp, sp, #16
 4591              	.LCFI67:
 4592              		.cfi_def_cfa_offset 32
1759:Drivers/STM32F4xx_HAL_Driver/Src/stm32f4xx_ll_usb.c ****   uint32_t ch_num = (uint32_t)hc->ch_num;
 4593              		.loc 1 1759 3 is_stmt 1 view .LVU1441
 4594              	.LVL371:
1760:Drivers/STM32F4xx_HAL_Driver/Src/stm32f4xx_ll_usb.c ****   __IO uint32_t tmpreg;
 4595              		.loc 1 1760 3 view .LVU1442
1760:Drivers/STM32F4xx_HAL_Driver/Src/stm32f4xx_ll_usb.c ****   __IO uint32_t tmpreg;
 4596              		.loc 1 1760 33 is_stmt 0 view .LVU1443
 4597 0004 4B78     		ldrb	r3, [r1, #1]	@ zero_extendqisi2
 4598              	.LVL372:
1761:Drivers/STM32F4xx_HAL_Driver/Src/stm32f4xx_ll_usb.c ****   uint8_t  is_oddframe;
 4599              		.loc 1 1761 3 is_stmt 1 view .LVU1444
1762:Drivers/STM32F4xx_HAL_Driver/Src/stm32f4xx_ll_usb.c ****   uint16_t len_words;
 4600              		.loc 1 1762 3 view .LVU1445
1763:Drivers/STM32F4xx_HAL_Driver/Src/stm32f4xx_ll_usb.c ****   uint16_t num_packets;
 4601              		.loc 1 1763 3 view .LVU1446
1764:Drivers/STM32F4xx_HAL_Driver/Src/stm32f4xx_ll_usb.c ****   uint16_t max_hc_pkt_count = 256U;
 4602              		.loc 1 1764 3 view .LVU1447
1765:Drivers/STM32F4xx_HAL_Driver/Src/stm32f4xx_ll_usb.c **** 
 4603              		.loc 1 1765 3 view .LVU1448
1767:Drivers/STM32F4xx_HAL_Driver/Src/stm32f4xx_ll_usb.c ****   {
 4604              		.loc 1 1767 3 view .LVU1449
1767:Drivers/STM32F4xx_HAL_Driver/Src/stm32f4xx_ll_usb.c ****   {
 4605              		.loc 1 1767 13 is_stmt 0 view .LVU1450
 4606 0006 C46B     		ldr	r4, [r0, #60]
1767:Drivers/STM32F4xx_HAL_Driver/Src/stm32f4xx_ll_usb.c ****   {
 4607              		.loc 1 1767 6 view .LVU1451
 4608 0008 14F4807F 		tst	r4, #256
 4609 000c 07D0     		beq	.L289
1767:Drivers/STM32F4xx_HAL_Driver/Src/stm32f4xx_ll_usb.c ****   {
 4610              		.loc 1 1767 47 discriminator 1 view .LVU1452
 4611 000e 0C79     		ldrb	r4, [r1, #4]	@ zero_extendqisi2
1767:Drivers/STM32F4xx_HAL_Driver/Src/stm32f4xx_ll_usb.c ****   {
 4612              		.loc 1 1767 41 discriminator 1 view .LVU1453
 4613 0010 2CB9     		cbnz	r4, .L289
1770:Drivers/STM32F4xx_HAL_Driver/Src/stm32f4xx_ll_usb.c ****     {
 4614              		.loc 1 1770 5 is_stmt 1 view .LVU1454
ARM GAS  /tmp/ccSVR7EX.s 			page 136


1770:Drivers/STM32F4xx_HAL_Driver/Src/stm32f4xx_ll_usb.c ****     {
 4615              		.loc 1 1770 8 is_stmt 0 view .LVU1455
 4616 0012 012A     		cmp	r2, #1
 4617 0014 11D0     		beq	.L306
 4618              	.L290:
1777:Drivers/STM32F4xx_HAL_Driver/Src/stm32f4xx_ll_usb.c ****     {
 4619              		.loc 1 1777 5 is_stmt 1 view .LVU1456
1777:Drivers/STM32F4xx_HAL_Driver/Src/stm32f4xx_ll_usb.c ****     {
 4620              		.loc 1 1777 8 is_stmt 0 view .LVU1457
 4621 0016 12B9     		cbnz	r2, .L289
1777:Drivers/STM32F4xx_HAL_Driver/Src/stm32f4xx_ll_usb.c ****     {
 4622              		.loc 1 1777 27 discriminator 1 view .LVU1458
 4623 0018 4C79     		ldrb	r4, [r1, #5]	@ zero_extendqisi2
1777:Drivers/STM32F4xx_HAL_Driver/Src/stm32f4xx_ll_usb.c ****     {
 4624              		.loc 1 1777 21 discriminator 1 view .LVU1459
 4625 001a 012C     		cmp	r4, #1
 4626 001c 1AD0     		beq	.L307
 4627              	.L289:
1786:Drivers/STM32F4xx_HAL_Driver/Src/stm32f4xx_ll_usb.c ****   {
 4628              		.loc 1 1786 3 is_stmt 1 view .LVU1460
1786:Drivers/STM32F4xx_HAL_Driver/Src/stm32f4xx_ll_usb.c ****   {
 4629              		.loc 1 1786 9 is_stmt 0 view .LVU1461
 4630 001e 4E69     		ldr	r6, [r1, #20]
1786:Drivers/STM32F4xx_HAL_Driver/Src/stm32f4xx_ll_usb.c ****   {
 4631              		.loc 1 1786 6 view .LVU1462
 4632 0020 E6B1     		cbz	r6, .L303
1788:Drivers/STM32F4xx_HAL_Driver/Src/stm32f4xx_ll_usb.c **** 
 4633              		.loc 1 1788 5 is_stmt 1 view .LVU1463
1788:Drivers/STM32F4xx_HAL_Driver/Src/stm32f4xx_ll_usb.c **** 
 4634              		.loc 1 1788 48 is_stmt 0 view .LVU1464
 4635 0022 0C89     		ldrh	r4, [r1, #8]
1788:Drivers/STM32F4xx_HAL_Driver/Src/stm32f4xx_ll_usb.c **** 
 4636              		.loc 1 1788 44 view .LVU1465
 4637 0024 3519     		adds	r5, r6, r4
1788:Drivers/STM32F4xx_HAL_Driver/Src/stm32f4xx_ll_usb.c **** 
 4638              		.loc 1 1788 61 view .LVU1466
 4639 0026 013D     		subs	r5, r5, #1
1788:Drivers/STM32F4xx_HAL_Driver/Src/stm32f4xx_ll_usb.c **** 
 4640              		.loc 1 1788 67 view .LVU1467
 4641 0028 B5FBF4F5 		udiv	r5, r5, r4
1788:Drivers/STM32F4xx_HAL_Driver/Src/stm32f4xx_ll_usb.c **** 
 4642              		.loc 1 1788 17 view .LVU1468
 4643 002c ADB2     		uxth	r5, r5
 4644              	.LVL373:
1790:Drivers/STM32F4xx_HAL_Driver/Src/stm32f4xx_ll_usb.c ****     {
 4645              		.loc 1 1790 5 is_stmt 1 view .LVU1469
1790:Drivers/STM32F4xx_HAL_Driver/Src/stm32f4xx_ll_usb.c ****     {
 4646              		.loc 1 1790 8 is_stmt 0 view .LVU1470
 4647 002e B5F5807F 		cmp	r5, #256
 4648 0032 14D9     		bls	.L293
1792:Drivers/STM32F4xx_HAL_Driver/Src/stm32f4xx_ll_usb.c ****       hc->XferSize = (uint32_t)num_packets * hc->max_packet;
 4649              		.loc 1 1792 19 view .LVU1471
 4650 0034 4FF48075 		mov	r5, #256
 4651              	.LVL374:
1792:Drivers/STM32F4xx_HAL_Driver/Src/stm32f4xx_ll_usb.c ****       hc->XferSize = (uint32_t)num_packets * hc->max_packet;
 4652              		.loc 1 1792 19 view .LVU1472
 4653 0038 11E0     		b	.L293
ARM GAS  /tmp/ccSVR7EX.s 			page 137


 4654              	.LVL375:
 4655              	.L306:
1770:Drivers/STM32F4xx_HAL_Driver/Src/stm32f4xx_ll_usb.c ****     {
 4656              		.loc 1 1770 28 discriminator 1 view .LVU1473
 4657 003a CC79     		ldrb	r4, [r1, #7]	@ zero_extendqisi2
1770:Drivers/STM32F4xx_HAL_Driver/Src/stm32f4xx_ll_usb.c ****     {
 4658              		.loc 1 1770 21 discriminator 1 view .LVU1474
 4659 003c 0CB1     		cbz	r4, .L291
1770:Drivers/STM32F4xx_HAL_Driver/Src/stm32f4xx_ll_usb.c ****     {
 4660              		.loc 1 1770 55 discriminator 2 view .LVU1475
 4661 003e 022C     		cmp	r4, #2
 4662 0040 E9D1     		bne	.L290
 4663              	.L291:
1772:Drivers/STM32F4xx_HAL_Driver/Src/stm32f4xx_ll_usb.c ****                                                USB_OTG_HCINTMSK_ACKM |
 4664              		.loc 1 1772 7 is_stmt 1 view .LVU1476
1772:Drivers/STM32F4xx_HAL_Driver/Src/stm32f4xx_ll_usb.c ****                                                USB_OTG_HCINTMSK_ACKM |
 4665              		.loc 1 1772 43 is_stmt 0 view .LVU1477
 4666 0042 00EB4314 		add	r4, r0, r3, lsl #5
 4667 0046 D4F80C55 		ldr	r5, [r4, #1292]
 4668 004a 25F07005 		bic	r5, r5, #112
 4669 004e C4F80C55 		str	r5, [r4, #1292]
 4670 0052 E0E7     		b	.L290
 4671              	.L307:
1779:Drivers/STM32F4xx_HAL_Driver/Src/stm32f4xx_ll_usb.c ****       return HAL_OK;
 4672              		.loc 1 1779 7 is_stmt 1 view .LVU1478
1779:Drivers/STM32F4xx_HAL_Driver/Src/stm32f4xx_ll_usb.c ****       return HAL_OK;
 4673              		.loc 1 1779 13 is_stmt 0 view .LVU1479
 4674 0054 4978     		ldrb	r1, [r1, #1]	@ zero_extendqisi2
 4675              	.LVL376:
1779:Drivers/STM32F4xx_HAL_Driver/Src/stm32f4xx_ll_usb.c ****       return HAL_OK;
 4676              		.loc 1 1779 13 view .LVU1480
 4677 0056 FFF7FEFF 		bl	USB_DoPing
 4678              	.LVL377:
1780:Drivers/STM32F4xx_HAL_Driver/Src/stm32f4xx_ll_usb.c ****     }
 4679              		.loc 1 1780 7 is_stmt 1 view .LVU1481
1780:Drivers/STM32F4xx_HAL_Driver/Src/stm32f4xx_ll_usb.c ****     }
 4680              		.loc 1 1780 14 is_stmt 0 view .LVU1482
 4681 005a 6AE0     		b	.L292
 4682              	.LVL378:
 4683              	.L303:
1798:Drivers/STM32F4xx_HAL_Driver/Src/stm32f4xx_ll_usb.c ****   }
 4684              		.loc 1 1798 17 view .LVU1483
 4685 005c 0125     		movs	r5, #1
 4686              	.L293:
 4687              	.LVL379:
1805:Drivers/STM32F4xx_HAL_Driver/Src/stm32f4xx_ll_usb.c ****   {
 4688              		.loc 1 1805 3 is_stmt 1 view .LVU1484
1805:Drivers/STM32F4xx_HAL_Driver/Src/stm32f4xx_ll_usb.c ****   {
 4689              		.loc 1 1805 9 is_stmt 0 view .LVU1485
 4690 005e CC78     		ldrb	r4, [r1, #3]	@ zero_extendqisi2
1805:Drivers/STM32F4xx_HAL_Driver/Src/stm32f4xx_ll_usb.c ****   {
 4691              		.loc 1 1805 6 view .LVU1486
 4692 0060 002C     		cmp	r4, #0
 4693 0062 4DD0     		beq	.L294
1807:Drivers/STM32F4xx_HAL_Driver/Src/stm32f4xx_ll_usb.c ****   }
 4694              		.loc 1 1807 5 is_stmt 1 view .LVU1487
1807:Drivers/STM32F4xx_HAL_Driver/Src/stm32f4xx_ll_usb.c ****   }
ARM GAS  /tmp/ccSVR7EX.s 			page 138


 4695              		.loc 1 1807 46 is_stmt 0 view .LVU1488
 4696 0064 0C89     		ldrh	r4, [r1, #8]
1807:Drivers/STM32F4xx_HAL_Driver/Src/stm32f4xx_ll_usb.c ****   }
 4697              		.loc 1 1807 42 view .LVU1489
 4698 0066 04FB05F4 		mul	r4, r4, r5
1807:Drivers/STM32F4xx_HAL_Driver/Src/stm32f4xx_ll_usb.c ****   }
 4699              		.loc 1 1807 18 view .LVU1490
 4700 006a 0C61     		str	r4, [r1, #16]
 4701              	.L295:
1815:Drivers/STM32F4xx_HAL_Driver/Src/stm32f4xx_ll_usb.c ****                             (((uint32_t)num_packets << 19) & USB_OTG_HCTSIZ_PKTCNT) |
 4702              		.loc 1 1815 3 is_stmt 1 view .LVU1491
1815:Drivers/STM32F4xx_HAL_Driver/Src/stm32f4xx_ll_usb.c ****                             (((uint32_t)num_packets << 19) & USB_OTG_HCTSIZ_PKTCNT) |
 4703              		.loc 1 1815 32 is_stmt 0 view .LVU1492
 4704 006c 0C69     		ldr	r4, [r1, #16]
1815:Drivers/STM32F4xx_HAL_Driver/Src/stm32f4xx_ll_usb.c ****                             (((uint32_t)num_packets << 19) & USB_OTG_HCTSIZ_PKTCNT) |
 4705              		.loc 1 1815 43 view .LVU1493
 4706 006e C4F31204 		ubfx	r4, r4, #0, #19
1816:Drivers/STM32F4xx_HAL_Driver/Src/stm32f4xx_ll_usb.c ****                             (((uint32_t)hc->data_pid << 29) & USB_OTG_HCTSIZ_DPID);
 4707              		.loc 1 1816 60 view .LVU1494
 4708 0072 374E     		ldr	r6, .L308
 4709 0074 06EAC545 		and	r5, r6, r5, lsl #19
 4710              	.LVL380:
1815:Drivers/STM32F4xx_HAL_Driver/Src/stm32f4xx_ll_usb.c ****                             (((uint32_t)num_packets << 19) & USB_OTG_HCTSIZ_PKTCNT) |
 4711              		.loc 1 1815 68 view .LVU1495
 4712 0078 2C43     		orrs	r4, r4, r5
1817:Drivers/STM32F4xx_HAL_Driver/Src/stm32f4xx_ll_usb.c **** 
 4713              		.loc 1 1817 43 view .LVU1496
 4714 007a 8D7A     		ldrb	r5, [r1, #10]	@ zero_extendqisi2
1817:Drivers/STM32F4xx_HAL_Driver/Src/stm32f4xx_ll_usb.c **** 
 4715              		.loc 1 1817 54 view .LVU1497
 4716 007c 6D07     		lsls	r5, r5, #29
1817:Drivers/STM32F4xx_HAL_Driver/Src/stm32f4xx_ll_usb.c **** 
 4717              		.loc 1 1817 61 view .LVU1498
 4718 007e 05F0C045 		and	r5, r5, #1610612736
1815:Drivers/STM32F4xx_HAL_Driver/Src/stm32f4xx_ll_usb.c ****                             (((uint32_t)num_packets << 19) & USB_OTG_HCTSIZ_PKTCNT) |
 4719              		.loc 1 1815 3 view .LVU1499
 4720 0082 00EB4313 		add	r3, r0, r3, lsl #5
 4721              	.LVL381:
1815:Drivers/STM32F4xx_HAL_Driver/Src/stm32f4xx_ll_usb.c ****                             (((uint32_t)num_packets << 19) & USB_OTG_HCTSIZ_PKTCNT) |
 4722              		.loc 1 1815 3 view .LVU1500
 4723 0086 03F5A066 		add	r6, r3, #1280
1816:Drivers/STM32F4xx_HAL_Driver/Src/stm32f4xx_ll_usb.c ****                             (((uint32_t)hc->data_pid << 29) & USB_OTG_HCTSIZ_DPID);
 4724              		.loc 1 1816 85 view .LVU1501
 4725 008a 2C43     		orrs	r4, r4, r5
1815:Drivers/STM32F4xx_HAL_Driver/Src/stm32f4xx_ll_usb.c ****                             (((uint32_t)num_packets << 19) & USB_OTG_HCTSIZ_PKTCNT) |
 4726              		.loc 1 1815 27 view .LVU1502
 4727 008c C3F81045 		str	r4, [r3, #1296]
1819:Drivers/STM32F4xx_HAL_Driver/Src/stm32f4xx_ll_usb.c ****   {
 4728              		.loc 1 1819 3 is_stmt 1 view .LVU1503
1819:Drivers/STM32F4xx_HAL_Driver/Src/stm32f4xx_ll_usb.c ****   {
 4729              		.loc 1 1819 6 is_stmt 0 view .LVU1504
 4730 0090 12B1     		cbz	r2, .L296
1822:Drivers/STM32F4xx_HAL_Driver/Src/stm32f4xx_ll_usb.c ****   }
 4731              		.loc 1 1822 5 is_stmt 1 view .LVU1505
1822:Drivers/STM32F4xx_HAL_Driver/Src/stm32f4xx_ll_usb.c ****   }
 4732              		.loc 1 1822 42 is_stmt 0 view .LVU1506
 4733 0092 CC68     		ldr	r4, [r1, #12]
ARM GAS  /tmp/ccSVR7EX.s 			page 139


1822:Drivers/STM32F4xx_HAL_Driver/Src/stm32f4xx_ll_usb.c ****   }
 4734              		.loc 1 1822 28 view .LVU1507
 4735 0094 C3F81445 		str	r4, [r3, #1300]
 4736              	.L296:
1825:Drivers/STM32F4xx_HAL_Driver/Src/stm32f4xx_ll_usb.c ****   USBx_HC(ch_num)->HCCHAR &= ~USB_OTG_HCCHAR_ODDFRM;
 4737              		.loc 1 1825 3 is_stmt 1 view .LVU1508
1825:Drivers/STM32F4xx_HAL_Driver/Src/stm32f4xx_ll_usb.c ****   USBx_HC(ch_num)->HCCHAR &= ~USB_OTG_HCCHAR_ODDFRM;
 4738              		.loc 1 1825 29 is_stmt 0 view .LVU1509
 4739 0098 00F58065 		add	r5, r0, #1024
1825:Drivers/STM32F4xx_HAL_Driver/Src/stm32f4xx_ll_usb.c ****   USBx_HC(ch_num)->HCCHAR &= ~USB_OTG_HCCHAR_ODDFRM;
 4740              		.loc 1 1825 38 view .LVU1510
 4741 009c AC68     		ldr	r4, [r5, #8]
1825:Drivers/STM32F4xx_HAL_Driver/Src/stm32f4xx_ll_usb.c ****   USBx_HC(ch_num)->HCCHAR &= ~USB_OTG_HCCHAR_ODDFRM;
 4742              		.loc 1 1825 67 view .LVU1511
 4743 009e 14F0010F 		tst	r4, #1
 4744              	.LVL382:
1826:Drivers/STM32F4xx_HAL_Driver/Src/stm32f4xx_ll_usb.c ****   USBx_HC(ch_num)->HCCHAR |= (uint32_t)is_oddframe << 29;
 4745              		.loc 1 1826 3 is_stmt 1 view .LVU1512
1826:Drivers/STM32F4xx_HAL_Driver/Src/stm32f4xx_ll_usb.c ****   USBx_HC(ch_num)->HCCHAR |= (uint32_t)is_oddframe << 29;
 4746              		.loc 1 1826 27 is_stmt 0 view .LVU1513
 4747 00a2 D3F80045 		ldr	r4, [r3, #1280]
 4748 00a6 24F00054 		bic	r4, r4, #536870912
 4749 00aa C3F80045 		str	r4, [r3, #1280]
1827:Drivers/STM32F4xx_HAL_Driver/Src/stm32f4xx_ll_usb.c **** 
 4750              		.loc 1 1827 3 is_stmt 1 view .LVU1514
1827:Drivers/STM32F4xx_HAL_Driver/Src/stm32f4xx_ll_usb.c **** 
 4751              		.loc 1 1827 27 is_stmt 0 view .LVU1515
 4752 00ae D3F80045 		ldr	r4, [r3, #1280]
1827:Drivers/STM32F4xx_HAL_Driver/Src/stm32f4xx_ll_usb.c **** 
 4753              		.loc 1 1827 52 view .LVU1516
 4754 00b2 0CBF     		ite	eq
 4755 00b4 4FF00056 		moveq	r6, #536870912
 4756 00b8 0026     		movne	r6, #0
1827:Drivers/STM32F4xx_HAL_Driver/Src/stm32f4xx_ll_usb.c **** 
 4757              		.loc 1 1827 27 view .LVU1517
 4758 00ba 3443     		orrs	r4, r4, r6
 4759 00bc C3F80045 		str	r4, [r3, #1280]
1830:Drivers/STM32F4xx_HAL_Driver/Src/stm32f4xx_ll_usb.c ****   tmpreg &= ~USB_OTG_HCCHAR_CHDIS;
 4760              		.loc 1 1830 3 is_stmt 1 view .LVU1518
1830:Drivers/STM32F4xx_HAL_Driver/Src/stm32f4xx_ll_usb.c ****   tmpreg &= ~USB_OTG_HCCHAR_CHDIS;
 4761              		.loc 1 1830 27 is_stmt 0 view .LVU1519
 4762 00c0 D3F80045 		ldr	r4, [r3, #1280]
1830:Drivers/STM32F4xx_HAL_Driver/Src/stm32f4xx_ll_usb.c ****   tmpreg &= ~USB_OTG_HCCHAR_CHDIS;
 4763              		.loc 1 1830 10 view .LVU1520
 4764 00c4 0394     		str	r4, [sp, #12]
1831:Drivers/STM32F4xx_HAL_Driver/Src/stm32f4xx_ll_usb.c **** 
 4765              		.loc 1 1831 3 is_stmt 1 view .LVU1521
1831:Drivers/STM32F4xx_HAL_Driver/Src/stm32f4xx_ll_usb.c **** 
 4766              		.loc 1 1831 10 is_stmt 0 view .LVU1522
 4767 00c6 039C     		ldr	r4, [sp, #12]
 4768 00c8 24F08044 		bic	r4, r4, #1073741824
 4769 00cc 0394     		str	r4, [sp, #12]
1834:Drivers/STM32F4xx_HAL_Driver/Src/stm32f4xx_ll_usb.c ****   {
 4770              		.loc 1 1834 3 is_stmt 1 view .LVU1523
1834:Drivers/STM32F4xx_HAL_Driver/Src/stm32f4xx_ll_usb.c ****   {
 4771              		.loc 1 1834 9 is_stmt 0 view .LVU1524
 4772 00ce CC78     		ldrb	r4, [r1, #3]	@ zero_extendqisi2
ARM GAS  /tmp/ccSVR7EX.s 			page 140


1834:Drivers/STM32F4xx_HAL_Driver/Src/stm32f4xx_ll_usb.c ****   {
 4773              		.loc 1 1834 6 view .LVU1525
 4774 00d0 C4B1     		cbz	r4, .L297
 4775              	.LVL383:
1836:Drivers/STM32F4xx_HAL_Driver/Src/stm32f4xx_ll_usb.c ****   }
 4776              		.loc 1 1836 5 is_stmt 1 view .LVU1526
1836:Drivers/STM32F4xx_HAL_Driver/Src/stm32f4xx_ll_usb.c ****   }
 4777              		.loc 1 1836 12 is_stmt 0 view .LVU1527
 4778 00d2 039C     		ldr	r4, [sp, #12]
 4779 00d4 44F40044 		orr	r4, r4, #32768
 4780 00d8 0394     		str	r4, [sp, #12]
 4781              	.L298:
1842:Drivers/STM32F4xx_HAL_Driver/Src/stm32f4xx_ll_usb.c ****   USBx_HC(ch_num)->HCCHAR = tmpreg;
 4782              		.loc 1 1842 3 is_stmt 1 view .LVU1528
1842:Drivers/STM32F4xx_HAL_Driver/Src/stm32f4xx_ll_usb.c ****   USBx_HC(ch_num)->HCCHAR = tmpreg;
 4783              		.loc 1 1842 10 is_stmt 0 view .LVU1529
 4784 00da 039C     		ldr	r4, [sp, #12]
 4785 00dc 44F00044 		orr	r4, r4, #-2147483648
 4786 00e0 0394     		str	r4, [sp, #12]
1843:Drivers/STM32F4xx_HAL_Driver/Src/stm32f4xx_ll_usb.c **** 
 4787              		.loc 1 1843 3 is_stmt 1 view .LVU1530
1843:Drivers/STM32F4xx_HAL_Driver/Src/stm32f4xx_ll_usb.c **** 
 4788              		.loc 1 1843 27 is_stmt 0 view .LVU1531
 4789 00e2 039C     		ldr	r4, [sp, #12]
 4790 00e4 C3F80045 		str	r4, [r3, #1280]
1845:Drivers/STM32F4xx_HAL_Driver/Src/stm32f4xx_ll_usb.c ****   {
 4791              		.loc 1 1845 3 is_stmt 1 view .LVU1532
1845:Drivers/STM32F4xx_HAL_Driver/Src/stm32f4xx_ll_usb.c ****   {
 4792              		.loc 1 1845 6 is_stmt 0 view .LVU1533
 4793 00e8 1ABB     		cbnz	r2, .L292
1850:Drivers/STM32F4xx_HAL_Driver/Src/stm32f4xx_ll_usb.c ****   {
 4794              		.loc 1 1850 3 is_stmt 1 view .LVU1534
1850:Drivers/STM32F4xx_HAL_Driver/Src/stm32f4xx_ll_usb.c ****   {
 4795              		.loc 1 1850 10 is_stmt 0 view .LVU1535
 4796 00ea CB78     		ldrb	r3, [r1, #3]	@ zero_extendqisi2
1850:Drivers/STM32F4xx_HAL_Driver/Src/stm32f4xx_ll_usb.c ****   {
 4797              		.loc 1 1850 6 view .LVU1536
 4798 00ec 0BBB     		cbnz	r3, .L292
1850:Drivers/STM32F4xx_HAL_Driver/Src/stm32f4xx_ll_usb.c ****   {
 4799              		.loc 1 1850 34 discriminator 1 view .LVU1537
 4800 00ee 4B69     		ldr	r3, [r1, #20]
1850:Drivers/STM32F4xx_HAL_Driver/Src/stm32f4xx_ll_usb.c ****   {
 4801              		.loc 1 1850 28 discriminator 1 view .LVU1538
 4802 00f0 FBB1     		cbz	r3, .L292
1852:Drivers/STM32F4xx_HAL_Driver/Src/stm32f4xx_ll_usb.c ****     {
 4803              		.loc 1 1852 5 is_stmt 1 view .LVU1539
1852:Drivers/STM32F4xx_HAL_Driver/Src/stm32f4xx_ll_usb.c ****     {
 4804              		.loc 1 1852 15 is_stmt 0 view .LVU1540
 4805 00f2 CA79     		ldrb	r2, [r1, #7]	@ zero_extendqisi2
 4806              	.LVL384:
1852:Drivers/STM32F4xx_HAL_Driver/Src/stm32f4xx_ll_usb.c ****     {
 4807              		.loc 1 1852 15 view .LVU1541
 4808 00f4 032A     		cmp	r2, #3
 4809 00f6 15D8     		bhi	.L299
 4810 00f8 DFE802F0 		tbb	[pc, r2]
 4811              	.L301:
 4812 00fc 09       		.byte	(.L302-.L301)/2
ARM GAS  /tmp/ccSVR7EX.s 			page 141


 4813 00fd 1E       		.byte	(.L300-.L301)/2
 4814 00fe 09       		.byte	(.L302-.L301)/2
 4815 00ff 1E       		.byte	(.L300-.L301)/2
 4816              	.LVL385:
 4817              		.p2align 1
 4818              	.L294:
1811:Drivers/STM32F4xx_HAL_Driver/Src/stm32f4xx_ll_usb.c ****   }
 4819              		.loc 1 1811 5 is_stmt 1 view .LVU1542
1811:Drivers/STM32F4xx_HAL_Driver/Src/stm32f4xx_ll_usb.c ****   }
 4820              		.loc 1 1811 18 is_stmt 0 view .LVU1543
 4821 0100 0E61     		str	r6, [r1, #16]
 4822 0102 B3E7     		b	.L295
 4823              	.LVL386:
 4824              	.L297:
1840:Drivers/STM32F4xx_HAL_Driver/Src/stm32f4xx_ll_usb.c ****   }
 4825              		.loc 1 1840 5 is_stmt 1 view .LVU1544
1840:Drivers/STM32F4xx_HAL_Driver/Src/stm32f4xx_ll_usb.c ****   }
 4826              		.loc 1 1840 12 is_stmt 0 view .LVU1545
 4827 0104 039C     		ldr	r4, [sp, #12]
 4828 0106 24F40044 		bic	r4, r4, #32768
 4829 010a 0394     		str	r4, [sp, #12]
 4830 010c E5E7     		b	.L298
 4831              	.LVL387:
 4832              	.L302:
1858:Drivers/STM32F4xx_HAL_Driver/Src/stm32f4xx_ll_usb.c **** 
 4833              		.loc 1 1858 9 is_stmt 1 view .LVU1546
1858:Drivers/STM32F4xx_HAL_Driver/Src/stm32f4xx_ll_usb.c **** 
 4834              		.loc 1 1858 46 is_stmt 0 view .LVU1547
 4835 010e 0333     		adds	r3, r3, #3
 4836              	.LVL388:
1861:Drivers/STM32F4xx_HAL_Driver/Src/stm32f4xx_ll_usb.c ****         {
 4837              		.loc 1 1861 9 is_stmt 1 view .LVU1548
1861:Drivers/STM32F4xx_HAL_Driver/Src/stm32f4xx_ll_usb.c ****         {
 4838              		.loc 1 1861 30 is_stmt 0 view .LVU1549
 4839 0110 C26A     		ldr	r2, [r0, #44]
1861:Drivers/STM32F4xx_HAL_Driver/Src/stm32f4xx_ll_usb.c ****         {
 4840              		.loc 1 1861 41 view .LVU1550
 4841 0112 92B2     		uxth	r2, r2
1861:Drivers/STM32F4xx_HAL_Driver/Src/stm32f4xx_ll_usb.c ****         {
 4842              		.loc 1 1861 12 view .LVU1551
 4843 0114 C3F38F03 		ubfx	r3, r3, #2, #16
 4844              	.LVL389:
1861:Drivers/STM32F4xx_HAL_Driver/Src/stm32f4xx_ll_usb.c ****         {
 4845              		.loc 1 1861 12 view .LVU1552
 4846 0118 9A42     		cmp	r2, r3
 4847 011a 03D2     		bcs	.L299
1864:Drivers/STM32F4xx_HAL_Driver/Src/stm32f4xx_ll_usb.c ****         }
 4848              		.loc 1 1864 11 is_stmt 1 view .LVU1553
1864:Drivers/STM32F4xx_HAL_Driver/Src/stm32f4xx_ll_usb.c ****         }
 4849              		.loc 1 1864 25 is_stmt 0 view .LVU1554
 4850 011c 8369     		ldr	r3, [r0, #24]
 4851 011e 43F02003 		orr	r3, r3, #32
 4852 0122 8361     		str	r3, [r0, #24]
 4853              	.LVL390:
 4854              	.L299:
1885:Drivers/STM32F4xx_HAL_Driver/Src/stm32f4xx_ll_usb.c ****   }
 4855              		.loc 1 1885 5 is_stmt 1 view .LVU1555
ARM GAS  /tmp/ccSVR7EX.s 			page 142


1885:Drivers/STM32F4xx_HAL_Driver/Src/stm32f4xx_ll_usb.c ****   }
 4856              		.loc 1 1885 11 is_stmt 0 view .LVU1556
 4857 0124 0023     		movs	r3, #0
 4858 0126 0093     		str	r3, [sp]
 4859 0128 8B8A     		ldrh	r3, [r1, #20]
 4860 012a 4A78     		ldrb	r2, [r1, #1]	@ zero_extendqisi2
 4861 012c C968     		ldr	r1, [r1, #12]
 4862              	.LVL391:
1885:Drivers/STM32F4xx_HAL_Driver/Src/stm32f4xx_ll_usb.c ****   }
 4863              		.loc 1 1885 11 view .LVU1557
 4864 012e FFF7FEFF 		bl	USB_WritePacket
 4865              	.LVL392:
 4866              	.L292:
1889:Drivers/STM32F4xx_HAL_Driver/Src/stm32f4xx_ll_usb.c **** 
 4867              		.loc 1 1889 1 view .LVU1558
 4868 0132 0020     		movs	r0, #0
 4869 0134 04B0     		add	sp, sp, #16
 4870              	.LCFI68:
 4871              		.cfi_remember_state
 4872              		.cfi_def_cfa_offset 16
 4873              		@ sp needed
 4874 0136 70BD     		pop	{r4, r5, r6, pc}
 4875              	.LVL393:
 4876              	.L300:
 4877              	.LCFI69:
 4878              		.cfi_restore_state
1871:Drivers/STM32F4xx_HAL_Driver/Src/stm32f4xx_ll_usb.c ****         /* check if there is enough space in FIFO space */
 4879              		.loc 1 1871 9 is_stmt 1 view .LVU1559
1871:Drivers/STM32F4xx_HAL_Driver/Src/stm32f4xx_ll_usb.c ****         /* check if there is enough space in FIFO space */
 4880              		.loc 1 1871 46 is_stmt 0 view .LVU1560
 4881 0138 0333     		adds	r3, r3, #3
 4882              	.LVL394:
1873:Drivers/STM32F4xx_HAL_Driver/Src/stm32f4xx_ll_usb.c ****         {
 4883              		.loc 1 1873 9 is_stmt 1 view .LVU1561
1873:Drivers/STM32F4xx_HAL_Driver/Src/stm32f4xx_ll_usb.c ****         {
 4884              		.loc 1 1873 35 is_stmt 0 view .LVU1562
 4885 013a 2A69     		ldr	r2, [r5, #16]
1873:Drivers/STM32F4xx_HAL_Driver/Src/stm32f4xx_ll_usb.c ****         {
 4886              		.loc 1 1873 45 view .LVU1563
 4887 013c 92B2     		uxth	r2, r2
1873:Drivers/STM32F4xx_HAL_Driver/Src/stm32f4xx_ll_usb.c ****         {
 4888              		.loc 1 1873 12 view .LVU1564
 4889 013e C3F38F03 		ubfx	r3, r3, #2, #16
 4890              	.LVL395:
1873:Drivers/STM32F4xx_HAL_Driver/Src/stm32f4xx_ll_usb.c ****         {
 4891              		.loc 1 1873 12 view .LVU1565
 4892 0142 9A42     		cmp	r2, r3
 4893 0144 EED2     		bcs	.L299
1876:Drivers/STM32F4xx_HAL_Driver/Src/stm32f4xx_ll_usb.c ****         }
 4894              		.loc 1 1876 11 is_stmt 1 view .LVU1566
1876:Drivers/STM32F4xx_HAL_Driver/Src/stm32f4xx_ll_usb.c ****         }
 4895              		.loc 1 1876 25 is_stmt 0 view .LVU1567
 4896 0146 8369     		ldr	r3, [r0, #24]
 4897 0148 43F08063 		orr	r3, r3, #67108864
 4898 014c 8361     		str	r3, [r0, #24]
 4899              	.LVL396:
1876:Drivers/STM32F4xx_HAL_Driver/Src/stm32f4xx_ll_usb.c ****         }
ARM GAS  /tmp/ccSVR7EX.s 			page 143


 4900              		.loc 1 1876 25 view .LVU1568
 4901 014e E9E7     		b	.L299
 4902              	.L309:
 4903              		.align	2
 4904              	.L308:
 4905 0150 0000F81F 		.word	536346624
 4906              		.cfi_endproc
 4907              	.LFE171:
 4909              		.section	.text.USB_StopHost,"ax",%progbits
 4910              		.align	1
 4911              		.global	USB_StopHost
 4912              		.syntax unified
 4913              		.thumb
 4914              		.thumb_func
 4915              		.fpu fpv4-sp-d16
 4917              	USB_StopHost:
 4918              	.LVL397:
 4919              	.LFB175:
2001:Drivers/STM32F4xx_HAL_Driver/Src/stm32f4xx_ll_usb.c **** 
2002:Drivers/STM32F4xx_HAL_Driver/Src/stm32f4xx_ll_usb.c **** /**
2003:Drivers/STM32F4xx_HAL_Driver/Src/stm32f4xx_ll_usb.c ****   * @brief  Stop Host Core
2004:Drivers/STM32F4xx_HAL_Driver/Src/stm32f4xx_ll_usb.c ****   * @param  USBx  Selected device
2005:Drivers/STM32F4xx_HAL_Driver/Src/stm32f4xx_ll_usb.c ****   * @retval HAL state
2006:Drivers/STM32F4xx_HAL_Driver/Src/stm32f4xx_ll_usb.c ****   */
2007:Drivers/STM32F4xx_HAL_Driver/Src/stm32f4xx_ll_usb.c **** HAL_StatusTypeDef USB_StopHost(USB_OTG_GlobalTypeDef *USBx)
2008:Drivers/STM32F4xx_HAL_Driver/Src/stm32f4xx_ll_usb.c **** {
 4920              		.loc 1 2008 1 is_stmt 1 view -0
 4921              		.cfi_startproc
 4922              		@ args = 0, pretend = 0, frame = 0
 4923              		@ frame_needed = 0, uses_anonymous_args = 0
 4924              		.loc 1 2008 1 is_stmt 0 view .LVU1570
 4925 0000 70B5     		push	{r4, r5, r6, lr}
 4926              	.LCFI70:
 4927              		.cfi_def_cfa_offset 16
 4928              		.cfi_offset 4, -16
 4929              		.cfi_offset 5, -12
 4930              		.cfi_offset 6, -8
 4931              		.cfi_offset 14, -4
 4932 0002 0546     		mov	r5, r0
2009:Drivers/STM32F4xx_HAL_Driver/Src/stm32f4xx_ll_usb.c ****   uint32_t USBx_BASE = (uint32_t)USBx;
 4933              		.loc 1 2009 3 is_stmt 1 view .LVU1571
 4934              		.loc 1 2009 12 is_stmt 0 view .LVU1572
 4935 0004 0446     		mov	r4, r0
 4936              	.LVL398:
2010:Drivers/STM32F4xx_HAL_Driver/Src/stm32f4xx_ll_usb.c ****   uint32_t count = 0U;
 4937              		.loc 1 2010 3 is_stmt 1 view .LVU1573
2011:Drivers/STM32F4xx_HAL_Driver/Src/stm32f4xx_ll_usb.c ****   uint32_t value;
 4938              		.loc 1 2011 3 view .LVU1574
2012:Drivers/STM32F4xx_HAL_Driver/Src/stm32f4xx_ll_usb.c ****   uint32_t i;
 4939              		.loc 1 2012 3 view .LVU1575
2013:Drivers/STM32F4xx_HAL_Driver/Src/stm32f4xx_ll_usb.c **** 
2014:Drivers/STM32F4xx_HAL_Driver/Src/stm32f4xx_ll_usb.c ****   (void)USB_DisableGlobalInt(USBx);
 4940              		.loc 1 2014 3 view .LVU1576
 4941              		.loc 1 2014 9 is_stmt 0 view .LVU1577
 4942 0006 FFF7FEFF 		bl	USB_DisableGlobalInt
 4943              	.LVL399:
2015:Drivers/STM32F4xx_HAL_Driver/Src/stm32f4xx_ll_usb.c **** 
ARM GAS  /tmp/ccSVR7EX.s 			page 144


2016:Drivers/STM32F4xx_HAL_Driver/Src/stm32f4xx_ll_usb.c ****   /* Flush FIFO */
2017:Drivers/STM32F4xx_HAL_Driver/Src/stm32f4xx_ll_usb.c ****   (void)USB_FlushTxFifo(USBx, 0x10U);
 4944              		.loc 1 2017 3 is_stmt 1 view .LVU1578
 4945              		.loc 1 2017 9 is_stmt 0 view .LVU1579
 4946 000a 1021     		movs	r1, #16
 4947 000c 2846     		mov	r0, r5
 4948 000e FFF7FEFF 		bl	USB_FlushTxFifo
 4949              	.LVL400:
2018:Drivers/STM32F4xx_HAL_Driver/Src/stm32f4xx_ll_usb.c ****   (void)USB_FlushRxFifo(USBx);
 4950              		.loc 1 2018 3 is_stmt 1 view .LVU1580
 4951              		.loc 1 2018 9 is_stmt 0 view .LVU1581
 4952 0012 2846     		mov	r0, r5
 4953 0014 FFF7FEFF 		bl	USB_FlushRxFifo
 4954              	.LVL401:
2019:Drivers/STM32F4xx_HAL_Driver/Src/stm32f4xx_ll_usb.c **** 
2020:Drivers/STM32F4xx_HAL_Driver/Src/stm32f4xx_ll_usb.c ****   /* Flush out any leftover queued requests. */
2021:Drivers/STM32F4xx_HAL_Driver/Src/stm32f4xx_ll_usb.c ****   for (i = 0U; i <= 15U; i++)
 4955              		.loc 1 2021 3 is_stmt 1 view .LVU1582
 4956              		.loc 1 2021 10 is_stmt 0 view .LVU1583
 4957 0018 0022     		movs	r2, #0
 4958              		.loc 1 2021 3 view .LVU1584
 4959 001a 0AE0     		b	.L311
 4960              	.LVL402:
 4961              	.L312:
2022:Drivers/STM32F4xx_HAL_Driver/Src/stm32f4xx_ll_usb.c ****   {
2023:Drivers/STM32F4xx_HAL_Driver/Src/stm32f4xx_ll_usb.c ****     value = USBx_HC(i)->HCCHAR;
 4962              		.loc 1 2023 5 is_stmt 1 discriminator 3 view .LVU1585
 4963              		.loc 1 2023 13 is_stmt 0 discriminator 3 view .LVU1586
 4964 001c 04EB4211 		add	r1, r4, r2, lsl #5
 4965              		.loc 1 2023 11 discriminator 3 view .LVU1587
 4966 0020 D1F80035 		ldr	r3, [r1, #1280]
 4967              	.LVL403:
2024:Drivers/STM32F4xx_HAL_Driver/Src/stm32f4xx_ll_usb.c ****     value |=  USB_OTG_HCCHAR_CHDIS;
 4968              		.loc 1 2024 5 is_stmt 1 discriminator 3 view .LVU1588
2025:Drivers/STM32F4xx_HAL_Driver/Src/stm32f4xx_ll_usb.c ****     value &= ~USB_OTG_HCCHAR_CHENA;
 4969              		.loc 1 2025 5 discriminator 3 view .LVU1589
2026:Drivers/STM32F4xx_HAL_Driver/Src/stm32f4xx_ll_usb.c ****     value &= ~USB_OTG_HCCHAR_EPDIR;
 4970              		.loc 1 2026 5 discriminator 3 view .LVU1590
 4971 0024 23F08023 		bic	r3, r3, #-2147450880
 4972              	.LVL404:
 4973              		.loc 1 2026 11 is_stmt 0 discriminator 3 view .LVU1591
 4974 0028 43F08043 		orr	r3, r3, #1073741824
 4975              	.LVL405:
2027:Drivers/STM32F4xx_HAL_Driver/Src/stm32f4xx_ll_usb.c ****     USBx_HC(i)->HCCHAR = value;
 4976              		.loc 1 2027 5 is_stmt 1 discriminator 3 view .LVU1592
 4977              		.loc 1 2027 24 is_stmt 0 discriminator 3 view .LVU1593
 4978 002c C1F80035 		str	r3, [r1, #1280]
2021:Drivers/STM32F4xx_HAL_Driver/Src/stm32f4xx_ll_usb.c ****   {
 4979              		.loc 1 2021 26 is_stmt 1 discriminator 3 view .LVU1594
2021:Drivers/STM32F4xx_HAL_Driver/Src/stm32f4xx_ll_usb.c ****   {
 4980              		.loc 1 2021 27 is_stmt 0 discriminator 3 view .LVU1595
 4981 0030 0132     		adds	r2, r2, #1
 4982              	.LVL406:
 4983              	.L311:
2021:Drivers/STM32F4xx_HAL_Driver/Src/stm32f4xx_ll_usb.c ****   {
 4984              		.loc 1 2021 16 is_stmt 1 discriminator 1 view .LVU1596
2021:Drivers/STM32F4xx_HAL_Driver/Src/stm32f4xx_ll_usb.c ****   {
ARM GAS  /tmp/ccSVR7EX.s 			page 145


 4985              		.loc 1 2021 3 is_stmt 0 discriminator 1 view .LVU1597
 4986 0032 0F2A     		cmp	r2, #15
 4987 0034 F2D9     		bls	.L312
2028:Drivers/STM32F4xx_HAL_Driver/Src/stm32f4xx_ll_usb.c ****   }
2029:Drivers/STM32F4xx_HAL_Driver/Src/stm32f4xx_ll_usb.c **** 
2030:Drivers/STM32F4xx_HAL_Driver/Src/stm32f4xx_ll_usb.c ****   /* Halt all channels to put them into a known state. */
2031:Drivers/STM32F4xx_HAL_Driver/Src/stm32f4xx_ll_usb.c ****   for (i = 0U; i <= 15U; i++)
 4988              		.loc 1 2031 10 view .LVU1598
 4989 0036 0020     		movs	r0, #0
2010:Drivers/STM32F4xx_HAL_Driver/Src/stm32f4xx_ll_usb.c ****   uint32_t value;
 4990              		.loc 1 2010 12 view .LVU1599
 4991 0038 0346     		mov	r3, r0
 4992 003a 00E0     		b	.L313
 4993              	.LVL407:
 4994              	.L314:
 4995              		.loc 1 2031 26 is_stmt 1 discriminator 2 view .LVU1600
 4996              		.loc 1 2031 27 is_stmt 0 discriminator 2 view .LVU1601
 4997 003c 0130     		adds	r0, r0, #1
 4998              	.LVL408:
 4999              	.L313:
 5000              		.loc 1 2031 16 is_stmt 1 discriminator 1 view .LVU1602
 5001              		.loc 1 2031 3 is_stmt 0 discriminator 1 view .LVU1603
 5002 003e 0F28     		cmp	r0, #15
 5003 0040 13D8     		bhi	.L318
2032:Drivers/STM32F4xx_HAL_Driver/Src/stm32f4xx_ll_usb.c ****   {
2033:Drivers/STM32F4xx_HAL_Driver/Src/stm32f4xx_ll_usb.c ****     value = USBx_HC(i)->HCCHAR;
 5004              		.loc 1 2033 5 is_stmt 1 view .LVU1604
 5005              		.loc 1 2033 13 is_stmt 0 view .LVU1605
 5006 0042 04EB4016 		add	r6, r4, r0, lsl #5
 5007 0046 06F5A061 		add	r1, r6, #1280
 5008              		.loc 1 2033 11 view .LVU1606
 5009 004a D6F80025 		ldr	r2, [r6, #1280]
 5010              	.LVL409:
2034:Drivers/STM32F4xx_HAL_Driver/Src/stm32f4xx_ll_usb.c ****     value |= USB_OTG_HCCHAR_CHDIS;
 5011              		.loc 1 2034 5 is_stmt 1 view .LVU1607
2035:Drivers/STM32F4xx_HAL_Driver/Src/stm32f4xx_ll_usb.c ****     value |= USB_OTG_HCCHAR_CHENA;
 5012              		.loc 1 2035 5 view .LVU1608
2036:Drivers/STM32F4xx_HAL_Driver/Src/stm32f4xx_ll_usb.c ****     value &= ~USB_OTG_HCCHAR_EPDIR;
 5013              		.loc 1 2036 5 view .LVU1609
 5014 004e 22F40042 		bic	r2, r2, #32768
 5015              	.LVL410:
 5016              		.loc 1 2036 11 is_stmt 0 view .LVU1610
 5017 0052 42F04042 		orr	r2, r2, #-1073741824
 5018              	.LVL411:
2037:Drivers/STM32F4xx_HAL_Driver/Src/stm32f4xx_ll_usb.c ****     USBx_HC(i)->HCCHAR = value;
 5019              		.loc 1 2037 5 is_stmt 1 view .LVU1611
 5020              		.loc 1 2037 24 is_stmt 0 view .LVU1612
 5021 0056 C6F80025 		str	r2, [r6, #1280]
 5022              	.LVL412:
 5023              	.L315:
2038:Drivers/STM32F4xx_HAL_Driver/Src/stm32f4xx_ll_usb.c **** 
2039:Drivers/STM32F4xx_HAL_Driver/Src/stm32f4xx_ll_usb.c ****     do
 5024              		.loc 1 2039 5 is_stmt 1 view .LVU1613
2040:Drivers/STM32F4xx_HAL_Driver/Src/stm32f4xx_ll_usb.c ****     {
2041:Drivers/STM32F4xx_HAL_Driver/Src/stm32f4xx_ll_usb.c ****       if (++count > 1000U)
 5025              		.loc 1 2041 7 view .LVU1614
 5026              		.loc 1 2041 10 is_stmt 0 view .LVU1615
ARM GAS  /tmp/ccSVR7EX.s 			page 146


 5027 005a 0133     		adds	r3, r3, #1
 5028              	.LVL413:
 5029              		.loc 1 2041 10 view .LVU1616
 5030 005c B3F57A7F 		cmp	r3, #1000
 5031 0060 ECD8     		bhi	.L314
2042:Drivers/STM32F4xx_HAL_Driver/Src/stm32f4xx_ll_usb.c ****       {
2043:Drivers/STM32F4xx_HAL_Driver/Src/stm32f4xx_ll_usb.c ****         break;
2044:Drivers/STM32F4xx_HAL_Driver/Src/stm32f4xx_ll_usb.c ****       }
2045:Drivers/STM32F4xx_HAL_Driver/Src/stm32f4xx_ll_usb.c ****     } while ((USBx_HC(i)->HCCHAR & USB_OTG_HCCHAR_CHENA) == USB_OTG_HCCHAR_CHENA);
 5032              		.loc 1 2045 13 is_stmt 1 view .LVU1617
 5033              		.loc 1 2045 25 is_stmt 0 view .LVU1618
 5034 0062 0A68     		ldr	r2, [r1]
 5035              		.loc 1 2045 5 view .LVU1619
 5036 0064 002A     		cmp	r2, #0
 5037 0066 F8DB     		blt	.L315
 5038 0068 E8E7     		b	.L314
 5039              	.LVL414:
 5040              	.L318:
2046:Drivers/STM32F4xx_HAL_Driver/Src/stm32f4xx_ll_usb.c ****   }
2047:Drivers/STM32F4xx_HAL_Driver/Src/stm32f4xx_ll_usb.c **** 
2048:Drivers/STM32F4xx_HAL_Driver/Src/stm32f4xx_ll_usb.c ****   /* Clear any pending Host interrupts */
2049:Drivers/STM32F4xx_HAL_Driver/Src/stm32f4xx_ll_usb.c ****   USBx_HOST->HAINT = 0xFFFFFFFFU;
 5041              		.loc 1 2049 3 is_stmt 1 view .LVU1620
 5042              		.loc 1 2049 20 is_stmt 0 view .LVU1621
 5043 006a 4FF0FF33 		mov	r3, #-1
 5044              	.LVL415:
 5045              		.loc 1 2049 20 view .LVU1622
 5046 006e C5F81434 		str	r3, [r5, #1044]
2050:Drivers/STM32F4xx_HAL_Driver/Src/stm32f4xx_ll_usb.c ****   USBx->GINTSTS = 0xFFFFFFFFU;
 5047              		.loc 1 2050 3 is_stmt 1 view .LVU1623
 5048              		.loc 1 2050 17 is_stmt 0 view .LVU1624
 5049 0072 6B61     		str	r3, [r5, #20]
2051:Drivers/STM32F4xx_HAL_Driver/Src/stm32f4xx_ll_usb.c **** 
2052:Drivers/STM32F4xx_HAL_Driver/Src/stm32f4xx_ll_usb.c ****   (void)USB_EnableGlobalInt(USBx);
 5050              		.loc 1 2052 3 is_stmt 1 view .LVU1625
 5051              		.loc 1 2052 9 is_stmt 0 view .LVU1626
 5052 0074 2846     		mov	r0, r5
 5053              	.LVL416:
 5054              		.loc 1 2052 9 view .LVU1627
 5055 0076 FFF7FEFF 		bl	USB_EnableGlobalInt
 5056              	.LVL417:
2053:Drivers/STM32F4xx_HAL_Driver/Src/stm32f4xx_ll_usb.c **** 
2054:Drivers/STM32F4xx_HAL_Driver/Src/stm32f4xx_ll_usb.c ****   return HAL_OK;
 5057              		.loc 1 2054 3 is_stmt 1 view .LVU1628
2055:Drivers/STM32F4xx_HAL_Driver/Src/stm32f4xx_ll_usb.c **** }
 5058              		.loc 1 2055 1 is_stmt 0 view .LVU1629
 5059 007a 0020     		movs	r0, #0
 5060 007c 70BD     		pop	{r4, r5, r6, pc}
 5061              		.loc 1 2055 1 view .LVU1630
 5062              		.cfi_endproc
 5063              	.LFE175:
 5065              		.section	.text.USB_ActivateRemoteWakeup,"ax",%progbits
 5066              		.align	1
 5067              		.global	USB_ActivateRemoteWakeup
 5068              		.syntax unified
 5069              		.thumb
 5070              		.thumb_func
ARM GAS  /tmp/ccSVR7EX.s 			page 147


 5071              		.fpu fpv4-sp-d16
 5073              	USB_ActivateRemoteWakeup:
 5074              	.LVL418:
 5075              	.LFB176:
2056:Drivers/STM32F4xx_HAL_Driver/Src/stm32f4xx_ll_usb.c **** 
2057:Drivers/STM32F4xx_HAL_Driver/Src/stm32f4xx_ll_usb.c **** /**
2058:Drivers/STM32F4xx_HAL_Driver/Src/stm32f4xx_ll_usb.c ****   * @brief  USB_ActivateRemoteWakeup active remote wakeup signalling
2059:Drivers/STM32F4xx_HAL_Driver/Src/stm32f4xx_ll_usb.c ****   * @param  USBx Selected device
2060:Drivers/STM32F4xx_HAL_Driver/Src/stm32f4xx_ll_usb.c ****   * @retval HAL status
2061:Drivers/STM32F4xx_HAL_Driver/Src/stm32f4xx_ll_usb.c ****   */
2062:Drivers/STM32F4xx_HAL_Driver/Src/stm32f4xx_ll_usb.c **** HAL_StatusTypeDef USB_ActivateRemoteWakeup(USB_OTG_GlobalTypeDef *USBx)
2063:Drivers/STM32F4xx_HAL_Driver/Src/stm32f4xx_ll_usb.c **** {
 5076              		.loc 1 2063 1 is_stmt 1 view -0
 5077              		.cfi_startproc
 5078              		@ args = 0, pretend = 0, frame = 0
 5079              		@ frame_needed = 0, uses_anonymous_args = 0
 5080              		@ link register save eliminated.
2064:Drivers/STM32F4xx_HAL_Driver/Src/stm32f4xx_ll_usb.c ****   uint32_t USBx_BASE = (uint32_t)USBx;
 5081              		.loc 1 2064 3 view .LVU1632
2065:Drivers/STM32F4xx_HAL_Driver/Src/stm32f4xx_ll_usb.c **** 
2066:Drivers/STM32F4xx_HAL_Driver/Src/stm32f4xx_ll_usb.c ****   if ((USBx_DEVICE->DSTS & USB_OTG_DSTS_SUSPSTS) == USB_OTG_DSTS_SUSPSTS)
 5082              		.loc 1 2066 3 view .LVU1633
 5083              		.loc 1 2066 19 is_stmt 0 view .LVU1634
 5084 0000 D0F80838 		ldr	r3, [r0, #2056]
 5085              		.loc 1 2066 8 view .LVU1635
 5086 0004 00F50060 		add	r0, r0, #2048
 5087              	.LVL419:
 5088              		.loc 1 2066 6 view .LVU1636
 5089 0008 13F0010F 		tst	r3, #1
 5090 000c 03D0     		beq	.L320
2067:Drivers/STM32F4xx_HAL_Driver/Src/stm32f4xx_ll_usb.c ****   {
2068:Drivers/STM32F4xx_HAL_Driver/Src/stm32f4xx_ll_usb.c ****     /* active Remote wakeup signalling */
2069:Drivers/STM32F4xx_HAL_Driver/Src/stm32f4xx_ll_usb.c ****     USBx_DEVICE->DCTL |= USB_OTG_DCTL_RWUSIG;
 5091              		.loc 1 2069 5 is_stmt 1 view .LVU1637
 5092              		.loc 1 2069 23 is_stmt 0 view .LVU1638
 5093 000e 4368     		ldr	r3, [r0, #4]
 5094 0010 43F00103 		orr	r3, r3, #1
 5095 0014 4360     		str	r3, [r0, #4]
 5096              	.L320:
2070:Drivers/STM32F4xx_HAL_Driver/Src/stm32f4xx_ll_usb.c ****   }
2071:Drivers/STM32F4xx_HAL_Driver/Src/stm32f4xx_ll_usb.c **** 
2072:Drivers/STM32F4xx_HAL_Driver/Src/stm32f4xx_ll_usb.c ****   return HAL_OK;
 5097              		.loc 1 2072 3 is_stmt 1 view .LVU1639
2073:Drivers/STM32F4xx_HAL_Driver/Src/stm32f4xx_ll_usb.c **** }
 5098              		.loc 1 2073 1 is_stmt 0 view .LVU1640
 5099 0016 0020     		movs	r0, #0
 5100              	.LVL420:
 5101              		.loc 1 2073 1 view .LVU1641
 5102 0018 7047     		bx	lr
 5103              		.cfi_endproc
 5104              	.LFE176:
 5106              		.section	.text.USB_DeActivateRemoteWakeup,"ax",%progbits
 5107              		.align	1
 5108              		.global	USB_DeActivateRemoteWakeup
 5109              		.syntax unified
 5110              		.thumb
 5111              		.thumb_func
ARM GAS  /tmp/ccSVR7EX.s 			page 148


 5112              		.fpu fpv4-sp-d16
 5114              	USB_DeActivateRemoteWakeup:
 5115              	.LVL421:
 5116              	.LFB177:
2074:Drivers/STM32F4xx_HAL_Driver/Src/stm32f4xx_ll_usb.c **** 
2075:Drivers/STM32F4xx_HAL_Driver/Src/stm32f4xx_ll_usb.c **** /**
2076:Drivers/STM32F4xx_HAL_Driver/Src/stm32f4xx_ll_usb.c ****   * @brief  USB_DeActivateRemoteWakeup de-active remote wakeup signalling
2077:Drivers/STM32F4xx_HAL_Driver/Src/stm32f4xx_ll_usb.c ****   * @param  USBx Selected device
2078:Drivers/STM32F4xx_HAL_Driver/Src/stm32f4xx_ll_usb.c ****   * @retval HAL status
2079:Drivers/STM32F4xx_HAL_Driver/Src/stm32f4xx_ll_usb.c ****   */
2080:Drivers/STM32F4xx_HAL_Driver/Src/stm32f4xx_ll_usb.c **** HAL_StatusTypeDef USB_DeActivateRemoteWakeup(USB_OTG_GlobalTypeDef *USBx)
2081:Drivers/STM32F4xx_HAL_Driver/Src/stm32f4xx_ll_usb.c **** {
 5117              		.loc 1 2081 1 is_stmt 1 view -0
 5118              		.cfi_startproc
 5119              		@ args = 0, pretend = 0, frame = 0
 5120              		@ frame_needed = 0, uses_anonymous_args = 0
 5121              		@ link register save eliminated.
2082:Drivers/STM32F4xx_HAL_Driver/Src/stm32f4xx_ll_usb.c ****   uint32_t USBx_BASE = (uint32_t)USBx;
 5122              		.loc 1 2082 3 view .LVU1643
2083:Drivers/STM32F4xx_HAL_Driver/Src/stm32f4xx_ll_usb.c **** 
2084:Drivers/STM32F4xx_HAL_Driver/Src/stm32f4xx_ll_usb.c ****   /* active Remote wakeup signalling */
2085:Drivers/STM32F4xx_HAL_Driver/Src/stm32f4xx_ll_usb.c ****   USBx_DEVICE->DCTL &= ~(USB_OTG_DCTL_RWUSIG);
 5123              		.loc 1 2085 3 view .LVU1644
 5124              		.loc 1 2085 21 is_stmt 0 view .LVU1645
 5125 0000 D0F80438 		ldr	r3, [r0, #2052]
 5126 0004 23F00103 		bic	r3, r3, #1
 5127 0008 C0F80438 		str	r3, [r0, #2052]
2086:Drivers/STM32F4xx_HAL_Driver/Src/stm32f4xx_ll_usb.c **** 
2087:Drivers/STM32F4xx_HAL_Driver/Src/stm32f4xx_ll_usb.c ****   return HAL_OK;
 5128              		.loc 1 2087 3 is_stmt 1 view .LVU1646
2088:Drivers/STM32F4xx_HAL_Driver/Src/stm32f4xx_ll_usb.c **** }
 5129              		.loc 1 2088 1 is_stmt 0 view .LVU1647
 5130 000c 0020     		movs	r0, #0
 5131              	.LVL422:
 5132              		.loc 1 2088 1 view .LVU1648
 5133 000e 7047     		bx	lr
 5134              		.cfi_endproc
 5135              	.LFE177:
 5137              		.text
 5138              	.Letext0:
 5139              		.file 2 "/usr/lib/gcc/arm-none-eabi/9.2.1/include/stdint.h"
 5140              		.file 3 "Drivers/CMSIS/Include/cmsis_gcc.h"
 5141              		.file 4 "Drivers/CMSIS/Include/core_cm4.h"
 5142              		.file 5 "Drivers/CMSIS/Device/ST/STM32F4xx/Include/system_stm32f4xx.h"
 5143              		.file 6 "Drivers/CMSIS/Device/ST/STM32F4xx/Include/stm32f407xx.h"
 5144              		.file 7 "Drivers/STM32F4xx_HAL_Driver/Inc/stm32f4xx_hal_def.h"
 5145              		.file 8 "Drivers/STM32F4xx_HAL_Driver/Inc/stm32f4xx_ll_usb.h"
 5146              		.file 9 "Drivers/STM32F4xx_HAL_Driver/Inc/stm32f4xx_hal.h"
ARM GAS  /tmp/ccSVR7EX.s 			page 149


DEFINED SYMBOLS
                            *ABS*:0000000000000000 stm32f4xx_ll_usb.c
     /tmp/ccSVR7EX.s:18     .text.USB_CoreReset:0000000000000000 $t
     /tmp/ccSVR7EX.s:25     .text.USB_CoreReset:0000000000000000 USB_CoreReset
     /tmp/ccSVR7EX.s:115    .text.USB_CoreReset:0000000000000048 $d
     /tmp/ccSVR7EX.s:120    .text.USB_CoreInit:0000000000000000 $t
     /tmp/ccSVR7EX.s:127    .text.USB_CoreInit:0000000000000000 USB_CoreInit
     /tmp/ccSVR7EX.s:260    .text.USB_SetTurnaroundTime:0000000000000000 $t
     /tmp/ccSVR7EX.s:267    .text.USB_SetTurnaroundTime:0000000000000000 USB_SetTurnaroundTime
     /tmp/ccSVR7EX.s:447    .text.USB_SetTurnaroundTime:00000000000000a8 $d
     /tmp/ccSVR7EX.s:466    .text.USB_EnableGlobalInt:0000000000000000 $t
     /tmp/ccSVR7EX.s:473    .text.USB_EnableGlobalInt:0000000000000000 USB_EnableGlobalInt
     /tmp/ccSVR7EX.s:496    .text.USB_DisableGlobalInt:0000000000000000 $t
     /tmp/ccSVR7EX.s:503    .text.USB_DisableGlobalInt:0000000000000000 USB_DisableGlobalInt
     /tmp/ccSVR7EX.s:526    .text.USB_FlushTxFifo:0000000000000000 $t
     /tmp/ccSVR7EX.s:533    .text.USB_FlushTxFifo:0000000000000000 USB_FlushTxFifo
     /tmp/ccSVR7EX.s:594    .text.USB_FlushTxFifo:000000000000002c $d
     /tmp/ccSVR7EX.s:599    .text.USB_FlushRxFifo:0000000000000000 $t
     /tmp/ccSVR7EX.s:606    .text.USB_FlushRxFifo:0000000000000000 USB_FlushRxFifo
     /tmp/ccSVR7EX.s:663    .text.USB_FlushRxFifo:0000000000000028 $d
     /tmp/ccSVR7EX.s:668    .text.USB_SetDevSpeed:0000000000000000 $t
     /tmp/ccSVR7EX.s:675    .text.USB_SetDevSpeed:0000000000000000 USB_SetDevSpeed
     /tmp/ccSVR7EX.s:701    .text.USB_DevInit:0000000000000000 $t
     /tmp/ccSVR7EX.s:708    .text.USB_DevInit:0000000000000000 USB_DevInit
     /tmp/ccSVR7EX.s:1075   .text.USB_DevInit:0000000000000194 $d
     /tmp/ccSVR7EX.s:1080   .text.USB_GetDevSpeed:0000000000000000 $t
     /tmp/ccSVR7EX.s:1087   .text.USB_GetDevSpeed:0000000000000000 USB_GetDevSpeed
     /tmp/ccSVR7EX.s:1145   .text.USB_ActivateEndpoint:0000000000000000 $t
     /tmp/ccSVR7EX.s:1152   .text.USB_ActivateEndpoint:0000000000000000 USB_ActivateEndpoint
     /tmp/ccSVR7EX.s:1279   .text.USB_ActivateDedicatedEndpoint:0000000000000000 $t
     /tmp/ccSVR7EX.s:1286   .text.USB_ActivateDedicatedEndpoint:0000000000000000 USB_ActivateDedicatedEndpoint
     /tmp/ccSVR7EX.s:1422   .text.USB_DeactivateEndpoint:0000000000000000 $t
     /tmp/ccSVR7EX.s:1429   .text.USB_DeactivateEndpoint:0000000000000000 USB_DeactivateEndpoint
     /tmp/ccSVR7EX.s:1594   .text.USB_DeactivateEndpoint:00000000000000d4 $d
     /tmp/ccSVR7EX.s:1600   .text.USB_DeactivateDedicatedEndpoint:0000000000000000 $t
     /tmp/ccSVR7EX.s:1607   .text.USB_DeactivateDedicatedEndpoint:0000000000000000 USB_DeactivateDedicatedEndpoint
     /tmp/ccSVR7EX.s:1730   .text.USB_EP0StartXfer:0000000000000000 $t
     /tmp/ccSVR7EX.s:1737   .text.USB_EP0StartXfer:0000000000000000 USB_EP0StartXfer
     /tmp/ccSVR7EX.s:1979   .text.USB_WritePacket:0000000000000000 $t
     /tmp/ccSVR7EX.s:1986   .text.USB_WritePacket:0000000000000000 USB_WritePacket
     /tmp/ccSVR7EX.s:2062   .text.USB_EPStartXfer:0000000000000000 $t
     /tmp/ccSVR7EX.s:2069   .text.USB_EPStartXfer:0000000000000000 USB_EPStartXfer
     /tmp/ccSVR7EX.s:2464   .text.USB_EPStartXfer:0000000000000214 $d
     /tmp/ccSVR7EX.s:2469   .text.USB_ReadPacket:0000000000000000 $t
     /tmp/ccSVR7EX.s:2476   .text.USB_ReadPacket:0000000000000000 USB_ReadPacket
     /tmp/ccSVR7EX.s:2601   .text.USB_EPSetStall:0000000000000000 $t
     /tmp/ccSVR7EX.s:2608   .text.USB_EPSetStall:0000000000000000 USB_EPSetStall
     /tmp/ccSVR7EX.s:2689   .text.USB_EPClearStall:0000000000000000 $t
     /tmp/ccSVR7EX.s:2696   .text.USB_EPClearStall:0000000000000000 USB_EPClearStall
     /tmp/ccSVR7EX.s:2779   .text.USB_StopDevice:0000000000000000 $t
     /tmp/ccSVR7EX.s:2786   .text.USB_StopDevice:0000000000000000 USB_StopDevice
     /tmp/ccSVR7EX.s:2873   .text.USB_SetDevAddress:0000000000000000 $t
     /tmp/ccSVR7EX.s:2880   .text.USB_SetDevAddress:0000000000000000 USB_SetDevAddress
     /tmp/ccSVR7EX.s:2915   .text.USB_DevConnect:0000000000000000 $t
     /tmp/ccSVR7EX.s:2922   .text.USB_DevConnect:0000000000000000 USB_DevConnect
     /tmp/ccSVR7EX.s:2951   .text.USB_DevDisconnect:0000000000000000 $t
     /tmp/ccSVR7EX.s:2958   .text.USB_DevDisconnect:0000000000000000 USB_DevDisconnect
ARM GAS  /tmp/ccSVR7EX.s 			page 150


     /tmp/ccSVR7EX.s:2987   .text.USB_ReadInterrupts:0000000000000000 $t
     /tmp/ccSVR7EX.s:2994   .text.USB_ReadInterrupts:0000000000000000 USB_ReadInterrupts
     /tmp/ccSVR7EX.s:3021   .text.USB_ReadDevAllOutEpInterrupt:0000000000000000 $t
     /tmp/ccSVR7EX.s:3028   .text.USB_ReadDevAllOutEpInterrupt:0000000000000000 USB_ReadDevAllOutEpInterrupt
     /tmp/ccSVR7EX.s:3061   .text.USB_ReadDevAllInEpInterrupt:0000000000000000 $t
     /tmp/ccSVR7EX.s:3068   .text.USB_ReadDevAllInEpInterrupt:0000000000000000 USB_ReadDevAllInEpInterrupt
     /tmp/ccSVR7EX.s:3101   .text.USB_ReadDevOutEPInterrupt:0000000000000000 $t
     /tmp/ccSVR7EX.s:3108   .text.USB_ReadDevOutEPInterrupt:0000000000000000 USB_ReadDevOutEPInterrupt
     /tmp/ccSVR7EX.s:3142   .text.USB_ReadDevInEPInterrupt:0000000000000000 $t
     /tmp/ccSVR7EX.s:3149   .text.USB_ReadDevInEPInterrupt:0000000000000000 USB_ReadDevInEPInterrupt
     /tmp/ccSVR7EX.s:3210   .text.USB_ClearInterrupts:0000000000000000 $t
     /tmp/ccSVR7EX.s:3217   .text.USB_ClearInterrupts:0000000000000000 USB_ClearInterrupts
     /tmp/ccSVR7EX.s:3236   .text.USB_GetMode:0000000000000000 $t
     /tmp/ccSVR7EX.s:3243   .text.USB_GetMode:0000000000000000 USB_GetMode
     /tmp/ccSVR7EX.s:3262   .text.USB_SetCurrentMode:0000000000000000 $t
     /tmp/ccSVR7EX.s:3269   .text.USB_SetCurrentMode:0000000000000000 USB_SetCurrentMode
     /tmp/ccSVR7EX.s:3386   .text.USB_ActivateSetup:0000000000000000 $t
     /tmp/ccSVR7EX.s:3393   .text.USB_ActivateSetup:0000000000000000 USB_ActivateSetup
     /tmp/ccSVR7EX.s:3423   .text.USB_EP0_OutStart:0000000000000000 $t
     /tmp/ccSVR7EX.s:3430   .text.USB_EP0_OutStart:0000000000000000 USB_EP0_OutStart
     /tmp/ccSVR7EX.s:3513   .text.USB_EP0_OutStart:000000000000005c $d
     /tmp/ccSVR7EX.s:3518   .text.USB_HostInit:0000000000000000 $t
     /tmp/ccSVR7EX.s:3525   .text.USB_HostInit:0000000000000000 USB_HostInit
     /tmp/ccSVR7EX.s:3725   .text.USB_HostInit:00000000000000e4 $d
     /tmp/ccSVR7EX.s:3732   .text.USB_InitFSLSPClkSel:0000000000000000 $t
     /tmp/ccSVR7EX.s:3739   .text.USB_InitFSLSPClkSel:0000000000000000 USB_InitFSLSPClkSel
     /tmp/ccSVR7EX.s:3810   .text.USB_ResetPort:0000000000000000 $t
     /tmp/ccSVR7EX.s:3817   .text.USB_ResetPort:0000000000000000 USB_ResetPort
     /tmp/ccSVR7EX.s:3886   .text.USB_DriveVbus:0000000000000000 $t
     /tmp/ccSVR7EX.s:3893   .text.USB_DriveVbus:0000000000000000 USB_DriveVbus
     /tmp/ccSVR7EX.s:3972   .text.USB_GetHostSpeed:0000000000000000 $t
     /tmp/ccSVR7EX.s:3979   .text.USB_GetHostSpeed:0000000000000000 USB_GetHostSpeed
     /tmp/ccSVR7EX.s:4017   .text.USB_GetCurrentFrame:0000000000000000 $t
     /tmp/ccSVR7EX.s:4024   .text.USB_GetCurrentFrame:0000000000000000 USB_GetCurrentFrame
     /tmp/ccSVR7EX.s:4047   .text.USB_HC_Init:0000000000000000 $t
     /tmp/ccSVR7EX.s:4054   .text.USB_HC_Init:0000000000000000 USB_HC_Init
     /tmp/ccSVR7EX.s:4096   .text.USB_HC_Init:0000000000000022 $d
     /tmp/ccSVR7EX.s:4100   .text.USB_HC_Init:0000000000000026 $t
     /tmp/ccSVR7EX.s:4291   .text.USB_HC_ReadInterrupt:0000000000000000 $t
     /tmp/ccSVR7EX.s:4298   .text.USB_HC_ReadInterrupt:0000000000000000 USB_HC_ReadInterrupt
     /tmp/ccSVR7EX.s:4321   .text.USB_HC_Halt:0000000000000000 $t
     /tmp/ccSVR7EX.s:4328   .text.USB_HC_Halt:0000000000000000 USB_HC_Halt
     /tmp/ccSVR7EX.s:4514   .text.USB_DoPing:0000000000000000 $t
     /tmp/ccSVR7EX.s:4521   .text.USB_DoPing:0000000000000000 USB_DoPing
     /tmp/ccSVR7EX.s:4563   .text.USB_DoPing:0000000000000020 $d
     /tmp/ccSVR7EX.s:4568   .text.USB_HC_StartXfer:0000000000000000 $t
     /tmp/ccSVR7EX.s:4575   .text.USB_HC_StartXfer:0000000000000000 USB_HC_StartXfer
     /tmp/ccSVR7EX.s:4812   .text.USB_HC_StartXfer:00000000000000fc $d
     /tmp/ccSVR7EX.s:4817   .text.USB_HC_StartXfer:0000000000000100 $t
     /tmp/ccSVR7EX.s:4905   .text.USB_HC_StartXfer:0000000000000150 $d
     /tmp/ccSVR7EX.s:4910   .text.USB_StopHost:0000000000000000 $t
     /tmp/ccSVR7EX.s:4917   .text.USB_StopHost:0000000000000000 USB_StopHost
     /tmp/ccSVR7EX.s:5066   .text.USB_ActivateRemoteWakeup:0000000000000000 $t
     /tmp/ccSVR7EX.s:5073   .text.USB_ActivateRemoteWakeup:0000000000000000 USB_ActivateRemoteWakeup
     /tmp/ccSVR7EX.s:5107   .text.USB_DeActivateRemoteWakeup:0000000000000000 $t
     /tmp/ccSVR7EX.s:5114   .text.USB_DeActivateRemoteWakeup:0000000000000000 USB_DeActivateRemoteWakeup

ARM GAS  /tmp/ccSVR7EX.s 			page 151


UNDEFINED SYMBOLS
HAL_Delay
